	.text
	.file	"btConvexConvexAlgorithm.cpp"
	.file	1 "/home/chris/test-suite/MultiSource/Benchmarks/Bullet/include/LinearMath" "btAlignedAllocator.h"
	.file	2 "/home/chris/test-suite/MultiSource/Benchmarks/Bullet" "btConvexConvexAlgorithm.cpp"
	.file	3 "/home/chris/test-suite/MultiSource/Benchmarks/Bullet/include/BulletCollision/BroadphaseCollision" "btBroadphaseProxy.h"
	.file	4 "/home/chris/test-suite/MultiSource/Benchmarks/Bullet/include/LinearMath" "btScalar.h"
	.file	5 "/home/chris/test-suite/MultiSource/Benchmarks/Bullet/include/LinearMath" "btVector3.h"
	.file	6 "/home/chris/test-suite/MultiSource/Benchmarks/Bullet/include/LinearMath" "btMatrix3x3.h"
	.file	7 "/home/chris/test-suite/MultiSource/Benchmarks/Bullet/include/LinearMath" "btQuadWord.h"
	.file	8 "/home/chris/test-suite/MultiSource/Benchmarks/Bullet/include/LinearMath" "btQuaternion.h"
	.file	9 "/home/chris/test-suite/MultiSource/Benchmarks/Bullet/include/BulletCollision/NarrowPhaseCollision" "btManifoldPoint.h"
	.file	10 "/home/chris/test-suite/MultiSource/Benchmarks/Bullet/include/BulletCollision/NarrowPhaseCollision" "btPersistentManifold.h"
	.file	11 "/data/proj/compiler/llvm" "llvm-project/build/lib/clang/10.0.0/include/stddef.h"
	.file	12 "/home/chris/test-suite/MultiSource/Benchmarks/Bullet/include/LinearMath" "btTransform.h"
	.file	13 "/usr/include" "stdlib.h"
	.file	14 "/usr/lib/gcc/x86_64-linux-gnu/7.4.0/../../../../include/c++/7.4.0/bits" "std_abs.h"
	.file	15 "/usr/include/x86_64-linux-gnu/bits" "mathcalls.h"
	.file	16 "/usr/lib/gcc/x86_64-linux-gnu/7.4.0/../../../../include/c++/7.4.0" "cmath"
	.file	17 "/usr/include" "math.h"
	.file	18 "/usr/lib/gcc/x86_64-linux-gnu/7.4.0/../../../../include/c++/7.4.0" "math.h"
	.file	19 "/usr/lib/gcc/x86_64-linux-gnu/7.4.0/../../../../include/c++/7.4.0" "cstdlib"
	.file	20 "/usr/include/x86_64-linux-gnu/bits" "stdlib-float.h"
	.file	21 "/usr/include/x86_64-linux-gnu/bits" "stdlib-bsearch.h"
	.file	22 "/usr/lib/gcc/x86_64-linux-gnu/7.4.0/../../../../include/c++/7.4.0" "stdlib.h"
	.file	23 "/usr/lib/gcc/x86_64-linux-gnu/7.4.0/../../../../include/c++/7.4.0/bits" "exception_ptr.h"
	.file	24 "/usr/lib/gcc/x86_64-linux-gnu/7.4.0/../../../../include/x86_64-linux-gnu/c++/7.4.0/bits" "c++config.h"
	.globl	_ZN23btConvexConvexAlgorithm10CreateFuncC2EP22btVoronoiSimplexSolverP30btConvexPenetrationDepthSolver # -- Begin function _ZN23btConvexConvexAlgorithm10CreateFuncC2EP22btVoronoiSimplexSolverP30btConvexPenetrationDepthSolver
	.p2align	4, 0x90
	.type	_ZN23btConvexConvexAlgorithm10CreateFuncC2EP22btVoronoiSimplexSolverP30btConvexPenetrationDepthSolver,@function
_ZN23btConvexConvexAlgorithm10CreateFuncC2EP22btVoronoiSimplexSolverP30btConvexPenetrationDepthSolver: # @_ZN23btConvexConvexAlgorithm10CreateFuncC2EP22btVoronoiSimplexSolverP30btConvexPenetrationDepthSolver
.Lfunc_begin0:
	.loc	2 180 0                 # /home/chris/test-suite/MultiSource/Benchmarks/Bullet/btConvexConvexAlgorithm.cpp:180:0
	.cfi_startproc
# %bb.0:
	pushq	%r15
	.cfi_def_cfa_offset 16
	pushq	%r14
	.cfi_def_cfa_offset 24
	pushq	%rbx
	.cfi_def_cfa_offset 32
	.cfi_offset %rbx, -32
	.cfi_offset %r14, -24
	.cfi_offset %r15, -16
	movq	%rdx, %r14
	movq	%rsi, %r15
	movq	%rdi, %rbx
.Ltmp0:
	#DEBUG_VALUE: CreateFunc:pdSolver <- $r14
	#DEBUG_VALUE: CreateFunc:simplexSolver <- $r15
	#DEBUG_VALUE: CreateFunc:this <- $rbx
	.loc	2 179 38 prologue_end   # /home/chris/test-suite/MultiSource/Benchmarks/Bullet/btConvexConvexAlgorithm.cpp:179:38
	movq	%rbx, %rdi
	callq	_ZN30btCollisionAlgorithmCreateFuncC2Ev
.Ltmp1:
	.loc	2 0 38 is_stmt 0        # /home/chris/test-suite/MultiSource/Benchmarks/Bullet/btConvexConvexAlgorithm.cpp:0:38
	movabsq	$_ZTVN23btConvexConvexAlgorithm10CreateFuncE, %rax
	addq	$16, %rax
	.loc	2 180 1 is_stmt 1       # /home/chris/test-suite/MultiSource/Benchmarks/Bullet/btConvexConvexAlgorithm.cpp:180:1
	movq	%rax, (%rbx)
.Ltmp2:
	.loc	2 181 30                # /home/chris/test-suite/MultiSource/Benchmarks/Bullet/btConvexConvexAlgorithm.cpp:181:30
	movl	$0, 32(%rbx)
	.loc	2 182 39                # /home/chris/test-suite/MultiSource/Benchmarks/Bullet/btConvexConvexAlgorithm.cpp:182:39
	movl	$3, 36(%rbx)
	.loc	2 183 18                # /home/chris/test-suite/MultiSource/Benchmarks/Bullet/btConvexConvexAlgorithm.cpp:183:18
	movq	%r15, 24(%rbx)
	.loc	2 184 13                # /home/chris/test-suite/MultiSource/Benchmarks/Bullet/btConvexConvexAlgorithm.cpp:184:13
	movq	%r14, 16(%rbx)
.Ltmp3:
	.loc	2 185 1                 # /home/chris/test-suite/MultiSource/Benchmarks/Bullet/btConvexConvexAlgorithm.cpp:185:1
	popq	%rbx
.Ltmp4:
	.cfi_def_cfa_offset 24
	popq	%r14
.Ltmp5:
	.cfi_def_cfa_offset 16
	popq	%r15
.Ltmp6:
	.cfi_def_cfa_offset 8
	retq
.Ltmp7:
.Lfunc_end0:
	.size	_ZN23btConvexConvexAlgorithm10CreateFuncC2EP22btVoronoiSimplexSolverP30btConvexPenetrationDepthSolver, .Lfunc_end0-_ZN23btConvexConvexAlgorithm10CreateFuncC2EP22btVoronoiSimplexSolverP30btConvexPenetrationDepthSolver
	.cfi_endproc
	.file	25 "/home/chris/test-suite/MultiSource/Benchmarks/Bullet/include/LinearMath" "btTransformUtil.h"
	.file	26 "/home/chris/test-suite/MultiSource/Benchmarks/Bullet/include/BulletCollision/CollisionDispatch" "btConvexConvexAlgorithm.h"
	.file	27 "/home/chris/test-suite/MultiSource/Benchmarks/Bullet/include/BulletCollision/NarrowPhaseCollision" "btVoronoiSimplexSolver.h"
	.file	28 "/home/chris/test-suite/MultiSource/Benchmarks/Bullet/include/BulletCollision/BroadphaseCollision" "btCollisionAlgorithm.h"
	.file	29 "/home/chris/test-suite/MultiSource/Benchmarks/Bullet/include/BulletCollision/BroadphaseCollision" "btDispatcher.h"
	.file	30 "/home/chris/test-suite/MultiSource/Benchmarks/Bullet/include/LinearMath" "btAlignedObjectArray.h"
	.file	31 "/home/chris/test-suite/MultiSource/Benchmarks/Bullet/include/BulletCollision/CollisionDispatch" "btCollisionCreateFunc.h"
                                        # -- End function
	.section	.text._ZN30btCollisionAlgorithmCreateFuncC2Ev,"axG",@progbits,_ZN30btCollisionAlgorithmCreateFuncC2Ev,comdat
	.weak	_ZN30btCollisionAlgorithmCreateFuncC2Ev # -- Begin function _ZN30btCollisionAlgorithmCreateFuncC2Ev
	.p2align	4, 0x90
	.type	_ZN30btCollisionAlgorithmCreateFuncC2Ev,@function
_ZN30btCollisionAlgorithmCreateFuncC2Ev: # @_ZN30btCollisionAlgorithmCreateFuncC2Ev
.Lfunc_begin1:
	.loc	31 32 0                 # /home/chris/test-suite/MultiSource/Benchmarks/Bullet/include/BulletCollision/CollisionDispatch/btCollisionCreateFunc.h:32:0
	.cfi_startproc
# %bb.0:
	movabsq	$_ZTV30btCollisionAlgorithmCreateFunc, %rax
	addq	$16, %rax
.Ltmp8:
	#DEBUG_VALUE: btCollisionAlgorithmCreateFunc:this <- $rdi
	.loc	31 32 2 prologue_end    # /home/chris/test-suite/MultiSource/Benchmarks/Bullet/include/BulletCollision/CollisionDispatch/btCollisionCreateFunc.h:32:2
	movq	%rax, (%rdi)
	.loc	31 31 4                 # /home/chris/test-suite/MultiSource/Benchmarks/Bullet/include/BulletCollision/CollisionDispatch/btCollisionCreateFunc.h:31:4
	movb	$0, 8(%rdi)
	.loc	31 33 2                 # /home/chris/test-suite/MultiSource/Benchmarks/Bullet/include/BulletCollision/CollisionDispatch/btCollisionCreateFunc.h:33:2
	retq
.Ltmp9:
.Lfunc_end1:
	.size	_ZN30btCollisionAlgorithmCreateFuncC2Ev, .Lfunc_end1-_ZN30btCollisionAlgorithmCreateFuncC2Ev
	.cfi_endproc
                                        # -- End function
	.text
	.globl	_ZN23btConvexConvexAlgorithm10CreateFuncD2Ev # -- Begin function _ZN23btConvexConvexAlgorithm10CreateFuncD2Ev
	.p2align	4, 0x90
	.type	_ZN23btConvexConvexAlgorithm10CreateFuncD2Ev,@function
_ZN23btConvexConvexAlgorithm10CreateFuncD2Ev: # @_ZN23btConvexConvexAlgorithm10CreateFuncD2Ev
.Lfunc_begin2:
	.loc	2 188 0                 # /home/chris/test-suite/MultiSource/Benchmarks/Bullet/btConvexConvexAlgorithm.cpp:188:0
	.cfi_startproc
# %bb.0:
	#DEBUG_VALUE: ~CreateFunc:this <- $rdi
	pushq	%rax
	.cfi_def_cfa_offset 16
.Ltmp10:
	.loc	2 189 1 prologue_end    # /home/chris/test-suite/MultiSource/Benchmarks/Bullet/btConvexConvexAlgorithm.cpp:189:1
	callq	_ZN30btCollisionAlgorithmCreateFuncD2Ev
.Ltmp11:
	.loc	2 189 1 is_stmt 0       # /home/chris/test-suite/MultiSource/Benchmarks/Bullet/btConvexConvexAlgorithm.cpp:189:1
	popq	%rax
	.cfi_def_cfa_offset 8
	retq
.Ltmp12:
.Lfunc_end2:
	.size	_ZN23btConvexConvexAlgorithm10CreateFuncD2Ev, .Lfunc_end2-_ZN23btConvexConvexAlgorithm10CreateFuncD2Ev
	.cfi_endproc
                                        # -- End function
	.globl	_ZN23btConvexConvexAlgorithm10CreateFuncD0Ev # -- Begin function _ZN23btConvexConvexAlgorithm10CreateFuncD0Ev
	.p2align	4, 0x90
	.type	_ZN23btConvexConvexAlgorithm10CreateFuncD0Ev,@function
_ZN23btConvexConvexAlgorithm10CreateFuncD0Ev: # @_ZN23btConvexConvexAlgorithm10CreateFuncD0Ev
.Lfunc_begin3:
	.loc	2 188 0 is_stmt 1       # /home/chris/test-suite/MultiSource/Benchmarks/Bullet/btConvexConvexAlgorithm.cpp:188:0
	.cfi_startproc
# %bb.0:
	pushq	%rbx
	.cfi_def_cfa_offset 16
	.cfi_offset %rbx, -16
	movq	%rdi, %rbx
.Ltmp13:
	#DEBUG_VALUE: ~CreateFunc:this <- $rbx
	.loc	2 188 1 prologue_end    # /home/chris/test-suite/MultiSource/Benchmarks/Bullet/btConvexConvexAlgorithm.cpp:188:1
	movq	%rbx, %rdi
	callq	_ZN23btConvexConvexAlgorithm10CreateFuncD2Ev
.Ltmp14:
	movq	%rbx, %rdi
	callq	_ZdlPv
.Ltmp15:
	.loc	2 189 1                 # /home/chris/test-suite/MultiSource/Benchmarks/Bullet/btConvexConvexAlgorithm.cpp:189:1
	popq	%rbx
.Ltmp16:
	.cfi_def_cfa_offset 8
	retq
.Ltmp17:
.Lfunc_end3:
	.size	_ZN23btConvexConvexAlgorithm10CreateFuncD0Ev, .Lfunc_end3-_ZN23btConvexConvexAlgorithm10CreateFuncD0Ev
	.cfi_endproc
                                        # -- End function
	.globl	_ZN23btConvexConvexAlgorithmC2EP20btPersistentManifoldRK36btCollisionAlgorithmConstructionInfoP17btCollisionObjectS6_P22btVoronoiSimplexSolverP30btConvexPenetrationDepthSolverii # -- Begin function _ZN23btConvexConvexAlgorithmC2EP20btPersistentManifoldRK36btCollisionAlgorithmConstructionInfoP17btCollisionObjectS6_P22btVoronoiSimplexSolverP30btConvexPenetrationDepthSolverii
	.p2align	4, 0x90
	.type	_ZN23btConvexConvexAlgorithmC2EP20btPersistentManifoldRK36btCollisionAlgorithmConstructionInfoP17btCollisionObjectS6_P22btVoronoiSimplexSolverP30btConvexPenetrationDepthSolverii,@function
_ZN23btConvexConvexAlgorithmC2EP20btPersistentManifoldRK36btCollisionAlgorithmConstructionInfoP17btCollisionObjectS6_P22btVoronoiSimplexSolverP30btConvexPenetrationDepthSolverii: # @_ZN23btConvexConvexAlgorithmC2EP20btPersistentManifoldRK36btCollisionAlgorithmConstructionInfoP17btCollisionObjectS6_P22btVoronoiSimplexSolverP30btConvexPenetrationDepthSolverii
.Lfunc_begin4:
	.loc	2 204 0                 # /home/chris/test-suite/MultiSource/Benchmarks/Bullet/btConvexConvexAlgorithm.cpp:204:0
	.cfi_startproc
	.cfi_personality 3, __gxx_personality_v0
	.cfi_lsda 3, .Lexception0
# %bb.0:
	#DEBUG_VALUE: btConvexConvexAlgorithm:this <- $rdi
	#DEBUG_VALUE: btConvexConvexAlgorithm:ci <- $rdx
	#DEBUG_VALUE: btConvexConvexAlgorithm:body0 <- $rcx
	#DEBUG_VALUE: btConvexConvexAlgorithm:body1 <- $r8
	pushq	%rbp
	.cfi_def_cfa_offset 16
	pushq	%r15
	.cfi_def_cfa_offset 24
	pushq	%r14
	.cfi_def_cfa_offset 32
	pushq	%r13
	.cfi_def_cfa_offset 40
	pushq	%r12
	.cfi_def_cfa_offset 48
	pushq	%rbx
	.cfi_def_cfa_offset 56
	pushq	%rax
	.cfi_def_cfa_offset 64
	.cfi_offset %rbx, -56
	.cfi_offset %r12, -48
	.cfi_offset %r13, -40
	.cfi_offset %r14, -32
	.cfi_offset %r15, -24
	.cfi_offset %rbp, -16
	movq	%r9, %r14
	movq	%r8, %r13
.Ltmp25:
	#DEBUG_VALUE: btConvexConvexAlgorithm:body1 <- $r13
	movq	%rcx, %rbp
.Ltmp26:
	#DEBUG_VALUE: btConvexConvexAlgorithm:body0 <- $rbp
	#DEBUG_VALUE: btConvexConvexAlgorithm:ci <- $rdx
	movq	%rsi, %r15
	movq	%rdi, %rbx
.Ltmp27:
	#DEBUG_VALUE: btConvexConvexAlgorithm:this <- $rbx
	.loc	2 192 3 prologue_end    # /home/chris/test-suite/MultiSource/Benchmarks/Bullet/btConvexConvexAlgorithm.cpp:192:3
	movq	%rbx, %rdi
	movq	%rdx, %rsi
.Ltmp28:
	#DEBUG_VALUE: btConvexConvexAlgorithm:ci <- $rsi
	movq	%rbp, %rdx
	movq	%r13, %rcx
	callq	_ZN30btActivatingCollisionAlgorithmC2ERK36btCollisionAlgorithmConstructionInfoP17btCollisionObjectS4_
.Ltmp29:
	.loc	2 204 1                 # /home/chris/test-suite/MultiSource/Benchmarks/Bullet/btConvexConvexAlgorithm.cpp:204:1
	movq	$_ZTV23btConvexConvexAlgorithm+16, (%rbx)
	.loc	2 199 1                 # /home/chris/test-suite/MultiSource/Benchmarks/Bullet/btConvexConvexAlgorithm.cpp:199:1
	movq	%rbx, %r12
	addq	$16, %r12
	.loc	2 199 51 is_stmt 0      # /home/chris/test-suite/MultiSource/Benchmarks/Bullet/btConvexConvexAlgorithm.cpp:199:51
	movq	%rbp, %rdi
	callq	_ZN17btCollisionObject17getCollisionShapeEv
.Ltmp30:
	.loc	2 199 74                # /home/chris/test-suite/MultiSource/Benchmarks/Bullet/btConvexConvexAlgorithm.cpp:199:74
	movq	(%rax), %rcx
	movq	32(%rcx), %rcx
.Ltmp18:
	movq	%rax, %rdi
	callq	*%rcx
.Ltmp31:
.Ltmp19:
	#DEBUG_VALUE: btConvexConvexAlgorithm:minimumPointsPerturbationThreshold <- undef
	#DEBUG_VALUE: btConvexConvexAlgorithm:numPerturbationIterations <- undef
	#DEBUG_VALUE: btConvexConvexAlgorithm:pdSolver <- undef
	#DEBUG_VALUE: btConvexConvexAlgorithm:simplexSolver <- undef
	#DEBUG_VALUE: btConvexConvexAlgorithm:mf <- undef
	jmp	.LBB4_1
.Ltmp32:
.LBB4_1:
	#DEBUG_VALUE: btConvexConvexAlgorithm:this <- $rbx
	#DEBUG_VALUE: btConvexConvexAlgorithm:body0 <- $rbp
	#DEBUG_VALUE: btConvexConvexAlgorithm:body1 <- $r13
	.loc	2 200 42 is_stmt 1      # /home/chris/test-suite/MultiSource/Benchmarks/Bullet/btConvexConvexAlgorithm.cpp:200:42
	movq	%r13, %rdi
	movss	%xmm0, 4(%rsp)          # 4-byte Spill
	callq	_ZN17btCollisionObject17getCollisionShapeEv
.Ltmp33:
	.loc	2 200 65 is_stmt 0      # /home/chris/test-suite/MultiSource/Benchmarks/Bullet/btConvexConvexAlgorithm.cpp:200:65
	movq	(%rax), %rcx
	movq	32(%rcx), %rcx
.Ltmp20:
	movq	%rax, %rdi
	callq	*%rcx
.Ltmp34:
	movaps	%xmm0, %xmm1
	movss	4(%rsp), %xmm0          # 4-byte Reload
                                        # xmm0 = mem[0],zero,zero,zero
.Ltmp21:
	jmp	.LBB4_2
.Ltmp35:
.LBB4_2:
	#DEBUG_VALUE: btConvexConvexAlgorithm:this <- $rbx
	#DEBUG_VALUE: btConvexConvexAlgorithm:body0 <- $rbp
	#DEBUG_VALUE: btConvexConvexAlgorithm:body1 <- $r13
.Ltmp22:
	.loc	2 199 1 is_stmt 1       # /home/chris/test-suite/MultiSource/Benchmarks/Bullet/btConvexConvexAlgorithm.cpp:199:1
	movq	%r12, %rdi
	callq	_ZN30btConvexSeparatingDistanceUtilC2Eff
.Ltmp36:
.Ltmp23:
	jmp	.LBB4_3
.Ltmp37:
.LBB4_3:
	#DEBUG_VALUE: btConvexConvexAlgorithm:this <- $rbx
	#DEBUG_VALUE: btConvexConvexAlgorithm:body0 <- $rbp
	#DEBUG_VALUE: btConvexConvexAlgorithm:body1 <- $r13
	.loc	2 193 1                 # /home/chris/test-suite/MultiSource/Benchmarks/Bullet/btConvexConvexAlgorithm.cpp:193:1
	movq	%r14, 112(%rbx)
	.loc	2 194 1                 # /home/chris/test-suite/MultiSource/Benchmarks/Bullet/btConvexConvexAlgorithm.cpp:194:1
	movq	64(%rsp), %rax
	movq	%rax, 120(%rbx)
	.loc	2 195 1                 # /home/chris/test-suite/MultiSource/Benchmarks/Bullet/btConvexConvexAlgorithm.cpp:195:1
	movb	$0, 128(%rbx)
	.loc	2 196 1                 # /home/chris/test-suite/MultiSource/Benchmarks/Bullet/btConvexConvexAlgorithm.cpp:196:1
	movq	%r15, 136(%rbx)
	.loc	2 197 1                 # /home/chris/test-suite/MultiSource/Benchmarks/Bullet/btConvexConvexAlgorithm.cpp:197:1
	movb	$0, 144(%rbx)
	.loc	2 202 1                 # /home/chris/test-suite/MultiSource/Benchmarks/Bullet/btConvexConvexAlgorithm.cpp:202:1
	movl	72(%rsp), %eax
	movl	%eax, 148(%rbx)
	.loc	2 203 1                 # /home/chris/test-suite/MultiSource/Benchmarks/Bullet/btConvexConvexAlgorithm.cpp:203:1
	movl	80(%rsp), %eax
	movl	%eax, 152(%rbx)
	.loc	2 207 1                 # /home/chris/test-suite/MultiSource/Benchmarks/Bullet/btConvexConvexAlgorithm.cpp:207:1
	addq	$8, %rsp
	.cfi_def_cfa_offset 56
	popq	%rbx
.Ltmp38:
	.cfi_def_cfa_offset 48
	popq	%r12
	.cfi_def_cfa_offset 40
	popq	%r13
.Ltmp39:
	.cfi_def_cfa_offset 32
	popq	%r14
	.cfi_def_cfa_offset 24
	popq	%r15
	.cfi_def_cfa_offset 16
	popq	%rbp
.Ltmp40:
	.cfi_def_cfa_offset 8
	retq
.LBB4_4:
	.cfi_def_cfa_offset 64
.Ltmp41:
	#DEBUG_VALUE: btConvexConvexAlgorithm:this <- $rbx
	#DEBUG_VALUE: btConvexConvexAlgorithm:body0 <- $rbp
	#DEBUG_VALUE: btConvexConvexAlgorithm:body1 <- $r13
.Ltmp24:
                                        # kill: killed $rdx
	.loc	2 0 1 is_stmt 0         # /home/chris/test-suite/MultiSource/Benchmarks/Bullet/btConvexConvexAlgorithm.cpp:0:1
	movq	%rax, %rbp
.Ltmp42:
	.loc	2 207 1                 # /home/chris/test-suite/MultiSource/Benchmarks/Bullet/btConvexConvexAlgorithm.cpp:207:1
	movq	%rbx, %rdi
	callq	_ZN30btActivatingCollisionAlgorithmD2Ev
.Ltmp43:
	.loc	2 0 1                   # /home/chris/test-suite/MultiSource/Benchmarks/Bullet/btConvexConvexAlgorithm.cpp:0:1
	movq	%rbp, %rdi
	callq	_Unwind_Resume
.Ltmp44:
.Lfunc_end4:
	.size	_ZN23btConvexConvexAlgorithmC2EP20btPersistentManifoldRK36btCollisionAlgorithmConstructionInfoP17btCollisionObjectS6_P22btVoronoiSimplexSolverP30btConvexPenetrationDepthSolverii, .Lfunc_end4-_ZN23btConvexConvexAlgorithmC2EP20btPersistentManifoldRK36btCollisionAlgorithmConstructionInfoP17btCollisionObjectS6_P22btVoronoiSimplexSolverP30btConvexPenetrationDepthSolverii
	.cfi_endproc
	.file	32 "/home/chris/test-suite/MultiSource/Benchmarks/Bullet/include/BulletCollision/CollisionDispatch" "btCollisionObject.h"
	.section	.gcc_except_table,"a",@progbits
	.p2align	2
GCC_except_table4:
.Lexception0:
	.byte	255                     # @LPStart Encoding = omit
	.byte	255                     # @TType Encoding = omit
	.byte	1                       # Call site Encoding = uleb128
	.uleb128 .Lcst_end0-.Lcst_begin0
.Lcst_begin0:
	.uleb128 .Lfunc_begin4-.Lfunc_begin4 # >> Call Site 1 <<
	.uleb128 .Ltmp18-.Lfunc_begin4  #   Call between .Lfunc_begin4 and .Ltmp18
	.byte	0                       #     has no landing pad
	.byte	0                       #   On action: cleanup
	.uleb128 .Ltmp18-.Lfunc_begin4  # >> Call Site 2 <<
	.uleb128 .Ltmp23-.Ltmp18        #   Call between .Ltmp18 and .Ltmp23
	.uleb128 .Ltmp24-.Lfunc_begin4  #     jumps to .Ltmp24
	.byte	0                       #   On action: cleanup
	.uleb128 .Ltmp23-.Lfunc_begin4  # >> Call Site 3 <<
	.uleb128 .Lfunc_end4-.Ltmp23    #   Call between .Ltmp23 and .Lfunc_end4
	.byte	0                       #     has no landing pad
	.byte	0                       #   On action: cleanup
.Lcst_end0:
	.p2align	2
                                        # -- End function
	.section	.text._ZN17btCollisionObject17getCollisionShapeEv,"axG",@progbits,_ZN17btCollisionObject17getCollisionShapeEv,comdat
	.weak	_ZN17btCollisionObject17getCollisionShapeEv # -- Begin function _ZN17btCollisionObject17getCollisionShapeEv
	.p2align	4, 0x90
	.type	_ZN17btCollisionObject17getCollisionShapeEv,@function
_ZN17btCollisionObject17getCollisionShapeEv: # @_ZN17btCollisionObject17getCollisionShapeEv
.Lfunc_begin5:
	.loc	32 195 0 is_stmt 1      # /home/chris/test-suite/MultiSource/Benchmarks/Bullet/include/BulletCollision/CollisionDispatch/btCollisionObject.h:195:0
	.cfi_startproc
# %bb.0:
	#DEBUG_VALUE: getCollisionShape:this <- $rdi
	.loc	32 196 10 prologue_end  # /home/chris/test-suite/MultiSource/Benchmarks/Bullet/include/BulletCollision/CollisionDispatch/btCollisionObject.h:196:10
	movq	200(%rdi), %rax
	.loc	32 196 3 is_stmt 0      # /home/chris/test-suite/MultiSource/Benchmarks/Bullet/include/BulletCollision/CollisionDispatch/btCollisionObject.h:196:3
	retq
.Ltmp45:
.Lfunc_end5:
	.size	_ZN17btCollisionObject17getCollisionShapeEv, .Lfunc_end5-_ZN17btCollisionObject17getCollisionShapeEv
	.cfi_endproc
                                        # -- End function
	.section	.text._ZN30btConvexSeparatingDistanceUtilC2Eff,"axG",@progbits,_ZN30btConvexSeparatingDistanceUtilC2Eff,comdat
	.weak	_ZN30btConvexSeparatingDistanceUtilC2Eff # -- Begin function _ZN30btConvexSeparatingDistanceUtilC2Eff
	.p2align	4, 0x90
	.type	_ZN30btConvexSeparatingDistanceUtilC2Eff,@function
_ZN30btConvexSeparatingDistanceUtilC2Eff: # @_ZN30btConvexSeparatingDistanceUtilC2Eff
.Lfunc_begin6:
	.loc	25 167 0 is_stmt 1      # /home/chris/test-suite/MultiSource/Benchmarks/Bullet/include/LinearMath/btTransformUtil.h:167:0
	.cfi_startproc
# %bb.0:
	pushq	%rbx
	.cfi_def_cfa_offset 16
	subq	$16, %rsp
	.cfi_def_cfa_offset 32
	.cfi_offset %rbx, -16
	movss	%xmm1, 12(%rsp)         # 4-byte Spill
	movss	%xmm0, 8(%rsp)          # 4-byte Spill
	movq	%rdi, %rbx
.Ltmp46:
	#DEBUG_VALUE: btConvexSeparatingDistanceUtil:boundingRadiusB <- [DW_OP_plus_uconst 12] [$rsp+0]
	#DEBUG_VALUE: btConvexSeparatingDistanceUtil:boundingRadiusA <- [DW_OP_plus_uconst 8] [$rsp+0]
	#DEBUG_VALUE: btConvexSeparatingDistanceUtil:this <- $rbx
	.loc	25 163 2 prologue_end   # /home/chris/test-suite/MultiSource/Benchmarks/Bullet/include/LinearMath/btTransformUtil.h:163:2
	movq	%rbx, %rdi
	callq	_ZN12btQuaternionC2Ev
.Ltmp47:
	movq	%rbx, %rdi
	addq	$16, %rdi
	callq	_ZN12btQuaternionC2Ev
.Ltmp48:
	movq	%rbx, %rdi
	addq	$32, %rdi
	callq	_ZN9btVector3C2Ev
.Ltmp49:
	movq	%rbx, %rdi
	addq	$48, %rdi
	callq	_ZN9btVector3C2Ev
.Ltmp50:
	movq	%rbx, %rdi
	addq	$64, %rdi
	callq	_ZN9btVector3C2Ev
.Ltmp51:
	.loc	25 0 2 is_stmt 0        # /home/chris/test-suite/MultiSource/Benchmarks/Bullet/include/LinearMath/btTransformUtil.h:0:2
	movss	8(%rsp), %xmm0          # 4-byte Reload
                                        # xmm0 = mem[0],zero,zero,zero
.Ltmp52:
	#DEBUG_VALUE: btConvexSeparatingDistanceUtil:boundingRadiusA <- $xmm0
	.loc	25 164 4 is_stmt 1      # /home/chris/test-suite/MultiSource/Benchmarks/Bullet/include/LinearMath/btTransformUtil.h:164:4
	movss	%xmm0, 80(%rbx)
	movss	12(%rsp), %xmm0         # 4-byte Reload
                                        # xmm0 = mem[0],zero,zero,zero
.Ltmp53:
	#DEBUG_VALUE: btConvexSeparatingDistanceUtil:boundingRadiusB <- $xmm0
	.loc	25 165 3                # /home/chris/test-suite/MultiSource/Benchmarks/Bullet/include/LinearMath/btTransformUtil.h:165:3
	movss	%xmm0, 84(%rbx)
	.loc	25 166 3                # /home/chris/test-suite/MultiSource/Benchmarks/Bullet/include/LinearMath/btTransformUtil.h:166:3
	xorps	%xmm0, %xmm0
.Ltmp54:
	movss	%xmm0, 88(%rbx)
	.loc	25 168 2                # /home/chris/test-suite/MultiSource/Benchmarks/Bullet/include/LinearMath/btTransformUtil.h:168:2
	addq	$16, %rsp
	.cfi_def_cfa_offset 16
	popq	%rbx
.Ltmp55:
	.cfi_def_cfa_offset 8
	retq
.Ltmp56:
.Lfunc_end6:
	.size	_ZN30btConvexSeparatingDistanceUtilC2Eff, .Lfunc_end6-_ZN30btConvexSeparatingDistanceUtilC2Eff
	.cfi_endproc
                                        # -- End function
	.text
	.globl	_ZN23btConvexConvexAlgorithmD2Ev # -- Begin function _ZN23btConvexConvexAlgorithmD2Ev
	.p2align	4, 0x90
	.type	_ZN23btConvexConvexAlgorithmD2Ev,@function
_ZN23btConvexConvexAlgorithmD2Ev:       # @_ZN23btConvexConvexAlgorithmD2Ev
.Lfunc_begin7:
	.loc	2 213 0                 # /home/chris/test-suite/MultiSource/Benchmarks/Bullet/btConvexConvexAlgorithm.cpp:213:0
	.cfi_startproc
	.cfi_personality 3, __gxx_personality_v0
	.cfi_lsda 3, .Lexception1
# %bb.0:
	pushq	%r14
	.cfi_def_cfa_offset 16
	pushq	%rbx
	.cfi_def_cfa_offset 24
	pushq	%rax
	.cfi_def_cfa_offset 32
	.cfi_offset %rbx, -24
	.cfi_offset %r14, -16
	movq	%rdi, %rbx
	movabsq	$_ZTV23btConvexConvexAlgorithm, %rax
	addq	$16, %rax
.Ltmp60:
	#DEBUG_VALUE: ~btConvexConvexAlgorithm:this <- $rbx
	.loc	2 213 1 prologue_end    # /home/chris/test-suite/MultiSource/Benchmarks/Bullet/btConvexConvexAlgorithm.cpp:213:1
	movq	%rax, (%rbx)
.Ltmp61:
	.loc	2 214 6                 # /home/chris/test-suite/MultiSource/Benchmarks/Bullet/btConvexConvexAlgorithm.cpp:214:6
	cmpb	$0, 128(%rbx)
.Ltmp62:
	.loc	2 214 6 is_stmt 0       # /home/chris/test-suite/MultiSource/Benchmarks/Bullet/btConvexConvexAlgorithm.cpp:214:6
	je	.LBB7_4
.Ltmp63:
# %bb.1:
	#DEBUG_VALUE: ~btConvexConvexAlgorithm:this <- $rbx
	.loc	2 216 7 is_stmt 1       # /home/chris/test-suite/MultiSource/Benchmarks/Bullet/btConvexConvexAlgorithm.cpp:216:7
	movq	136(%rbx), %rsi
	cmpq	$0, %rsi
.Ltmp64:
	.loc	2 216 7 is_stmt 0       # /home/chris/test-suite/MultiSource/Benchmarks/Bullet/btConvexConvexAlgorithm.cpp:216:7
	je	.LBB7_4
.Ltmp65:
# %bb.2:
	#DEBUG_VALUE: ~btConvexConvexAlgorithm:this <- $rbx
	.loc	2 217 4 is_stmt 1       # /home/chris/test-suite/MultiSource/Benchmarks/Bullet/btConvexConvexAlgorithm.cpp:217:4
	movq	8(%rbx), %rdi
	.loc	2 217 18 is_stmt 0      # /home/chris/test-suite/MultiSource/Benchmarks/Bullet/btConvexConvexAlgorithm.cpp:217:18
	movq	(%rdi), %rax
	movq	32(%rax), %rax
.Ltmp57:
	callq	*%rax
.Ltmp66:
.Ltmp58:
	jmp	.LBB7_4
.Ltmp67:
.LBB7_3:
	#DEBUG_VALUE: ~btConvexConvexAlgorithm:this <- $rbx
.Ltmp59:
                                        # kill: killed $rdx
	.loc	2 0 18                  # /home/chris/test-suite/MultiSource/Benchmarks/Bullet/btConvexConvexAlgorithm.cpp:0:18
	movq	%rax, %r14
	.loc	2 219 1 is_stmt 1       # /home/chris/test-suite/MultiSource/Benchmarks/Bullet/btConvexConvexAlgorithm.cpp:219:1
	movq	%rbx, %rdi
	callq	_ZN30btActivatingCollisionAlgorithmD2Ev
.Ltmp68:
	movq	%r14, %rdi
	callq	__clang_call_terminate
.Ltmp69:
.LBB7_4:
	#DEBUG_VALUE: ~btConvexConvexAlgorithm:this <- $rbx
	movq	%rbx, %rdi
	callq	_ZN30btActivatingCollisionAlgorithmD2Ev
.Ltmp70:
	.loc	2 219 1 is_stmt 0       # /home/chris/test-suite/MultiSource/Benchmarks/Bullet/btConvexConvexAlgorithm.cpp:219:1
	addq	$8, %rsp
	.cfi_def_cfa_offset 24
	popq	%rbx
.Ltmp71:
	.cfi_def_cfa_offset 16
	popq	%r14
	.cfi_def_cfa_offset 8
	retq
.Ltmp72:
.Lfunc_end7:
	.size	_ZN23btConvexConvexAlgorithmD2Ev, .Lfunc_end7-_ZN23btConvexConvexAlgorithmD2Ev
	.cfi_endproc
	.section	.gcc_except_table,"a",@progbits
	.p2align	2
GCC_except_table7:
.Lexception1:
	.byte	255                     # @LPStart Encoding = omit
	.byte	3                       # @TType Encoding = udata4
	.uleb128 .Lttbase0-.Lttbaseref0
.Lttbaseref0:
	.byte	1                       # Call site Encoding = uleb128
	.uleb128 .Lcst_end1-.Lcst_begin1
.Lcst_begin1:
	.uleb128 .Ltmp57-.Lfunc_begin7  # >> Call Site 1 <<
	.uleb128 .Ltmp58-.Ltmp57        #   Call between .Ltmp57 and .Ltmp58
	.uleb128 .Ltmp59-.Lfunc_begin7  #     jumps to .Ltmp59
	.byte	1                       #   On action: 1
.Lcst_end1:
	.byte	1                       # >> Action Record 1 <<
                                        #   Catch TypeInfo 1
	.byte	0                       #   No further actions
	.p2align	2
                                        # >> Catch TypeInfos <<
	.long	0                       # TypeInfo 1
.Lttbase0:
	.p2align	2
                                        # -- End function
	.section	.text.__clang_call_terminate,"axG",@progbits,__clang_call_terminate,comdat
	.hidden	__clang_call_terminate  # -- Begin function __clang_call_terminate
	.weak	__clang_call_terminate
	.p2align	4, 0x90
	.type	__clang_call_terminate,@function
__clang_call_terminate:                 # @__clang_call_terminate
.Lfunc_begin8:
	.cfi_startproc
# %bb.0:
	pushq	%rax
	.cfi_def_cfa_offset 16
	callq	__cxa_begin_catch
	callq	_ZSt9terminatev
.Lfunc_end8:
	.size	__clang_call_terminate, .Lfunc_end8-__clang_call_terminate
	.cfi_endproc
                                        # -- End function
	.text
	.globl	_ZN23btConvexConvexAlgorithmD0Ev # -- Begin function _ZN23btConvexConvexAlgorithmD0Ev
	.p2align	4, 0x90
	.type	_ZN23btConvexConvexAlgorithmD0Ev,@function
_ZN23btConvexConvexAlgorithmD0Ev:       # @_ZN23btConvexConvexAlgorithmD0Ev
.Lfunc_begin9:
	.loc	2 213 0 is_stmt 1       # /home/chris/test-suite/MultiSource/Benchmarks/Bullet/btConvexConvexAlgorithm.cpp:213:0
	.cfi_startproc
# %bb.0:
	pushq	%rbx
	.cfi_def_cfa_offset 16
	.cfi_offset %rbx, -16
	movq	%rdi, %rbx
.Ltmp73:
	#DEBUG_VALUE: ~btConvexConvexAlgorithm:this <- $rbx
	.loc	2 213 1 prologue_end    # /home/chris/test-suite/MultiSource/Benchmarks/Bullet/btConvexConvexAlgorithm.cpp:213:1
	movq	%rbx, %rdi
	callq	_ZN23btConvexConvexAlgorithmD2Ev
.Ltmp74:
	movq	%rbx, %rdi
	callq	_ZdlPv
.Ltmp75:
	.loc	2 219 1                 # /home/chris/test-suite/MultiSource/Benchmarks/Bullet/btConvexConvexAlgorithm.cpp:219:1
	popq	%rbx
.Ltmp76:
	.cfi_def_cfa_offset 8
	retq
.Ltmp77:
.Lfunc_end9:
	.size	_ZN23btConvexConvexAlgorithmD0Ev, .Lfunc_end9-_ZN23btConvexConvexAlgorithmD0Ev
	.cfi_endproc
                                        # -- End function
	.globl	_ZN23btConvexConvexAlgorithm19setLowLevelOfDetailEb # -- Begin function _ZN23btConvexConvexAlgorithm19setLowLevelOfDetailEb
	.p2align	4, 0x90
	.type	_ZN23btConvexConvexAlgorithm19setLowLevelOfDetailEb,@function
_ZN23btConvexConvexAlgorithm19setLowLevelOfDetailEb: # @_ZN23btConvexConvexAlgorithm19setLowLevelOfDetailEb
.Lfunc_begin10:
	.loc	2 222 0                 # /home/chris/test-suite/MultiSource/Benchmarks/Bullet/btConvexConvexAlgorithm.cpp:222:0
	.cfi_startproc
# %bb.0:
	#DEBUG_VALUE: setLowLevelOfDetail:this <- $rdi
	andb	$1, %sil
.Ltmp78:
	#DEBUG_VALUE: setLowLevelOfDetail:useLowLevel <- $sil
	.loc	2 223 21 prologue_end   # /home/chris/test-suite/MultiSource/Benchmarks/Bullet/btConvexConvexAlgorithm.cpp:223:21
	movb	%sil, 144(%rdi)
	.loc	2 224 1                 # /home/chris/test-suite/MultiSource/Benchmarks/Bullet/btConvexConvexAlgorithm.cpp:224:1
	retq
.Ltmp79:
.Lfunc_end10:
	.size	_ZN23btConvexConvexAlgorithm19setLowLevelOfDetailEb, .Lfunc_end10-_ZN23btConvexConvexAlgorithm19setLowLevelOfDetailEb
	.cfi_endproc
                                        # -- End function
	.section	.rodata.cst4,"aM",@progbits,4
	.p2align	2               # -- Begin function _ZN23btConvexConvexAlgorithm16processCollisionEP17btCollisionObjectS1_RK16btDispatcherInfoP16btManifoldResult
.LCPI11_0:
	.long	1566444395              # float 9.99999984E+17
.LCPI11_1:
	.long	872415232               # float 1.1920929E-7
.LCPI11_2:
	.long	1053364187              # float 0.392699093
.LCPI11_3:
	.long	1086918619              # float 6.28318548
	.text
	.globl	_ZN23btConvexConvexAlgorithm16processCollisionEP17btCollisionObjectS1_RK16btDispatcherInfoP16btManifoldResult
	.p2align	4, 0x90
	.type	_ZN23btConvexConvexAlgorithm16processCollisionEP17btCollisionObjectS1_RK16btDispatcherInfoP16btManifoldResult,@function
_ZN23btConvexConvexAlgorithm16processCollisionEP17btCollisionObjectS1_RK16btDispatcherInfoP16btManifoldResult: # @_ZN23btConvexConvexAlgorithm16processCollisionEP17btCollisionObjectS1_RK16btDispatcherInfoP16btManifoldResult
.Lfunc_begin11:
	.loc	2 290 0                 # /home/chris/test-suite/MultiSource/Benchmarks/Bullet/btConvexConvexAlgorithm.cpp:290:0
	.cfi_startproc
	.cfi_personality 3, __gxx_personality_v0
	.cfi_lsda 3, .Lexception2
# %bb.0:
	pushq	%rbp
	.cfi_def_cfa_offset 16
	pushq	%r15
	.cfi_def_cfa_offset 24
	pushq	%r14
	.cfi_def_cfa_offset 32
	pushq	%r13
	.cfi_def_cfa_offset 40
	pushq	%r12
	.cfi_def_cfa_offset 48
	pushq	%rbx
	.cfi_def_cfa_offset 56
	subq	$1208, %rsp             # imm = 0x4B8
	.cfi_def_cfa_offset 1264
	.cfi_offset %rbx, -56
	.cfi_offset %r12, -48
	.cfi_offset %r13, -40
	.cfi_offset %r14, -32
	.cfi_offset %r15, -24
	.cfi_offset %rbp, -16
	movq	%r8, %r12
	movq	%rcx, 48(%rsp)          # 8-byte Spill
	movq	%rdx, %r15
	movq	%rsi, %rbp
.Ltmp152:
	#DEBUG_VALUE: processCollision:resultOut <- $r12
	#DEBUG_VALUE: processCollision:dispatchInfo <- [DW_OP_plus_uconst 48] [$rsp+0]
	#DEBUG_VALUE: processCollision:body1 <- $r15
	#DEBUG_VALUE: processCollision:body0 <- $rbp
	#DEBUG_VALUE: processCollision:this <- $rdi
	.loc	2 292 7 prologue_end    # /home/chris/test-suite/MultiSource/Benchmarks/Bullet/btConvexConvexAlgorithm.cpp:292:7
	movq	%rdi, %r13
	addq	$136, %r13
	movq	%rdi, 16(%rsp)          # 8-byte Spill
.Ltmp153:
	#DEBUG_VALUE: processCollision:this <- [DW_OP_plus_uconst 16] [$rsp+0]
	cmpq	$0, 136(%rdi)
.Ltmp154:
	.loc	2 292 6 is_stmt 0       # /home/chris/test-suite/MultiSource/Benchmarks/Bullet/btConvexConvexAlgorithm.cpp:292:6
	jne	.LBB11_2
.Ltmp155:
# %bb.1:
	#DEBUG_VALUE: processCollision:this <- [DW_OP_plus_uconst 16] [$rsp+0]
	#DEBUG_VALUE: processCollision:body0 <- $rbp
	#DEBUG_VALUE: processCollision:body1 <- $r15
	#DEBUG_VALUE: processCollision:dispatchInfo <- [DW_OP_plus_uconst 48] [$rsp+0]
	#DEBUG_VALUE: processCollision:resultOut <- $r12
	.loc	2 0 6                   # /home/chris/test-suite/MultiSource/Benchmarks/Bullet/btConvexConvexAlgorithm.cpp:0:6
	movq	16(%rsp), %rbx          # 8-byte Reload
.Ltmp156:
	.loc	2 295 19 is_stmt 1      # /home/chris/test-suite/MultiSource/Benchmarks/Bullet/btConvexConvexAlgorithm.cpp:295:19
	movq	8(%rbx), %rdi
	.loc	2 295 33 is_stmt 0      # /home/chris/test-suite/MultiSource/Benchmarks/Bullet/btConvexConvexAlgorithm.cpp:295:33
	movq	(%rdi), %rax
	movq	%rbp, %rsi
	movq	%r15, %rdx
	callq	*24(%rax)
.Ltmp157:
	.loc	2 295 17                # /home/chris/test-suite/MultiSource/Benchmarks/Bullet/btConvexConvexAlgorithm.cpp:295:17
	movq	%rax, (%r13)
	.loc	2 296 17 is_stmt 1      # /home/chris/test-suite/MultiSource/Benchmarks/Bullet/btConvexConvexAlgorithm.cpp:296:17
	movb	$1, 128(%rbx)
.Ltmp158:
.LBB11_2:
	#DEBUG_VALUE: processCollision:this <- [DW_OP_plus_uconst 16] [$rsp+0]
	#DEBUG_VALUE: processCollision:body0 <- $rbp
	#DEBUG_VALUE: processCollision:body1 <- $r15
	#DEBUG_VALUE: processCollision:dispatchInfo <- [DW_OP_plus_uconst 48] [$rsp+0]
	#DEBUG_VALUE: processCollision:resultOut <- $r12
	.loc	2 298 35                # /home/chris/test-suite/MultiSource/Benchmarks/Bullet/btConvexConvexAlgorithm.cpp:298:35
	movq	(%r13), %rsi
	.loc	2 298 13 is_stmt 0      # /home/chris/test-suite/MultiSource/Benchmarks/Bullet/btConvexConvexAlgorithm.cpp:298:13
	movq	%r12, %rdi
	callq	_ZN16btManifoldResult21setPersistentManifoldEP20btPersistentManifold
.Ltmp159:
	.loc	2 0 13                  # /home/chris/test-suite/MultiSource/Benchmarks/Bullet/btConvexConvexAlgorithm.cpp:0:13
	movq	%rbp, 24(%rsp)          # 8-byte Spill
.Ltmp160:
	#DEBUG_VALUE: processCollision:body0 <- [DW_OP_plus_uconst 24] [$rsp+0]
	.loc	2 304 59 is_stmt 1      # /home/chris/test-suite/MultiSource/Benchmarks/Bullet/btConvexConvexAlgorithm.cpp:304:59
	movq	%rbp, %rdi
	callq	_ZN17btCollisionObject17getCollisionShapeEv
.Ltmp161:
	movq	%rax, %r14
.Ltmp162:
	#DEBUG_VALUE: processCollision:min0 <- $r14
	.loc	2 305 59                # /home/chris/test-suite/MultiSource/Benchmarks/Bullet/btConvexConvexAlgorithm.cpp:305:59
	movq	%r15, %rdi
	callq	_ZN17btCollisionObject17getCollisionShapeEv
.Ltmp163:
	movq	%rax, %rbx
.Ltmp164:
	#DEBUG_VALUE: processCollision:min1 <- $rbx
	.loc	2 307 2                 # /home/chris/test-suite/MultiSource/Benchmarks/Bullet/btConvexConvexAlgorithm.cpp:307:2
	leaq	288(%rsp), %rdi
.Ltmp165:
	#DEBUG_VALUE: processCollision:normalOnB <- [DW_OP_deref] $rdi
	.loc	2 307 13 is_stmt 0      # /home/chris/test-suite/MultiSource/Benchmarks/Bullet/btConvexConvexAlgorithm.cpp:307:13
	callq	_ZN9btVector3C2Ev
.Ltmp166:
	.loc	2 308 3 is_stmt 1       # /home/chris/test-suite/MultiSource/Benchmarks/Bullet/btConvexConvexAlgorithm.cpp:308:3
	leaq	272(%rsp), %rdi
.Ltmp167:
	#DEBUG_VALUE: processCollision:pointOnBWorld <- [DW_OP_deref] $rdi
	.loc	2 308 14 is_stmt 0      # /home/chris/test-suite/MultiSource/Benchmarks/Bullet/btConvexConvexAlgorithm.cpp:308:14
	callq	_ZN9btVector3C2Ev
.Ltmp168:
	.loc	2 310 13 is_stmt 1      # /home/chris/test-suite/MultiSource/Benchmarks/Bullet/btConvexConvexAlgorithm.cpp:310:13
	movq	%r14, %rdi
	callq	_ZNK16btCollisionShape12getShapeTypeEv
.Ltmp169:
	.loc	2 310 28 is_stmt 0      # /home/chris/test-suite/MultiSource/Benchmarks/Bullet/btConvexConvexAlgorithm.cpp:310:28
	cmpl	$10, %eax
	.loc	2 310 56                # /home/chris/test-suite/MultiSource/Benchmarks/Bullet/btConvexConvexAlgorithm.cpp:310:56
	jne	.LBB11_7
.Ltmp170:
# %bb.3:
	#DEBUG_VALUE: processCollision:min1 <- $rbx
	#DEBUG_VALUE: processCollision:min0 <- $r14
	#DEBUG_VALUE: processCollision:body0 <- [DW_OP_plus_uconst 24] [$rsp+0]
	#DEBUG_VALUE: processCollision:this <- [DW_OP_plus_uconst 16] [$rsp+0]
	#DEBUG_VALUE: processCollision:body1 <- $r15
	#DEBUG_VALUE: processCollision:dispatchInfo <- [DW_OP_plus_uconst 48] [$rsp+0]
	#DEBUG_VALUE: processCollision:resultOut <- $r12
	.loc	2 310 66                # /home/chris/test-suite/MultiSource/Benchmarks/Bullet/btConvexConvexAlgorithm.cpp:310:66
	movq	%rbx, %rdi
	callq	_ZNK16btCollisionShape12getShapeTypeEv
.Ltmp171:
	.loc	2 310 81                # /home/chris/test-suite/MultiSource/Benchmarks/Bullet/btConvexConvexAlgorithm.cpp:310:81
	cmpl	$10, %eax
.Ltmp172:
	.loc	2 310 6                 # /home/chris/test-suite/MultiSource/Benchmarks/Bullet/btConvexConvexAlgorithm.cpp:310:6
	jne	.LBB11_7
.Ltmp173:
# %bb.4:
	#DEBUG_VALUE: processCollision:min1 <- $rbx
	#DEBUG_VALUE: processCollision:min0 <- $r14
	#DEBUG_VALUE: processCollision:body0 <- [DW_OP_plus_uconst 24] [$rsp+0]
	#DEBUG_VALUE: processCollision:this <- [DW_OP_plus_uconst 16] [$rsp+0]
	#DEBUG_VALUE: processCollision:body1 <- $r15
	#DEBUG_VALUE: processCollision:dispatchInfo <- [DW_OP_plus_uconst 48] [$rsp+0]
	#DEBUG_VALUE: processCollision:resultOut <- $r12
	#DEBUG_VALUE: capsuleA <- $r14
	#DEBUG_VALUE: capsuleB <- $rbx
	.loc	2 314 39 is_stmt 1      # /home/chris/test-suite/MultiSource/Benchmarks/Bullet/btConvexConvexAlgorithm.cpp:314:39
	movq	(%r14), %rax
	movq	%r14, %rdi
	callq	*56(%rax)
.Ltmp174:
	.loc	2 315 39                # /home/chris/test-suite/MultiSource/Benchmarks/Bullet/btConvexConvexAlgorithm.cpp:315:39
	movq	(%rbx), %rax
	movq	%rbx, %rdi
	callq	*56(%rax)
.Ltmp175:
	.loc	2 317 24                # /home/chris/test-suite/MultiSource/Benchmarks/Bullet/btConvexConvexAlgorithm.cpp:317:24
	movq	(%r13), %rdi
	.loc	2 317 39 is_stmt 0      # /home/chris/test-suite/MultiSource/Benchmarks/Bullet/btConvexConvexAlgorithm.cpp:317:39
	callq	_ZNK20btPersistentManifold27getContactBreakingThresholdEv
.Ltmp176:
	.loc	2 0 39                  # /home/chris/test-suite/MultiSource/Benchmarks/Bullet/btConvexConvexAlgorithm.cpp:0:39
	movss	%xmm0, 36(%rsp)         # 4-byte Spill
.Ltmp177:
	#DEBUG_VALUE: threshold <- [DW_OP_plus_uconst 36] [$rsp+0]
	.loc	2 319 77 is_stmt 1      # /home/chris/test-suite/MultiSource/Benchmarks/Bullet/btConvexConvexAlgorithm.cpp:319:77
	movq	%r14, %rdi
	callq	_ZNK14btCapsuleShape13getHalfHeightEv
.Ltmp178:
	.loc	2 0 77 is_stmt 0        # /home/chris/test-suite/MultiSource/Benchmarks/Bullet/btConvexConvexAlgorithm.cpp:0:77
	movss	%xmm0, 96(%rsp)         # 4-byte Spill
	.loc	2 319 103               # /home/chris/test-suite/MultiSource/Benchmarks/Bullet/btConvexConvexAlgorithm.cpp:319:103
	movq	%r14, %rdi
	callq	_ZNK14btCapsuleShape9getRadiusEv
.Ltmp179:
	.loc	2 0 103                 # /home/chris/test-suite/MultiSource/Benchmarks/Bullet/btConvexConvexAlgorithm.cpp:0:103
	movss	%xmm0, 92(%rsp)         # 4-byte Spill
	.loc	2 320 14 is_stmt 1      # /home/chris/test-suite/MultiSource/Benchmarks/Bullet/btConvexConvexAlgorithm.cpp:320:14
	movq	%rbx, %rdi
	callq	_ZNK14btCapsuleShape13getHalfHeightEv
.Ltmp180:
	.loc	2 0 14 is_stmt 0        # /home/chris/test-suite/MultiSource/Benchmarks/Bullet/btConvexConvexAlgorithm.cpp:0:14
	movss	%xmm0, 84(%rsp)         # 4-byte Spill
	.loc	2 320 40                # /home/chris/test-suite/MultiSource/Benchmarks/Bullet/btConvexConvexAlgorithm.cpp:320:40
	movq	%rbx, %rdi
	callq	_ZNK14btCapsuleShape9getRadiusEv
.Ltmp181:
	.loc	2 0 40                  # /home/chris/test-suite/MultiSource/Benchmarks/Bullet/btConvexConvexAlgorithm.cpp:0:40
	movss	%xmm0, 80(%rsp)         # 4-byte Spill
	.loc	2 320 62                # /home/chris/test-suite/MultiSource/Benchmarks/Bullet/btConvexConvexAlgorithm.cpp:320:62
	movq	%r14, %rdi
	callq	_ZNK14btCapsuleShape9getUpAxisEv
.Ltmp182:
	movl	%eax, %r14d
.Ltmp183:
	.loc	2 320 84                # /home/chris/test-suite/MultiSource/Benchmarks/Bullet/btConvexConvexAlgorithm.cpp:320:84
	movq	%rbx, %rdi
	callq	_ZNK14btCapsuleShape9getUpAxisEv
.Ltmp184:
	movl	%eax, %ebp
	movq	24(%rsp), %rdi          # 8-byte Reload
.Ltmp185:
	#DEBUG_VALUE: processCollision:body0 <- $rdi
	.loc	2 321 11 is_stmt 1      # /home/chris/test-suite/MultiSource/Benchmarks/Bullet/btConvexConvexAlgorithm.cpp:321:11
	callq	_ZN17btCollisionObject17getWorldTransformEv
.Ltmp186:
	movq	%rax, %rbx
.Ltmp187:
	.loc	2 321 38 is_stmt 0      # /home/chris/test-suite/MultiSource/Benchmarks/Bullet/btConvexConvexAlgorithm.cpp:321:38
	movq	%r15, %rdi
	callq	_ZN17btCollisionObject17getWorldTransformEv
.Ltmp188:
	.loc	2 319 19 is_stmt 1      # /home/chris/test-suite/MultiSource/Benchmarks/Bullet/btConvexConvexAlgorithm.cpp:319:19
	leaq	288(%rsp), %rdi
	leaq	272(%rsp), %rsi
	movss	96(%rsp), %xmm0         # 4-byte Reload
                                        # xmm0 = mem[0],zero,zero,zero
	movss	92(%rsp), %xmm1         # 4-byte Reload
                                        # xmm1 = mem[0],zero,zero,zero
	movss	84(%rsp), %xmm2         # 4-byte Reload
                                        # xmm2 = mem[0],zero,zero,zero
	movss	80(%rsp), %xmm3         # 4-byte Reload
                                        # xmm3 = mem[0],zero,zero,zero
	movl	%r14d, %edx
	movl	%ebp, %ecx
	movq	%rbx, %r8
	movq	%rax, %r9
	movss	36(%rsp), %xmm4         # 4-byte Reload
                                        # xmm4 = mem[0],zero,zero,zero
	callq	_ZL22capsuleCapsuleDistanceR9btVector3S0_ffffiiRK11btTransformS3_f
.Ltmp189:
	#DEBUG_VALUE: dist <- $xmm0
	.loc	2 0 19 is_stmt 0        # /home/chris/test-suite/MultiSource/Benchmarks/Bullet/btConvexConvexAlgorithm.cpp:0:19
	movss	36(%rsp), %xmm1         # 4-byte Reload
                                        # xmm1 = mem[0],zero,zero,zero
.Ltmp190:
	#DEBUG_VALUE: threshold <- $xmm1
	.loc	2 323 11 is_stmt 1      # /home/chris/test-suite/MultiSource/Benchmarks/Bullet/btConvexConvexAlgorithm.cpp:323:11
	ucomiss	%xmm0, %xmm1
.Ltmp191:
	.loc	2 323 7 is_stmt 0       # /home/chris/test-suite/MultiSource/Benchmarks/Bullet/btConvexConvexAlgorithm.cpp:323:7
	jbe	.LBB11_6
.Ltmp192:
# %bb.5:
	#DEBUG_VALUE: threshold <- $xmm1
	#DEBUG_VALUE: dist <- $xmm0
	#DEBUG_VALUE: processCollision:this <- [DW_OP_plus_uconst 16] [$rsp+0]
	#DEBUG_VALUE: processCollision:body1 <- $r15
	#DEBUG_VALUE: processCollision:dispatchInfo <- [DW_OP_plus_uconst 48] [$rsp+0]
	#DEBUG_VALUE: processCollision:resultOut <- $r12
	.loc	2 326 15 is_stmt 1      # /home/chris/test-suite/MultiSource/Benchmarks/Bullet/btConvexConvexAlgorithm.cpp:326:15
	movq	(%r12), %rax
	movq	%r12, %rdi
	leaq	288(%rsp), %rsi
	leaq	272(%rsp), %rdx
	callq	*32(%rax)
.Ltmp193:
.LBB11_6:
	#DEBUG_VALUE: processCollision:this <- [DW_OP_plus_uconst 16] [$rsp+0]
	#DEBUG_VALUE: processCollision:body1 <- $r15
	#DEBUG_VALUE: processCollision:dispatchInfo <- [DW_OP_plus_uconst 48] [$rsp+0]
	#DEBUG_VALUE: processCollision:resultOut <- $r12
	.loc	2 328 14                # /home/chris/test-suite/MultiSource/Benchmarks/Bullet/btConvexConvexAlgorithm.cpp:328:14
	movq	%r12, %rdi
	callq	_ZN16btManifoldResult20refreshContactPointsEv
.Ltmp194:
	.loc	2 0 14 is_stmt 0        # /home/chris/test-suite/MultiSource/Benchmarks/Bullet/btConvexConvexAlgorithm.cpp:0:14
	jmp	.LBB11_75
.Ltmp195:
.LBB11_7:
	#DEBUG_VALUE: processCollision:min1 <- $rbx
	#DEBUG_VALUE: processCollision:min0 <- $r14
	#DEBUG_VALUE: processCollision:body0 <- [DW_OP_plus_uconst 24] [$rsp+0]
	#DEBUG_VALUE: processCollision:this <- [DW_OP_plus_uconst 16] [$rsp+0]
	#DEBUG_VALUE: processCollision:body1 <- $r15
	#DEBUG_VALUE: processCollision:dispatchInfo <- [DW_OP_plus_uconst 48] [$rsp+0]
	#DEBUG_VALUE: processCollision:resultOut <- $r12
	movq	%r12, 56(%rsp)          # 8-byte Spill
.Ltmp196:
	#DEBUG_VALUE: processCollision:resultOut <- [DW_OP_plus_uconst 56] [$rsp+0]
	movq	16(%rsp), %rbp          # 8-byte Reload
	.loc	2 335 2 is_stmt 1       # /home/chris/test-suite/MultiSource/Benchmarks/Bullet/btConvexConvexAlgorithm.cpp:335:2
	addq	$16, %rbp
	movq	24(%rsp), %rdi          # 8-byte Reload
.Ltmp197:
	#DEBUG_VALUE: processCollision:body0 <- $rdi
	.loc	2 335 48 is_stmt 0      # /home/chris/test-suite/MultiSource/Benchmarks/Bullet/btConvexConvexAlgorithm.cpp:335:48
	callq	_ZN17btCollisionObject17getWorldTransformEv
.Ltmp198:
	.loc	2 0 48                  # /home/chris/test-suite/MultiSource/Benchmarks/Bullet/btConvexConvexAlgorithm.cpp:0:48
	movq	%r15, %rdi
	.loc	2 335 48                # /home/chris/test-suite/MultiSource/Benchmarks/Bullet/btConvexConvexAlgorithm.cpp:335:48
	movq	%rax, %r12
	movq	%rdi, %r15
.Ltmp199:
	.loc	2 335 75                # /home/chris/test-suite/MultiSource/Benchmarks/Bullet/btConvexConvexAlgorithm.cpp:335:75
	callq	_ZN17btCollisionObject17getWorldTransformEv
.Ltmp200:
	.loc	2 335 16                # /home/chris/test-suite/MultiSource/Benchmarks/Bullet/btConvexConvexAlgorithm.cpp:335:16
	movq	%rbp, %rdi
	movq	%r12, %rsi
	movq	%rax, %rdx
	callq	_ZN30btConvexSeparatingDistanceUtil24updateSeparatingDistanceERK11btTransformS2_
.Ltmp201:
	.loc	2 0 16                  # /home/chris/test-suite/MultiSource/Benchmarks/Bullet/btConvexConvexAlgorithm.cpp:0:16
	movq	48(%rsp), %rax          # 8-byte Reload
.Ltmp202:
	.loc	2 336 20 is_stmt 1      # /home/chris/test-suite/MultiSource/Benchmarks/Bullet/btConvexConvexAlgorithm.cpp:336:20
	movq	%rax, %r12
	addq	$40, %r12
	cmpb	$0, 40(%rax)
	.loc	2 336 56 is_stmt 0      # /home/chris/test-suite/MultiSource/Benchmarks/Bullet/btConvexConvexAlgorithm.cpp:336:56
	je	.LBB11_9
.Ltmp203:
# %bb.8:
	#DEBUG_VALUE: processCollision:resultOut <- [DW_OP_plus_uconst 56] [$rsp+0]
	#DEBUG_VALUE: processCollision:min1 <- $rbx
	#DEBUG_VALUE: processCollision:min0 <- $r14
	#DEBUG_VALUE: processCollision:this <- [DW_OP_plus_uconst 16] [$rsp+0]
	#DEBUG_VALUE: processCollision:dispatchInfo <- [DW_OP_plus_uconst 48] [$rsp+0]
	.loc	2 336 73                # /home/chris/test-suite/MultiSource/Benchmarks/Bullet/btConvexConvexAlgorithm.cpp:336:73
	movq	%rbp, %rdi
	callq	_ZN30btConvexSeparatingDistanceUtil33getConservativeSeparatingDistanceEv
.Ltmp204:
	.loc	2 336 108               # /home/chris/test-suite/MultiSource/Benchmarks/Bullet/btConvexConvexAlgorithm.cpp:336:108
	xorps	%xmm1, %xmm1
	ucomiss	%xmm0, %xmm1
.Ltmp205:
	.loc	2 336 6                 # /home/chris/test-suite/MultiSource/Benchmarks/Bullet/btConvexConvexAlgorithm.cpp:336:6
	jb	.LBB11_73
.Ltmp206:
.LBB11_9:
	#DEBUG_VALUE: processCollision:resultOut <- [DW_OP_plus_uconst 56] [$rsp+0]
	#DEBUG_VALUE: processCollision:min1 <- $rbx
	#DEBUG_VALUE: processCollision:min0 <- $r14
	#DEBUG_VALUE: processCollision:this <- [DW_OP_plus_uconst 16] [$rsp+0]
	#DEBUG_VALUE: processCollision:dispatchInfo <- [DW_OP_plus_uconst 48] [$rsp+0]
	.loc	2 342 2 is_stmt 1       # /home/chris/test-suite/MultiSource/Benchmarks/Bullet/btConvexConvexAlgorithm.cpp:342:2
	leaq	416(%rsp), %rdi
.Ltmp207:
	#DEBUG_VALUE: input <- [DW_OP_deref] $rdi
	.loc	2 342 39 is_stmt 0      # /home/chris/test-suite/MultiSource/Benchmarks/Bullet/btConvexConvexAlgorithm.cpp:342:39
	callq	_ZN36btDiscreteCollisionDetectorInterface17ClosestPointInputC2Ev
.Ltmp208:
	.loc	2 344 2 is_stmt 1       # /home/chris/test-suite/MultiSource/Benchmarks/Bullet/btConvexConvexAlgorithm.cpp:344:2
	leaq	320(%rsp), %rdi
.Ltmp209:
	#DEBUG_VALUE: gjkPairDetector <- [DW_OP_deref] $rdi
	.loc	2 0 2 is_stmt 0         # /home/chris/test-suite/MultiSource/Benchmarks/Bullet/btConvexConvexAlgorithm.cpp:0:2
	movq	16(%rsp), %rax          # 8-byte Reload
	.loc	2 344 46                # /home/chris/test-suite/MultiSource/Benchmarks/Bullet/btConvexConvexAlgorithm.cpp:344:46
	movq	112(%rax), %rcx
	.loc	2 344 62                # /home/chris/test-suite/MultiSource/Benchmarks/Bullet/btConvexConvexAlgorithm.cpp:344:62
	movq	120(%rax), %r8
	.loc	2 344 20                # /home/chris/test-suite/MultiSource/Benchmarks/Bullet/btConvexConvexAlgorithm.cpp:344:20
	movq	%r14, %rsi
	movq	%rbx, %rdx
	callq	_ZN17btGjkPairDetectorC1EPK13btConvexShapeS2_P22btVoronoiSimplexSolverP30btConvexPenetrationDepthSolver
.Ltmp210:
	.loc	2 346 18 is_stmt 1      # /home/chris/test-suite/MultiSource/Benchmarks/Bullet/btConvexConvexAlgorithm.cpp:346:18
	leaq	320(%rsp), %rdi
	movq	%r14, %rsi
	callq	_ZN17btGjkPairDetector13setMinkowskiAEP13btConvexShape
.Ltmp211:
	.loc	2 347 18                # /home/chris/test-suite/MultiSource/Benchmarks/Bullet/btConvexConvexAlgorithm.cpp:347:18
	leaq	320(%rsp), %rdi
	movq	%rbx, %rsi
	callq	_ZN17btGjkPairDetector13setMinkowskiBEP13btConvexShape
.Ltmp212:
	.loc	2 350 19                # /home/chris/test-suite/MultiSource/Benchmarks/Bullet/btConvexConvexAlgorithm.cpp:350:19
	cmpb	$0, (%r12)
.Ltmp213:
	.loc	2 350 6 is_stmt 0       # /home/chris/test-suite/MultiSource/Benchmarks/Bullet/btConvexConvexAlgorithm.cpp:350:6
	je	.LBB11_12
.Ltmp214:
# %bb.10:
	#DEBUG_VALUE: processCollision:resultOut <- [DW_OP_plus_uconst 56] [$rsp+0]
	#DEBUG_VALUE: processCollision:min1 <- $rbx
	#DEBUG_VALUE: processCollision:min0 <- $r14
	#DEBUG_VALUE: processCollision:this <- [DW_OP_plus_uconst 16] [$rsp+0]
	#DEBUG_VALUE: processCollision:dispatchInfo <- [DW_OP_plus_uconst 48] [$rsp+0]
	.loc	2 0 6                   # /home/chris/test-suite/MultiSource/Benchmarks/Bullet/btConvexConvexAlgorithm.cpp:0:6
	movss	.LCPI11_0(%rip), %xmm0  # xmm0 = mem[0],zero,zero,zero
.Ltmp215:
	.loc	2 352 34 is_stmt 1      # /home/chris/test-suite/MultiSource/Benchmarks/Bullet/btConvexConvexAlgorithm.cpp:352:34
	movss	%xmm0, 544(%rsp)
	.loc	2 353 2                 # /home/chris/test-suite/MultiSource/Benchmarks/Bullet/btConvexConvexAlgorithm.cpp:353:2
	jmp	.LBB11_16
.Ltmp216:
.LBB11_11:
	#DEBUG_VALUE: processCollision:min1 <- $rbx
	#DEBUG_VALUE: processCollision:min0 <- $r14
	#DEBUG_VALUE: processCollision:this <- [DW_OP_plus_uconst 16] [$rsp+0]
	#DEBUG_VALUE: processCollision:dispatchInfo <- [DW_OP_plus_uconst 48] [$rsp+0]
.Ltmp92:
                                        # kill: killed $rdx
	.loc	2 0 2 is_stmt 0         # /home/chris/test-suite/MultiSource/Benchmarks/Bullet/btConvexConvexAlgorithm.cpp:0:2
	movq	%rax, %rbx
.Ltmp217:
	.loc	2 466 1 is_stmt 1       # /home/chris/test-suite/MultiSource/Benchmarks/Bullet/btConvexConvexAlgorithm.cpp:466:1
	jmp	.LBB11_72
.Ltmp218:
.LBB11_12:
	#DEBUG_VALUE: processCollision:resultOut <- [DW_OP_plus_uconst 56] [$rsp+0]
	#DEBUG_VALUE: processCollision:min1 <- $rbx
	#DEBUG_VALUE: processCollision:min0 <- $r14
	#DEBUG_VALUE: processCollision:this <- [DW_OP_plus_uconst 16] [$rsp+0]
	#DEBUG_VALUE: processCollision:dispatchInfo <- [DW_OP_plus_uconst 48] [$rsp+0]
	.loc	2 356 42                # /home/chris/test-suite/MultiSource/Benchmarks/Bullet/btConvexConvexAlgorithm.cpp:356:42
	movq	(%r14), %rax
	movq	88(%rax), %rax
.Ltmp80:
	movq	%r14, %rdi
	callq	*%rax
.Ltmp219:
	.loc	2 0 42 is_stmt 0        # /home/chris/test-suite/MultiSource/Benchmarks/Bullet/btConvexConvexAlgorithm.cpp:0:42
	movss	%xmm0, 88(%rsp)         # 4-byte Spill
.Ltmp81:
	.loc	2 356 42                # /home/chris/test-suite/MultiSource/Benchmarks/Bullet/btConvexConvexAlgorithm.cpp:356:42
	jmp	.LBB11_13
.Ltmp220:
.LBB11_13:
	#DEBUG_VALUE: processCollision:resultOut <- [DW_OP_plus_uconst 56] [$rsp+0]
	#DEBUG_VALUE: processCollision:min1 <- $rbx
	#DEBUG_VALUE: processCollision:min0 <- $r14
	#DEBUG_VALUE: processCollision:this <- [DW_OP_plus_uconst 16] [$rsp+0]
	#DEBUG_VALUE: processCollision:dispatchInfo <- [DW_OP_plus_uconst 48] [$rsp+0]
	.loc	2 356 62                # /home/chris/test-suite/MultiSource/Benchmarks/Bullet/btConvexConvexAlgorithm.cpp:356:62
	movq	(%rbx), %rax
	movq	88(%rax), %rax
.Ltmp82:
	movq	%rbx, %rdi
	callq	*%rax
.Ltmp221:
.Ltmp83:
	jmp	.LBB11_14
.Ltmp222:
.LBB11_14:
	#DEBUG_VALUE: processCollision:resultOut <- [DW_OP_plus_uconst 56] [$rsp+0]
	#DEBUG_VALUE: processCollision:min1 <- $rbx
	#DEBUG_VALUE: processCollision:min0 <- $r14
	#DEBUG_VALUE: processCollision:this <- [DW_OP_plus_uconst 16] [$rsp+0]
	#DEBUG_VALUE: processCollision:dispatchInfo <- [DW_OP_plus_uconst 48] [$rsp+0]
	.loc	2 356 76                # /home/chris/test-suite/MultiSource/Benchmarks/Bullet/btConvexConvexAlgorithm.cpp:356:76
	movq	(%r13), %rdi
.Ltmp84:
	movss	%xmm0, 68(%rsp)         # 4-byte Spill
	.loc	2 356 91                # /home/chris/test-suite/MultiSource/Benchmarks/Bullet/btConvexConvexAlgorithm.cpp:356:91
	callq	_ZNK20btPersistentManifold27getContactBreakingThresholdEv
.Ltmp223:
	.loc	2 0 91                  # /home/chris/test-suite/MultiSource/Benchmarks/Bullet/btConvexConvexAlgorithm.cpp:0:91
	movss	68(%rsp), %xmm2         # 4-byte Reload
                                        # xmm2 = mem[0],zero,zero,zero
.Ltmp85:
	.loc	2 356 91                # /home/chris/test-suite/MultiSource/Benchmarks/Bullet/btConvexConvexAlgorithm.cpp:356:91
	jmp	.LBB11_15
.Ltmp224:
.LBB11_15:
	#DEBUG_VALUE: processCollision:resultOut <- [DW_OP_plus_uconst 56] [$rsp+0]
	#DEBUG_VALUE: processCollision:min1 <- $rbx
	#DEBUG_VALUE: processCollision:min0 <- $r14
	#DEBUG_VALUE: processCollision:this <- [DW_OP_plus_uconst 16] [$rsp+0]
	#DEBUG_VALUE: processCollision:dispatchInfo <- [DW_OP_plus_uconst 48] [$rsp+0]
	.loc	2 0 91                  # /home/chris/test-suite/MultiSource/Benchmarks/Bullet/btConvexConvexAlgorithm.cpp:0:91
	movss	88(%rsp), %xmm1         # 4-byte Reload
                                        # xmm1 = mem[0],zero,zero,zero
	.loc	2 356 54                # /home/chris/test-suite/MultiSource/Benchmarks/Bullet/btConvexConvexAlgorithm.cpp:356:54
	addss	%xmm2, %xmm1
	.loc	2 356 74                # /home/chris/test-suite/MultiSource/Benchmarks/Bullet/btConvexConvexAlgorithm.cpp:356:74
	addss	%xmm0, %xmm1
	.loc	2 357 33 is_stmt 1      # /home/chris/test-suite/MultiSource/Benchmarks/Bullet/btConvexConvexAlgorithm.cpp:357:33
	mulss	%xmm1, %xmm1
	movss	%xmm1, 544(%rsp)
.Ltmp225:
.LBB11_16:
	#DEBUG_VALUE: processCollision:resultOut <- [DW_OP_plus_uconst 56] [$rsp+0]
	#DEBUG_VALUE: processCollision:min1 <- $rbx
	#DEBUG_VALUE: processCollision:min0 <- $r14
	#DEBUG_VALUE: processCollision:this <- [DW_OP_plus_uconst 16] [$rsp+0]
	#DEBUG_VALUE: processCollision:dispatchInfo <- [DW_OP_plus_uconst 48] [$rsp+0]
	.loc	2 0 33 is_stmt 0        # /home/chris/test-suite/MultiSource/Benchmarks/Bullet/btConvexConvexAlgorithm.cpp:0:33
	movq	48(%rsp), %rax          # 8-byte Reload
	.loc	2 360 36 is_stmt 1      # /home/chris/test-suite/MultiSource/Benchmarks/Bullet/btConvexConvexAlgorithm.cpp:360:36
	movq	48(%rax), %rax
	.loc	2 360 21 is_stmt 0      # /home/chris/test-suite/MultiSource/Benchmarks/Bullet/btConvexConvexAlgorithm.cpp:360:21
	movq	%rax, 552(%rsp)
	movq	24(%rsp), %rdi          # 8-byte Reload
	.loc	2 361 30 is_stmt 1      # /home/chris/test-suite/MultiSource/Benchmarks/Bullet/btConvexConvexAlgorithm.cpp:361:30
	callq	_ZN17btCollisionObject17getWorldTransformEv
.Ltmp226:
	.loc	2 0 30 is_stmt 0        # /home/chris/test-suite/MultiSource/Benchmarks/Bullet/btConvexConvexAlgorithm.cpp:0:30
	leaq	416(%rsp), %r13
.Ltmp86:
	.loc	2 361 21                # /home/chris/test-suite/MultiSource/Benchmarks/Bullet/btConvexConvexAlgorithm.cpp:361:21
	movq	%r13, %rdi
	movq	%rax, %rsi
	callq	_ZN11btTransformaSERKS_
.Ltmp227:
.Ltmp87:
	jmp	.LBB11_17
.Ltmp228:
.LBB11_17:
	#DEBUG_VALUE: processCollision:resultOut <- [DW_OP_plus_uconst 56] [$rsp+0]
	#DEBUG_VALUE: processCollision:min1 <- $rbx
	#DEBUG_VALUE: processCollision:min0 <- $r14
	#DEBUG_VALUE: processCollision:this <- [DW_OP_plus_uconst 16] [$rsp+0]
	#DEBUG_VALUE: processCollision:dispatchInfo <- [DW_OP_plus_uconst 48] [$rsp+0]
	.loc	2 362 30 is_stmt 1      # /home/chris/test-suite/MultiSource/Benchmarks/Bullet/btConvexConvexAlgorithm.cpp:362:30
	movq	%r15, %rdi
	callq	_ZN17btCollisionObject17getWorldTransformEv
.Ltmp229:
	.loc	2 362 8 is_stmt 0       # /home/chris/test-suite/MultiSource/Benchmarks/Bullet/btConvexConvexAlgorithm.cpp:362:8
	leaq	480(%rsp), %rdi
.Ltmp88:
	.loc	2 362 21                # /home/chris/test-suite/MultiSource/Benchmarks/Bullet/btConvexConvexAlgorithm.cpp:362:21
	movq	%rax, %rsi
	callq	_ZN11btTransformaSERKS_
.Ltmp230:
.Ltmp89:
	jmp	.LBB11_18
.Ltmp231:
.LBB11_18:
	#DEBUG_VALUE: processCollision:resultOut <- [DW_OP_plus_uconst 56] [$rsp+0]
	#DEBUG_VALUE: processCollision:min1 <- $rbx
	#DEBUG_VALUE: processCollision:min0 <- $r14
	#DEBUG_VALUE: processCollision:this <- [DW_OP_plus_uconst 16] [$rsp+0]
	#DEBUG_VALUE: processCollision:dispatchInfo <- [DW_OP_plus_uconst 48] [$rsp+0]
	.loc	2 0 21                  # /home/chris/test-suite/MultiSource/Benchmarks/Bullet/btConvexConvexAlgorithm.cpp:0:21
	movq	48(%rsp), %rcx          # 8-byte Reload
	.loc	2 364 65 is_stmt 1      # /home/chris/test-suite/MultiSource/Benchmarks/Bullet/btConvexConvexAlgorithm.cpp:364:65
	movq	%rcx, %rax
	addq	$24, %rax
	movq	%rax, 104(%rsp)         # 8-byte Spill
	movq	24(%rcx), %rcx
.Ltmp90:
	leaq	320(%rsp), %rdi
	leaq	416(%rsp), %rsi
	movq	56(%rsp), %rdx          # 8-byte Reload
.Ltmp232:
	#DEBUG_VALUE: processCollision:resultOut <- $rdx
	.loc	2 364 18 is_stmt 0      # /home/chris/test-suite/MultiSource/Benchmarks/Bullet/btConvexConvexAlgorithm.cpp:364:18
	xorl	%r8d, %r8d
	callq	_ZN17btGjkPairDetector16getClosestPointsERKN36btDiscreteCollisionDetectorInterface17ClosestPointInputERNS0_6ResultEP12btIDebugDrawb
.Ltmp233:
.Ltmp91:
	jmp	.LBB11_19
.Ltmp234:
.LBB11_19:
	#DEBUG_VALUE: processCollision:min1 <- $rbx
	#DEBUG_VALUE: processCollision:min0 <- $r14
	#DEBUG_VALUE: processCollision:this <- [DW_OP_plus_uconst 16] [$rsp+0]
	#DEBUG_VALUE: processCollision:dispatchInfo <- [DW_OP_plus_uconst 48] [$rsp+0]
	.loc	2 366 2 is_stmt 1       # /home/chris/test-suite/MultiSource/Benchmarks/Bullet/btConvexConvexAlgorithm.cpp:366:2
	leaq	256(%rsp), %rdi
.Ltmp235:
	#DEBUG_VALUE: v0 <- [DW_OP_deref] $rdi
	.loc	2 366 12 is_stmt 0      # /home/chris/test-suite/MultiSource/Benchmarks/Bullet/btConvexConvexAlgorithm.cpp:366:12
	callq	_ZN9btVector3C2Ev
.Ltmp236:
	.loc	2 366 2                 # /home/chris/test-suite/MultiSource/Benchmarks/Bullet/btConvexConvexAlgorithm.cpp:366:2
	leaq	304(%rsp), %rdi
.Ltmp237:
	#DEBUG_VALUE: v1 <- [DW_OP_deref] $rdi
	.loc	2 366 15                # /home/chris/test-suite/MultiSource/Benchmarks/Bullet/btConvexConvexAlgorithm.cpp:366:15
	callq	_ZN9btVector3C2Ev
.Ltmp238:
	.loc	2 367 2 is_stmt 1       # /home/chris/test-suite/MultiSource/Benchmarks/Bullet/btConvexConvexAlgorithm.cpp:367:2
	leaq	128(%rsp), %rdi
.Ltmp239:
	#DEBUG_VALUE: sepNormalWorldSpace <- [DW_OP_deref] $rdi
	.loc	2 367 12 is_stmt 0      # /home/chris/test-suite/MultiSource/Benchmarks/Bullet/btConvexConvexAlgorithm.cpp:367:12
	callq	_ZN9btVector3C2Ev
.Ltmp240:
	#DEBUG_VALUE: sepDist <- 0.000000e+00
	.loc	2 372 19 is_stmt 1      # /home/chris/test-suite/MultiSource/Benchmarks/Bullet/btConvexConvexAlgorithm.cpp:372:19
	cmpb	$0, (%r12)
.Ltmp241:
	.loc	2 372 6 is_stmt 0       # /home/chris/test-suite/MultiSource/Benchmarks/Bullet/btConvexConvexAlgorithm.cpp:372:6
	xorps	%xmm0, %xmm0
	je	.LBB11_25
.Ltmp242:
# %bb.20:
	#DEBUG_VALUE: sepDist <- 0.000000e+00
	#DEBUG_VALUE: processCollision:min1 <- $rbx
	#DEBUG_VALUE: processCollision:min0 <- $r14
	#DEBUG_VALUE: processCollision:this <- [DW_OP_plus_uconst 16] [$rsp+0]
	#DEBUG_VALUE: processCollision:dispatchInfo <- [DW_OP_plus_uconst 48] [$rsp+0]
	.loc	2 374 29 is_stmt 1      # /home/chris/test-suite/MultiSource/Benchmarks/Bullet/btConvexConvexAlgorithm.cpp:374:29
	leaq	320(%rsp), %rdi
	callq	_ZNK17btGjkPairDetector27getCachedSeparatingDistanceEv
.Ltmp243:
	.loc	2 0 29 is_stmt 0        # /home/chris/test-suite/MultiSource/Benchmarks/Bullet/btConvexConvexAlgorithm.cpp:0:29
	movss	.LCPI11_1(%rip), %xmm1  # xmm1 = mem[0],zero,zero,zero
.Ltmp244:
	#DEBUG_VALUE: sepDist <- $xmm0
	.loc	2 375 14 is_stmt 1      # /home/chris/test-suite/MultiSource/Benchmarks/Bullet/btConvexConvexAlgorithm.cpp:375:14
	ucomiss	%xmm1, %xmm0
.Ltmp245:
	.loc	2 375 7 is_stmt 0       # /home/chris/test-suite/MultiSource/Benchmarks/Bullet/btConvexConvexAlgorithm.cpp:375:7
	ja	.LBB11_21
.Ltmp246:
# %bb.76:
	#DEBUG_VALUE: sepDist <- $xmm0
	#DEBUG_VALUE: processCollision:min1 <- $rbx
	#DEBUG_VALUE: processCollision:min0 <- $r14
	#DEBUG_VALUE: processCollision:this <- [DW_OP_plus_uconst 16] [$rsp+0]
	#DEBUG_VALUE: processCollision:dispatchInfo <- [DW_OP_plus_uconst 48] [$rsp+0]
	.loc	2 0 7                   # /home/chris/test-suite/MultiSource/Benchmarks/Bullet/btConvexConvexAlgorithm.cpp:0:7
	jmp	.LBB11_25
.Ltmp247:
.LBB11_21:
	#DEBUG_VALUE: sepDist <- $xmm0
	#DEBUG_VALUE: processCollision:min1 <- $rbx
	#DEBUG_VALUE: processCollision:min0 <- $r14
	#DEBUG_VALUE: processCollision:this <- [DW_OP_plus_uconst 16] [$rsp+0]
	#DEBUG_VALUE: processCollision:dispatchInfo <- [DW_OP_plus_uconst 48] [$rsp+0]
	movss	%xmm0, 12(%rsp)         # 4-byte Spill
.Ltmp248:
	#DEBUG_VALUE: sepDist <- [DW_OP_plus_uconst 12] [$rsp+0]
	movq	48(%rsp), %rax          # 8-byte Reload
.Ltmp249:
	.loc	2 377 28 is_stmt 1      # /home/chris/test-suite/MultiSource/Benchmarks/Bullet/btConvexConvexAlgorithm.cpp:377:28
	movss	44(%rax), %xmm0         # xmm0 = mem[0],zero,zero,zero
.Ltmp250:
	#DEBUG_VALUE: sepDist <- undef
	.loc	2 0 28 is_stmt 0        # /home/chris/test-suite/MultiSource/Benchmarks/Bullet/btConvexConvexAlgorithm.cpp:0:28
	movss	%xmm0, 72(%rsp)         # 4-byte Spill
	leaq	320(%rsp), %rdi
	.loc	2 379 42 is_stmt 1      # /home/chris/test-suite/MultiSource/Benchmarks/Bullet/btConvexConvexAlgorithm.cpp:379:42
	callq	_ZNK17btGjkPairDetector23getCachedSeparatingAxisEv
.Ltmp251:
.Ltmp93:
	.loc	2 379 68 is_stmt 0      # /home/chris/test-suite/MultiSource/Benchmarks/Bullet/btConvexConvexAlgorithm.cpp:379:68
	movq	%rax, %rdi
	callq	_ZNK9btVector310normalizedEv
.Ltmp252:
.Ltmp94:
	jmp	.LBB11_22
.Ltmp253:
.LBB11_22:
	#DEBUG_VALUE: sepDist <- [DW_OP_plus_uconst 12] [$rsp+0]
	#DEBUG_VALUE: processCollision:min1 <- $rbx
	#DEBUG_VALUE: processCollision:min0 <- $r14
	#DEBUG_VALUE: processCollision:this <- [DW_OP_plus_uconst 16] [$rsp+0]
	#DEBUG_VALUE: processCollision:dispatchInfo <- [DW_OP_plus_uconst 48] [$rsp+0]
	.loc	2 0 68                  # /home/chris/test-suite/MultiSource/Benchmarks/Bullet/btConvexConvexAlgorithm.cpp:0:68
	movss	12(%rsp), %xmm2         # 4-byte Reload
                                        # xmm2 = mem[0],zero,zero,zero
.Ltmp254:
	#DEBUG_VALUE: sepDist <- $xmm2
	.loc	2 377 12 is_stmt 1      # /home/chris/test-suite/MultiSource/Benchmarks/Bullet/btConvexConvexAlgorithm.cpp:377:12
	addss	72(%rsp), %xmm2         # 4-byte Folded Reload
.Ltmp255:
	#DEBUG_VALUE: sepDist <- undef
	.loc	2 0 12 is_stmt 0        # /home/chris/test-suite/MultiSource/Benchmarks/Bullet/btConvexConvexAlgorithm.cpp:0:12
	movss	%xmm2, 12(%rsp)         # 4-byte Spill
.Ltmp256:
	#DEBUG_VALUE: sepDist <- [DW_OP_plus_uconst 12] [$rsp+0]
	.loc	2 379 24 is_stmt 1      # /home/chris/test-suite/MultiSource/Benchmarks/Bullet/btConvexConvexAlgorithm.cpp:379:24
	movlpd	%xmm0, 128(%rsp)
	movlpd	%xmm1, 136(%rsp)
.Ltmp96:
	leaq	128(%rsp), %rdi
	leaq	256(%rsp), %rsi
	leaq	304(%rsp), %rdx
	.loc	2 380 4                 # /home/chris/test-suite/MultiSource/Benchmarks/Bullet/btConvexConvexAlgorithm.cpp:380:4
	callq	_Z13btPlaneSpace1RK9btVector3RS_S2_
.Ltmp257:
	.loc	2 0 4 is_stmt 0         # /home/chris/test-suite/MultiSource/Benchmarks/Bullet/btConvexConvexAlgorithm.cpp:0:4
	movss	12(%rsp), %xmm0         # 4-byte Reload
                                        # xmm0 = mem[0],zero,zero,zero
.Ltmp258:
	#DEBUG_VALUE: sepDist <- $xmm0
.Ltmp97:
	.loc	2 380 4                 # /home/chris/test-suite/MultiSource/Benchmarks/Bullet/btConvexConvexAlgorithm.cpp:380:4
	jmp	.LBB11_25
.Ltmp259:
.LBB11_23:
	#DEBUG_VALUE: processCollision:this <- [DW_OP_plus_uconst 16] [$rsp+0]
	#DEBUG_VALUE: processCollision:dispatchInfo <- [DW_OP_plus_uconst 48] [$rsp+0]
.Ltmp113:
                                        # kill: killed $rdx
	.loc	2 0 4                   # /home/chris/test-suite/MultiSource/Benchmarks/Bullet/btConvexConvexAlgorithm.cpp:0:4
	movq	%rax, %rbx
	.loc	2 466 1 is_stmt 1       # /home/chris/test-suite/MultiSource/Benchmarks/Bullet/btConvexConvexAlgorithm.cpp:466:1
	jmp	.LBB11_71
.Ltmp260:
.LBB11_24:
	#DEBUG_VALUE: sepDist <- [DW_OP_plus_uconst 12] [$rsp+0]
	#DEBUG_VALUE: processCollision:min1 <- $rbx
	#DEBUG_VALUE: processCollision:min0 <- $r14
	#DEBUG_VALUE: processCollision:this <- [DW_OP_plus_uconst 16] [$rsp+0]
	#DEBUG_VALUE: processCollision:dispatchInfo <- [DW_OP_plus_uconst 48] [$rsp+0]
.Ltmp95:
                                        # kill: killed $rdx
	.loc	2 0 1 is_stmt 0         # /home/chris/test-suite/MultiSource/Benchmarks/Bullet/btConvexConvexAlgorithm.cpp:0:1
	movq	%rax, %rbx
.Ltmp261:
	.loc	2 379 4 is_stmt 1       # /home/chris/test-suite/MultiSource/Benchmarks/Bullet/btConvexConvexAlgorithm.cpp:379:4
	jmp	.LBB11_71
.Ltmp262:
.LBB11_25:
	#DEBUG_VALUE: processCollision:min1 <- $rbx
	#DEBUG_VALUE: processCollision:min0 <- $r14
	#DEBUG_VALUE: processCollision:this <- [DW_OP_plus_uconst 16] [$rsp+0]
	#DEBUG_VALUE: processCollision:dispatchInfo <- [DW_OP_plus_uconst 48] [$rsp+0]
	#DEBUG_VALUE: sepDist <- $xmm0
	.loc	2 0 4 is_stmt 0         # /home/chris/test-suite/MultiSource/Benchmarks/Bullet/btConvexConvexAlgorithm.cpp:0:4
	movss	%xmm0, 12(%rsp)         # 4-byte Spill
.Ltmp263:
	#DEBUG_VALUE: sepDist <- [DW_OP_plus_uconst 12] [$rsp+0]
	#DEBUG_VALUE: sepDist <- [DW_OP_plus_uconst 12] [$rsp+0]
	movq	56(%rsp), %rdi          # 8-byte Reload
.Ltmp264:
	.loc	2 388 17 is_stmt 1      # /home/chris/test-suite/MultiSource/Benchmarks/Bullet/btConvexConvexAlgorithm.cpp:388:17
	callq	_ZN16btManifoldResult21getPersistentManifoldEv
.Ltmp265:
	.loc	2 388 42 is_stmt 0      # /home/chris/test-suite/MultiSource/Benchmarks/Bullet/btConvexConvexAlgorithm.cpp:388:42
	movq	%rax, %rdi
	callq	_ZNK20btPersistentManifold14getNumContactsEv
.Ltmp266:
	.loc	2 0 42                  # /home/chris/test-suite/MultiSource/Benchmarks/Bullet/btConvexConvexAlgorithm.cpp:0:42
	movq	16(%rsp), %rcx          # 8-byte Reload
	.loc	2 388 59                # /home/chris/test-suite/MultiSource/Benchmarks/Bullet/btConvexConvexAlgorithm.cpp:388:59
	cmpl	152(%rcx), %eax
.Ltmp267:
	.loc	2 388 6                 # /home/chris/test-suite/MultiSource/Benchmarks/Bullet/btConvexConvexAlgorithm.cpp:388:6
	jge	.LBB11_68
.Ltmp268:
# %bb.26:
	#DEBUG_VALUE: sepDist <- [DW_OP_plus_uconst 12] [$rsp+0]
	#DEBUG_VALUE: processCollision:min1 <- $rbx
	#DEBUG_VALUE: processCollision:min0 <- $r14
	#DEBUG_VALUE: processCollision:this <- [DW_OP_plus_uconst 16] [$rsp+0]
	#DEBUG_VALUE: processCollision:dispatchInfo <- [DW_OP_plus_uconst 48] [$rsp+0]
	#DEBUG_VALUE: perturbeA <- 1
	#DEBUG_VALUE: angleLimit <- 3.926991e-01
	.loc	2 0 6                   # /home/chris/test-suite/MultiSource/Benchmarks/Bullet/btConvexConvexAlgorithm.cpp:0:6
	leaq	44(%rsp), %rax
.Ltmp269:
	.loc	2 396 28 is_stmt 1      # /home/chris/test-suite/MultiSource/Benchmarks/Bullet/btConvexConvexAlgorithm.cpp:396:28
	movq	(%r14), %rax
	movq	32(%rax), %rax
.Ltmp98:
	movq	%r14, %rdi
	callq	*%rax
.Ltmp270:
.Ltmp99:
	jmp	.LBB11_27
.Ltmp271:
.LBB11_27:
	#DEBUG_VALUE: angleLimit <- 3.926991e-01
	#DEBUG_VALUE: perturbeA <- 1
	#DEBUG_VALUE: sepDist <- [DW_OP_plus_uconst 12] [$rsp+0]
	#DEBUG_VALUE: processCollision:min1 <- $rbx
	#DEBUG_VALUE: processCollision:min0 <- $r14
	#DEBUG_VALUE: processCollision:this <- [DW_OP_plus_uconst 16] [$rsp+0]
	#DEBUG_VALUE: processCollision:dispatchInfo <- [DW_OP_plus_uconst 48] [$rsp+0]
	#DEBUG_VALUE: radiusA <- $xmm0
	.loc	2 0 28 is_stmt 0        # /home/chris/test-suite/MultiSource/Benchmarks/Bullet/btConvexConvexAlgorithm.cpp:0:28
	movss	%xmm0, 76(%rsp)         # 4-byte Spill
.Ltmp272:
	#DEBUG_VALUE: radiusA <- [DW_OP_plus_uconst 76] [$rsp+0]
	#DEBUG_VALUE: radiusA <- [DW_OP_plus_uconst 76] [$rsp+0]
	.loc	2 397 28 is_stmt 1      # /home/chris/test-suite/MultiSource/Benchmarks/Bullet/btConvexConvexAlgorithm.cpp:397:28
	movq	(%rbx), %rax
	movq	32(%rax), %rax
.Ltmp101:
	movq	%rbx, %rdi
	callq	*%rax
.Ltmp273:
.Ltmp102:
	jmp	.LBB11_28
.Ltmp274:
.LBB11_28:
	#DEBUG_VALUE: radiusA <- [DW_OP_plus_uconst 76] [$rsp+0]
	#DEBUG_VALUE: angleLimit <- 3.926991e-01
	#DEBUG_VALUE: perturbeA <- 1
	#DEBUG_VALUE: sepDist <- [DW_OP_plus_uconst 12] [$rsp+0]
	#DEBUG_VALUE: processCollision:min1 <- $rbx
	#DEBUG_VALUE: processCollision:min0 <- $r14
	#DEBUG_VALUE: processCollision:this <- [DW_OP_plus_uconst 16] [$rsp+0]
	#DEBUG_VALUE: processCollision:dispatchInfo <- [DW_OP_plus_uconst 48] [$rsp+0]
	#DEBUG_VALUE: radiusB <- $xmm0
	.loc	2 0 28 is_stmt 0        # /home/chris/test-suite/MultiSource/Benchmarks/Bullet/btConvexConvexAlgorithm.cpp:0:28
	movq	%r13, %r14
.Ltmp275:
	movss	76(%rsp), %xmm2         # 4-byte Reload
                                        # xmm2 = mem[0],zero,zero,zero
.Ltmp276:
	.loc	2 398 15 is_stmt 1      # /home/chris/test-suite/MultiSource/Benchmarks/Bullet/btConvexConvexAlgorithm.cpp:398:15
	ucomiss	%xmm2, %xmm0
	seta	%r13b
	.loc	2 0 0 is_stmt 0         # /home/chris/test-suite/MultiSource/Benchmarks/Bullet/btConvexConvexAlgorithm.cpp:0:0
	movss	gContactBreakingThreshold(%rip), %xmm1 # xmm1 = mem[0],zero,zero,zero
.Ltmp277:
	#DEBUG_VALUE: perturbeAngle <- undef
	minss	%xmm0, %xmm2
	negb	%r13b
	divss	%xmm2, %xmm1
.Ltmp278:
	#DEBUG_VALUE: perturbeAngle <- $xmm1
	movss	.LCPI11_2(%rip), %xmm0  # xmm0 = mem[0],zero,zero,zero
.Ltmp279:
	#DEBUG_VALUE: perturbeA <- undef
	.loc	2 407 8 is_stmt 1       # /home/chris/test-suite/MultiSource/Benchmarks/Bullet/btConvexConvexAlgorithm.cpp:407:8
	minss	%xmm1, %xmm0
	.loc	2 0 0 is_stmt 0         # /home/chris/test-suite/MultiSource/Benchmarks/Bullet/btConvexConvexAlgorithm.cpp:0:0
	movss	%xmm0, 44(%rsp)
	leaq	560(%rsp), %rdi
.Ltmp104:
	.loc	2 410 15 is_stmt 1      # /home/chris/test-suite/MultiSource/Benchmarks/Bullet/btConvexConvexAlgorithm.cpp:410:15
	callq	_ZN11btTransformC2Ev
.Ltmp280:
.Ltmp105:
	jmp	.LBB11_31
.Ltmp281:
.LBB11_29:
	#DEBUG_VALUE: angleLimit <- 3.926991e-01
	#DEBUG_VALUE: perturbeA <- 1
	#DEBUG_VALUE: sepDist <- [DW_OP_plus_uconst 12] [$rsp+0]
	#DEBUG_VALUE: processCollision:min1 <- $rbx
	#DEBUG_VALUE: processCollision:min0 <- $r14
	#DEBUG_VALUE: processCollision:this <- [DW_OP_plus_uconst 16] [$rsp+0]
	#DEBUG_VALUE: processCollision:dispatchInfo <- [DW_OP_plus_uconst 48] [$rsp+0]
.Ltmp100:
                                        # kill: killed $rdx
	.loc	2 0 15 is_stmt 0        # /home/chris/test-suite/MultiSource/Benchmarks/Bullet/btConvexConvexAlgorithm.cpp:0:15
	movq	%rax, %rbx
.Ltmp282:
	.loc	2 466 1 is_stmt 1       # /home/chris/test-suite/MultiSource/Benchmarks/Bullet/btConvexConvexAlgorithm.cpp:466:1
	jmp	.LBB11_67
.Ltmp283:
.LBB11_30:
	#DEBUG_VALUE: radiusA <- [DW_OP_plus_uconst 76] [$rsp+0]
	#DEBUG_VALUE: angleLimit <- 3.926991e-01
	#DEBUG_VALUE: perturbeA <- 1
	#DEBUG_VALUE: sepDist <- [DW_OP_plus_uconst 12] [$rsp+0]
	#DEBUG_VALUE: processCollision:min1 <- $rbx
	#DEBUG_VALUE: processCollision:min0 <- $r14
	#DEBUG_VALUE: processCollision:this <- [DW_OP_plus_uconst 16] [$rsp+0]
	#DEBUG_VALUE: processCollision:dispatchInfo <- [DW_OP_plus_uconst 48] [$rsp+0]
.Ltmp103:
                                        # kill: killed $rdx
	.loc	2 0 1 is_stmt 0         # /home/chris/test-suite/MultiSource/Benchmarks/Bullet/btConvexConvexAlgorithm.cpp:0:1
	movq	%rax, %rbx
.Ltmp284:
	.loc	2 466 1                 # /home/chris/test-suite/MultiSource/Benchmarks/Bullet/btConvexConvexAlgorithm.cpp:466:1
	jmp	.LBB11_67
.Ltmp285:
.LBB11_31:
	#DEBUG_VALUE: radiusA <- [DW_OP_plus_uconst 76] [$rsp+0]
	#DEBUG_VALUE: angleLimit <- 3.926991e-01
	#DEBUG_VALUE: perturbeA <- 1
	#DEBUG_VALUE: sepDist <- [DW_OP_plus_uconst 12] [$rsp+0]
	#DEBUG_VALUE: processCollision:min1 <- $rbx
	#DEBUG_VALUE: processCollision:this <- [DW_OP_plus_uconst 16] [$rsp+0]
	#DEBUG_VALUE: processCollision:dispatchInfo <- [DW_OP_plus_uconst 48] [$rsp+0]
	.loc	2 411 7 is_stmt 1       # /home/chris/test-suite/MultiSource/Benchmarks/Bullet/btConvexConvexAlgorithm.cpp:411:7
	testb	$1, %r13b
	jne	.LBB11_32
	jmp	.LBB11_34
.Ltmp286:
.LBB11_32:
	#DEBUG_VALUE: radiusA <- [DW_OP_plus_uconst 76] [$rsp+0]
	#DEBUG_VALUE: angleLimit <- 3.926991e-01
	#DEBUG_VALUE: perturbeA <- 1
	#DEBUG_VALUE: sepDist <- [DW_OP_plus_uconst 12] [$rsp+0]
	#DEBUG_VALUE: processCollision:min1 <- $rbx
	#DEBUG_VALUE: processCollision:this <- [DW_OP_plus_uconst 16] [$rsp+0]
	#DEBUG_VALUE: processCollision:dispatchInfo <- [DW_OP_plus_uconst 48] [$rsp+0]
.Ltmp108:
	.loc	2 0 7 is_stmt 0         # /home/chris/test-suite/MultiSource/Benchmarks/Bullet/btConvexConvexAlgorithm.cpp:0:7
	leaq	560(%rsp), %rdi
.Ltmp287:
	.loc	2 413 25 is_stmt 1      # /home/chris/test-suite/MultiSource/Benchmarks/Bullet/btConvexConvexAlgorithm.cpp:413:25
	movq	%r14, %rsi
	callq	_ZN11btTransformaSERKS_
.Ltmp288:
.Ltmp109:
	jmp	.LBB11_35
.Ltmp289:
.LBB11_33:
	#DEBUG_VALUE: radiusA <- [DW_OP_plus_uconst 76] [$rsp+0]
	#DEBUG_VALUE: angleLimit <- 3.926991e-01
	#DEBUG_VALUE: perturbeA <- 1
	#DEBUG_VALUE: sepDist <- [DW_OP_plus_uconst 12] [$rsp+0]
	#DEBUG_VALUE: processCollision:min1 <- $rbx
	#DEBUG_VALUE: processCollision:this <- [DW_OP_plus_uconst 16] [$rsp+0]
	#DEBUG_VALUE: processCollision:dispatchInfo <- [DW_OP_plus_uconst 48] [$rsp+0]
.Ltmp110:
                                        # kill: killed $rdx
	.loc	2 0 25 is_stmt 0        # /home/chris/test-suite/MultiSource/Benchmarks/Bullet/btConvexConvexAlgorithm.cpp:0:25
	movq	%rax, %rbx
.Ltmp290:
	.loc	2 466 1 is_stmt 1       # /home/chris/test-suite/MultiSource/Benchmarks/Bullet/btConvexConvexAlgorithm.cpp:466:1
	jmp	.LBB11_66
.Ltmp291:
.LBB11_34:
	#DEBUG_VALUE: radiusA <- [DW_OP_plus_uconst 76] [$rsp+0]
	#DEBUG_VALUE: angleLimit <- 3.926991e-01
	#DEBUG_VALUE: perturbeA <- 1
	#DEBUG_VALUE: sepDist <- [DW_OP_plus_uconst 12] [$rsp+0]
	#DEBUG_VALUE: processCollision:min1 <- $rbx
	#DEBUG_VALUE: processCollision:this <- [DW_OP_plus_uconst 16] [$rsp+0]
	#DEBUG_VALUE: processCollision:dispatchInfo <- [DW_OP_plus_uconst 48] [$rsp+0]
.Ltmp106:
	.loc	2 0 1 is_stmt 0         # /home/chris/test-suite/MultiSource/Benchmarks/Bullet/btConvexConvexAlgorithm.cpp:0:1
	leaq	560(%rsp), %rdi
.Ltmp292:
	.loc	2 416 25 is_stmt 1      # /home/chris/test-suite/MultiSource/Benchmarks/Bullet/btConvexConvexAlgorithm.cpp:416:25
	leaq	480(%rsp), %rsi
	callq	_ZN11btTransformaSERKS_
.Ltmp293:
.Ltmp107:
	jmp	.LBB11_35
.Ltmp294:
.LBB11_35:
	#DEBUG_VALUE: radiusA <- [DW_OP_plus_uconst 76] [$rsp+0]
	#DEBUG_VALUE: angleLimit <- 3.926991e-01
	#DEBUG_VALUE: perturbeA <- 1
	#DEBUG_VALUE: sepDist <- [DW_OP_plus_uconst 12] [$rsp+0]
	#DEBUG_VALUE: processCollision:min1 <- $rbx
	#DEBUG_VALUE: processCollision:this <- [DW_OP_plus_uconst 16] [$rsp+0]
	#DEBUG_VALUE: processCollision:dispatchInfo <- [DW_OP_plus_uconst 48] [$rsp+0]
	.loc	2 0 25 is_stmt 0        # /home/chris/test-suite/MultiSource/Benchmarks/Bullet/btConvexConvexAlgorithm.cpp:0:25
	xorl	%ecx, %ecx
.Ltmp295:
	#DEBUG_VALUE: i <- 0
	.loc	2 419 9 is_stmt 1       # /home/chris/test-suite/MultiSource/Benchmarks/Bullet/btConvexConvexAlgorithm.cpp:419:9
	jmp	.LBB11_36
.Ltmp296:
.LBB11_36:                              # =>This Inner Loop Header: Depth=1
	#DEBUG_VALUE: radiusA <- [DW_OP_plus_uconst 76] [$rsp+0]
	#DEBUG_VALUE: angleLimit <- 3.926991e-01
	#DEBUG_VALUE: perturbeA <- 1
	#DEBUG_VALUE: sepDist <- [DW_OP_plus_uconst 12] [$rsp+0]
	#DEBUG_VALUE: processCollision:this <- [DW_OP_plus_uconst 16] [$rsp+0]
	#DEBUG_VALUE: processCollision:dispatchInfo <- [DW_OP_plus_uconst 48] [$rsp+0]
	#DEBUG_VALUE: i <- $ecx
	.loc	2 0 9 is_stmt 0         # /home/chris/test-suite/MultiSource/Benchmarks/Bullet/btConvexConvexAlgorithm.cpp:0:9
	movq	16(%rsp), %rax          # 8-byte Reload
.Ltmp297:
	.loc	2 419 15                # /home/chris/test-suite/MultiSource/Benchmarks/Bullet/btConvexConvexAlgorithm.cpp:419:15
	movq	%rax, %rbx
	addq	$148, %rbx
	.loc	2 419 14                # /home/chris/test-suite/MultiSource/Benchmarks/Bullet/btConvexConvexAlgorithm.cpp:419:14
	cmpl	148(%rax), %ecx
.Ltmp298:
	.loc	2 419 3                 # /home/chris/test-suite/MultiSource/Benchmarks/Bullet/btConvexConvexAlgorithm.cpp:419:3
	jge	.LBB11_65
.Ltmp299:
# %bb.37:                               #   in Loop: Header=BB11_36 Depth=1
	#DEBUG_VALUE: i <- $ecx
	#DEBUG_VALUE: radiusA <- [DW_OP_plus_uconst 76] [$rsp+0]
	#DEBUG_VALUE: angleLimit <- 3.926991e-01
	#DEBUG_VALUE: perturbeA <- 1
	#DEBUG_VALUE: sepDist <- [DW_OP_plus_uconst 12] [$rsp+0]
	#DEBUG_VALUE: processCollision:this <- [DW_OP_plus_uconst 16] [$rsp+0]
	#DEBUG_VALUE: processCollision:dispatchInfo <- [DW_OP_plus_uconst 48] [$rsp+0]
	.loc	2 0 3                   # /home/chris/test-suite/MultiSource/Benchmarks/Bullet/btConvexConvexAlgorithm.cpp:0:3
	movl	%ecx, 40(%rsp)          # 4-byte Spill
.Ltmp300:
	#DEBUG_VALUE: i <- [DW_OP_plus_uconst 40] [$rsp+0]
	leaq	240(%rsp), %rdi
.Ltmp114:
	leaq	256(%rsp), %rsi
	leaq	44(%rsp), %rdx
.Ltmp301:
	.loc	2 421 17 is_stmt 1      # /home/chris/test-suite/MultiSource/Benchmarks/Bullet/btConvexConvexAlgorithm.cpp:421:17
	callq	_ZN12btQuaternionC2ERK9btVector3RKf
.Ltmp302:
.Ltmp115:
	jmp	.LBB11_38
.Ltmp303:
.LBB11_38:                              #   in Loop: Header=BB11_36 Depth=1
	#DEBUG_VALUE: i <- [DW_OP_plus_uconst 40] [$rsp+0]
	#DEBUG_VALUE: radiusA <- [DW_OP_plus_uconst 76] [$rsp+0]
	#DEBUG_VALUE: angleLimit <- 3.926991e-01
	#DEBUG_VALUE: perturbeA <- 1
	#DEBUG_VALUE: sepDist <- [DW_OP_plus_uconst 12] [$rsp+0]
	#DEBUG_VALUE: processCollision:this <- [DW_OP_plus_uconst 16] [$rsp+0]
	#DEBUG_VALUE: processCollision:dispatchInfo <- [DW_OP_plus_uconst 48] [$rsp+0]
	.loc	2 0 17 is_stmt 0        # /home/chris/test-suite/MultiSource/Benchmarks/Bullet/btConvexConvexAlgorithm.cpp:0:17
	leaq	100(%rsp), %rdx
	.loc	2 422 30 is_stmt 1      # /home/chris/test-suite/MultiSource/Benchmarks/Bullet/btConvexConvexAlgorithm.cpp:422:30
	cvtsi2ssl	40(%rsp), %xmm0 # 4-byte Folded Reload
	.loc	2 422 52 is_stmt 0      # /home/chris/test-suite/MultiSource/Benchmarks/Bullet/btConvexConvexAlgorithm.cpp:422:52
	cvtsi2ssl	(%rbx), %xmm1
	movss	.LCPI11_3(%rip), %xmm2  # xmm2 = mem[0],zero,zero,zero
	.loc	2 422 42                # /home/chris/test-suite/MultiSource/Benchmarks/Bullet/btConvexConvexAlgorithm.cpp:422:42
	divss	%xmm1, %xmm2
	.loc	2 422 31                # /home/chris/test-suite/MultiSource/Benchmarks/Bullet/btConvexConvexAlgorithm.cpp:422:31
	mulss	%xmm0, %xmm2
.Ltmp304:
	#DEBUG_VALUE: iterationAngle <- $xmm2
	.loc	2 422 13                # /home/chris/test-suite/MultiSource/Benchmarks/Bullet/btConvexConvexAlgorithm.cpp:422:13
	movss	%xmm2, 100(%rsp)
	leaq	112(%rsp), %rdi
.Ltmp117:
	leaq	128(%rsp), %rsi
	.loc	2 423 17 is_stmt 1      # /home/chris/test-suite/MultiSource/Benchmarks/Bullet/btConvexConvexAlgorithm.cpp:423:17
	callq	_ZN12btQuaternionC2ERK9btVector3RKf
.Ltmp305:
.Ltmp118:
	jmp	.LBB11_39
.Ltmp306:
.LBB11_39:                              #   in Loop: Header=BB11_36 Depth=1
	#DEBUG_VALUE: i <- [DW_OP_plus_uconst 40] [$rsp+0]
	#DEBUG_VALUE: radiusA <- [DW_OP_plus_uconst 76] [$rsp+0]
	#DEBUG_VALUE: angleLimit <- 3.926991e-01
	#DEBUG_VALUE: perturbeA <- 1
	#DEBUG_VALUE: sepDist <- [DW_OP_plus_uconst 12] [$rsp+0]
	#DEBUG_VALUE: processCollision:this <- [DW_OP_plus_uconst 16] [$rsp+0]
	#DEBUG_VALUE: processCollision:dispatchInfo <- [DW_OP_plus_uconst 48] [$rsp+0]
	.loc	2 426 8                 # /home/chris/test-suite/MultiSource/Benchmarks/Bullet/btConvexConvexAlgorithm.cpp:426:8
	testb	$1, %r13b
	jne	.LBB11_40
	jmp	.LBB11_49
.Ltmp307:
.LBB11_40:                              #   in Loop: Header=BB11_36 Depth=1
	#DEBUG_VALUE: i <- [DW_OP_plus_uconst 40] [$rsp+0]
	#DEBUG_VALUE: radiusA <- [DW_OP_plus_uconst 76] [$rsp+0]
	#DEBUG_VALUE: angleLimit <- 3.926991e-01
	#DEBUG_VALUE: perturbeA <- 1
	#DEBUG_VALUE: sepDist <- [DW_OP_plus_uconst 12] [$rsp+0]
	#DEBUG_VALUE: processCollision:this <- [DW_OP_plus_uconst 16] [$rsp+0]
	#DEBUG_VALUE: processCollision:dispatchInfo <- [DW_OP_plus_uconst 48] [$rsp+0]
.Ltmp132:
	.loc	2 0 8 is_stmt 0         # /home/chris/test-suite/MultiSource/Benchmarks/Bullet/btConvexConvexAlgorithm.cpp:0:8
	leaq	112(%rsp), %rdi
.Ltmp308:
	.loc	2 428 52 is_stmt 1      # /home/chris/test-suite/MultiSource/Benchmarks/Bullet/btConvexConvexAlgorithm.cpp:428:52
	callq	_ZNK12btQuaternion7inverseEv
.Ltmp309:
.Ltmp133:
	jmp	.LBB11_41
.Ltmp310:
.LBB11_41:                              #   in Loop: Header=BB11_36 Depth=1
	#DEBUG_VALUE: i <- [DW_OP_plus_uconst 40] [$rsp+0]
	#DEBUG_VALUE: radiusA <- [DW_OP_plus_uconst 76] [$rsp+0]
	#DEBUG_VALUE: angleLimit <- 3.926991e-01
	#DEBUG_VALUE: perturbeA <- 1
	#DEBUG_VALUE: sepDist <- [DW_OP_plus_uconst 12] [$rsp+0]
	#DEBUG_VALUE: processCollision:this <- [DW_OP_plus_uconst 16] [$rsp+0]
	#DEBUG_VALUE: processCollision:dispatchInfo <- [DW_OP_plus_uconst 48] [$rsp+0]
	movlpd	%xmm0, 192(%rsp)
	movlpd	%xmm1, 200(%rsp)
.Ltmp134:
	leaq	240(%rsp), %rsi
	.loc	2 428 61 is_stmt 0      # /home/chris/test-suite/MultiSource/Benchmarks/Bullet/btConvexConvexAlgorithm.cpp:428:61
	leaq	192(%rsp), %rdi
	callq	_ZmlRK12btQuaternionS1_
.Ltmp311:
.Ltmp135:
	jmp	.LBB11_42
.Ltmp312:
.LBB11_42:                              #   in Loop: Header=BB11_36 Depth=1
	#DEBUG_VALUE: i <- [DW_OP_plus_uconst 40] [$rsp+0]
	#DEBUG_VALUE: radiusA <- [DW_OP_plus_uconst 76] [$rsp+0]
	#DEBUG_VALUE: angleLimit <- 3.926991e-01
	#DEBUG_VALUE: perturbeA <- 1
	#DEBUG_VALUE: sepDist <- [DW_OP_plus_uconst 12] [$rsp+0]
	#DEBUG_VALUE: processCollision:this <- [DW_OP_plus_uconst 16] [$rsp+0]
	#DEBUG_VALUE: processCollision:dispatchInfo <- [DW_OP_plus_uconst 48] [$rsp+0]
	movlpd	%xmm0, 208(%rsp)
	movlpd	%xmm1, 216(%rsp)
.Ltmp136:
	leaq	112(%rsp), %rsi
	.loc	2 428 73                # /home/chris/test-suite/MultiSource/Benchmarks/Bullet/btConvexConvexAlgorithm.cpp:428:73
	leaq	208(%rsp), %rdi
	callq	_ZmlRK12btQuaternionS1_
.Ltmp313:
.Ltmp137:
	jmp	.LBB11_43
.Ltmp314:
.LBB11_43:                              #   in Loop: Header=BB11_36 Depth=1
	#DEBUG_VALUE: i <- [DW_OP_plus_uconst 40] [$rsp+0]
	#DEBUG_VALUE: radiusA <- [DW_OP_plus_uconst 76] [$rsp+0]
	#DEBUG_VALUE: angleLimit <- 3.926991e-01
	#DEBUG_VALUE: perturbeA <- 1
	#DEBUG_VALUE: sepDist <- [DW_OP_plus_uconst 12] [$rsp+0]
	#DEBUG_VALUE: processCollision:this <- [DW_OP_plus_uconst 16] [$rsp+0]
	#DEBUG_VALUE: processCollision:dispatchInfo <- [DW_OP_plus_uconst 48] [$rsp+0]
	movlpd	%xmm0, 224(%rsp)
	movlpd	%xmm1, 232(%rsp)
.Ltmp138:
	leaq	720(%rsp), %rdi
	.loc	2 428 35                # /home/chris/test-suite/MultiSource/Benchmarks/Bullet/btConvexConvexAlgorithm.cpp:428:35
	leaq	224(%rsp), %rsi
	callq	_ZN11btMatrix3x3C2ERK12btQuaternion
.Ltmp315:
.Ltmp139:
	jmp	.LBB11_44
.Ltmp316:
.LBB11_44:                              #   in Loop: Header=BB11_36 Depth=1
	#DEBUG_VALUE: i <- [DW_OP_plus_uconst 40] [$rsp+0]
	#DEBUG_VALUE: radiusA <- [DW_OP_plus_uconst 76] [$rsp+0]
	#DEBUG_VALUE: angleLimit <- 3.926991e-01
	#DEBUG_VALUE: perturbeA <- 1
	#DEBUG_VALUE: sepDist <- [DW_OP_plus_uconst 12] [$rsp+0]
	#DEBUG_VALUE: processCollision:this <- [DW_OP_plus_uconst 16] [$rsp+0]
	#DEBUG_VALUE: processCollision:dispatchInfo <- [DW_OP_plus_uconst 48] [$rsp+0]
	.loc	2 0 35                  # /home/chris/test-suite/MultiSource/Benchmarks/Bullet/btConvexConvexAlgorithm.cpp:0:35
	movq	24(%rsp), %rdi          # 8-byte Reload
	.loc	2 428 87                # /home/chris/test-suite/MultiSource/Benchmarks/Bullet/btConvexConvexAlgorithm.cpp:428:87
	callq	_ZN17btCollisionObject17getWorldTransformEv
.Ltmp317:
	.loc	2 428 107               # /home/chris/test-suite/MultiSource/Benchmarks/Bullet/btConvexConvexAlgorithm.cpp:428:107
	movq	%rax, %rdi
	callq	_ZN11btTransform8getBasisEv
.Ltmp318:
.Ltmp140:
	.loc	2 0 107                 # /home/chris/test-suite/MultiSource/Benchmarks/Bullet/btConvexConvexAlgorithm.cpp:0:107
	leaq	768(%rsp), %rdi
	leaq	720(%rsp), %rsi
	.loc	2 428 79                # /home/chris/test-suite/MultiSource/Benchmarks/Bullet/btConvexConvexAlgorithm.cpp:428:79
	movq	%rax, %rdx
	callq	_ZmlRK11btMatrix3x3S1_
.Ltmp319:
.Ltmp141:
	jmp	.LBB11_45
.Ltmp320:
.LBB11_45:                              #   in Loop: Header=BB11_36 Depth=1
	#DEBUG_VALUE: i <- [DW_OP_plus_uconst 40] [$rsp+0]
	#DEBUG_VALUE: radiusA <- [DW_OP_plus_uconst 76] [$rsp+0]
	#DEBUG_VALUE: angleLimit <- 3.926991e-01
	#DEBUG_VALUE: perturbeA <- 1
	#DEBUG_VALUE: sepDist <- [DW_OP_plus_uconst 12] [$rsp+0]
	#DEBUG_VALUE: processCollision:this <- [DW_OP_plus_uconst 16] [$rsp+0]
	#DEBUG_VALUE: processCollision:dispatchInfo <- [DW_OP_plus_uconst 48] [$rsp+0]
	.loc	2 0 79                  # /home/chris/test-suite/MultiSource/Benchmarks/Bullet/btConvexConvexAlgorithm.cpp:0:79
	leaq	768(%rsp), %rsi
	.loc	2 428 24                # /home/chris/test-suite/MultiSource/Benchmarks/Bullet/btConvexConvexAlgorithm.cpp:428:24
	movq	%r14, %rdi
	callq	_ZN11btTransform8setBasisERK11btMatrix3x3
.Ltmp321:
	.loc	2 429 33 is_stmt 1      # /home/chris/test-suite/MultiSource/Benchmarks/Bullet/btConvexConvexAlgorithm.cpp:429:33
	movq	%r15, %rdi
	callq	_ZN17btCollisionObject17getWorldTransformEv
.Ltmp322:
.Ltmp143:
	.loc	2 429 24 is_stmt 0      # /home/chris/test-suite/MultiSource/Benchmarks/Bullet/btConvexConvexAlgorithm.cpp:429:24
	leaq	480(%rsp), %rdi
	movq	%rax, %rsi
	callq	_ZN11btTransformaSERKS_
.Ltmp323:
.Ltmp144:
	jmp	.LBB11_57
.Ltmp324:
.LBB11_46:
	#DEBUG_VALUE: i <- [DW_OP_plus_uconst 40] [$rsp+0]
	#DEBUG_VALUE: radiusA <- [DW_OP_plus_uconst 76] [$rsp+0]
	#DEBUG_VALUE: angleLimit <- 3.926991e-01
	#DEBUG_VALUE: perturbeA <- 1
	#DEBUG_VALUE: sepDist <- [DW_OP_plus_uconst 12] [$rsp+0]
	#DEBUG_VALUE: processCollision:this <- [DW_OP_plus_uconst 16] [$rsp+0]
	#DEBUG_VALUE: processCollision:dispatchInfo <- [DW_OP_plus_uconst 48] [$rsp+0]
.Ltmp116:
                                        # kill: killed $rdx
	.loc	2 0 24                  # /home/chris/test-suite/MultiSource/Benchmarks/Bullet/btConvexConvexAlgorithm.cpp:0:24
	movq	%rax, %rbx
	.loc	2 466 1 is_stmt 1       # /home/chris/test-suite/MultiSource/Benchmarks/Bullet/btConvexConvexAlgorithm.cpp:466:1
	jmp	.LBB11_64
.Ltmp325:
.LBB11_47:
	#DEBUG_VALUE: i <- [DW_OP_plus_uconst 40] [$rsp+0]
	#DEBUG_VALUE: radiusA <- [DW_OP_plus_uconst 76] [$rsp+0]
	#DEBUG_VALUE: angleLimit <- 3.926991e-01
	#DEBUG_VALUE: perturbeA <- 1
	#DEBUG_VALUE: sepDist <- [DW_OP_plus_uconst 12] [$rsp+0]
	#DEBUG_VALUE: processCollision:this <- [DW_OP_plus_uconst 16] [$rsp+0]
	#DEBUG_VALUE: processCollision:dispatchInfo <- [DW_OP_plus_uconst 48] [$rsp+0]
.Ltmp145:
                                        # kill: killed $rdx
	.loc	2 0 1 is_stmt 0         # /home/chris/test-suite/MultiSource/Benchmarks/Bullet/btConvexConvexAlgorithm.cpp:0:1
	movq	%rax, %rbx
	.loc	2 466 1                 # /home/chris/test-suite/MultiSource/Benchmarks/Bullet/btConvexConvexAlgorithm.cpp:466:1
	jmp	.LBB11_63
.Ltmp326:
.LBB11_48:
	#DEBUG_VALUE: i <- [DW_OP_plus_uconst 40] [$rsp+0]
	#DEBUG_VALUE: radiusA <- [DW_OP_plus_uconst 76] [$rsp+0]
	#DEBUG_VALUE: angleLimit <- 3.926991e-01
	#DEBUG_VALUE: perturbeA <- 1
	#DEBUG_VALUE: sepDist <- [DW_OP_plus_uconst 12] [$rsp+0]
	#DEBUG_VALUE: processCollision:this <- [DW_OP_plus_uconst 16] [$rsp+0]
	#DEBUG_VALUE: processCollision:dispatchInfo <- [DW_OP_plus_uconst 48] [$rsp+0]
.Ltmp142:
                                        # kill: killed $rdx
	.loc	2 0 1                   # /home/chris/test-suite/MultiSource/Benchmarks/Bullet/btConvexConvexAlgorithm.cpp:0:1
	movq	%rax, %rbx
.Ltmp327:
	.loc	2 428 5 is_stmt 1       # /home/chris/test-suite/MultiSource/Benchmarks/Bullet/btConvexConvexAlgorithm.cpp:428:5
	jmp	.LBB11_63
.Ltmp328:
.LBB11_49:                              #   in Loop: Header=BB11_36 Depth=1
	#DEBUG_VALUE: i <- [DW_OP_plus_uconst 40] [$rsp+0]
	#DEBUG_VALUE: radiusA <- [DW_OP_plus_uconst 76] [$rsp+0]
	#DEBUG_VALUE: angleLimit <- 3.926991e-01
	#DEBUG_VALUE: perturbeA <- 1
	#DEBUG_VALUE: sepDist <- [DW_OP_plus_uconst 12] [$rsp+0]
	#DEBUG_VALUE: processCollision:this <- [DW_OP_plus_uconst 16] [$rsp+0]
	#DEBUG_VALUE: processCollision:dispatchInfo <- [DW_OP_plus_uconst 48] [$rsp+0]
	.loc	2 0 5 is_stmt 0         # /home/chris/test-suite/MultiSource/Benchmarks/Bullet/btConvexConvexAlgorithm.cpp:0:5
	movq	24(%rsp), %rdi          # 8-byte Reload
.Ltmp329:
	.loc	2 435 33 is_stmt 1      # /home/chris/test-suite/MultiSource/Benchmarks/Bullet/btConvexConvexAlgorithm.cpp:435:33
	callq	_ZN17btCollisionObject17getWorldTransformEv
.Ltmp330:
.Ltmp119:
	.loc	2 435 24 is_stmt 0      # /home/chris/test-suite/MultiSource/Benchmarks/Bullet/btConvexConvexAlgorithm.cpp:435:24
	movq	%r14, %rdi
	movq	%rax, %rsi
	callq	_ZN11btTransformaSERKS_
.Ltmp331:
.Ltmp120:
	jmp	.LBB11_50
.Ltmp332:
.LBB11_50:                              #   in Loop: Header=BB11_36 Depth=1
	#DEBUG_VALUE: i <- [DW_OP_plus_uconst 40] [$rsp+0]
	#DEBUG_VALUE: radiusA <- [DW_OP_plus_uconst 76] [$rsp+0]
	#DEBUG_VALUE: angleLimit <- 3.926991e-01
	#DEBUG_VALUE: perturbeA <- 1
	#DEBUG_VALUE: sepDist <- [DW_OP_plus_uconst 12] [$rsp+0]
	#DEBUG_VALUE: processCollision:this <- [DW_OP_plus_uconst 16] [$rsp+0]
	#DEBUG_VALUE: processCollision:dispatchInfo <- [DW_OP_plus_uconst 48] [$rsp+0]
.Ltmp121:
	.loc	2 0 24                  # /home/chris/test-suite/MultiSource/Benchmarks/Bullet/btConvexConvexAlgorithm.cpp:0:24
	leaq	112(%rsp), %rdi
	.loc	2 436 51 is_stmt 1      # /home/chris/test-suite/MultiSource/Benchmarks/Bullet/btConvexConvexAlgorithm.cpp:436:51
	callq	_ZNK12btQuaternion7inverseEv
.Ltmp333:
.Ltmp122:
	jmp	.LBB11_51
.Ltmp334:
.LBB11_51:                              #   in Loop: Header=BB11_36 Depth=1
	#DEBUG_VALUE: i <- [DW_OP_plus_uconst 40] [$rsp+0]
	#DEBUG_VALUE: radiusA <- [DW_OP_plus_uconst 76] [$rsp+0]
	#DEBUG_VALUE: angleLimit <- 3.926991e-01
	#DEBUG_VALUE: perturbeA <- 1
	#DEBUG_VALUE: sepDist <- [DW_OP_plus_uconst 12] [$rsp+0]
	#DEBUG_VALUE: processCollision:this <- [DW_OP_plus_uconst 16] [$rsp+0]
	#DEBUG_VALUE: processCollision:dispatchInfo <- [DW_OP_plus_uconst 48] [$rsp+0]
	movlpd	%xmm0, 144(%rsp)
	movlpd	%xmm1, 152(%rsp)
.Ltmp123:
	leaq	240(%rsp), %rsi
	.loc	2 436 60 is_stmt 0      # /home/chris/test-suite/MultiSource/Benchmarks/Bullet/btConvexConvexAlgorithm.cpp:436:60
	leaq	144(%rsp), %rdi
	callq	_ZmlRK12btQuaternionS1_
.Ltmp335:
.Ltmp124:
	jmp	.LBB11_52
.Ltmp336:
.LBB11_52:                              #   in Loop: Header=BB11_36 Depth=1
	#DEBUG_VALUE: i <- [DW_OP_plus_uconst 40] [$rsp+0]
	#DEBUG_VALUE: radiusA <- [DW_OP_plus_uconst 76] [$rsp+0]
	#DEBUG_VALUE: angleLimit <- 3.926991e-01
	#DEBUG_VALUE: perturbeA <- 1
	#DEBUG_VALUE: sepDist <- [DW_OP_plus_uconst 12] [$rsp+0]
	#DEBUG_VALUE: processCollision:this <- [DW_OP_plus_uconst 16] [$rsp+0]
	#DEBUG_VALUE: processCollision:dispatchInfo <- [DW_OP_plus_uconst 48] [$rsp+0]
	movlpd	%xmm0, 160(%rsp)
	movlpd	%xmm1, 168(%rsp)
.Ltmp125:
	leaq	112(%rsp), %rsi
	.loc	2 436 72                # /home/chris/test-suite/MultiSource/Benchmarks/Bullet/btConvexConvexAlgorithm.cpp:436:72
	leaq	160(%rsp), %rdi
	callq	_ZmlRK12btQuaternionS1_
.Ltmp337:
.Ltmp126:
	jmp	.LBB11_53
.Ltmp338:
.LBB11_53:                              #   in Loop: Header=BB11_36 Depth=1
	#DEBUG_VALUE: i <- [DW_OP_plus_uconst 40] [$rsp+0]
	#DEBUG_VALUE: radiusA <- [DW_OP_plus_uconst 76] [$rsp+0]
	#DEBUG_VALUE: angleLimit <- 3.926991e-01
	#DEBUG_VALUE: perturbeA <- 1
	#DEBUG_VALUE: sepDist <- [DW_OP_plus_uconst 12] [$rsp+0]
	#DEBUG_VALUE: processCollision:this <- [DW_OP_plus_uconst 16] [$rsp+0]
	#DEBUG_VALUE: processCollision:dispatchInfo <- [DW_OP_plus_uconst 48] [$rsp+0]
	movlpd	%xmm0, 176(%rsp)
	movlpd	%xmm1, 184(%rsp)
.Ltmp127:
	leaq	624(%rsp), %rdi
	.loc	2 436 34                # /home/chris/test-suite/MultiSource/Benchmarks/Bullet/btConvexConvexAlgorithm.cpp:436:34
	leaq	176(%rsp), %rsi
	callq	_ZN11btMatrix3x3C2ERK12btQuaternion
.Ltmp339:
.Ltmp128:
	jmp	.LBB11_54
.Ltmp340:
.LBB11_54:                              #   in Loop: Header=BB11_36 Depth=1
	#DEBUG_VALUE: i <- [DW_OP_plus_uconst 40] [$rsp+0]
	#DEBUG_VALUE: radiusA <- [DW_OP_plus_uconst 76] [$rsp+0]
	#DEBUG_VALUE: angleLimit <- 3.926991e-01
	#DEBUG_VALUE: perturbeA <- 1
	#DEBUG_VALUE: sepDist <- [DW_OP_plus_uconst 12] [$rsp+0]
	#DEBUG_VALUE: processCollision:this <- [DW_OP_plus_uconst 16] [$rsp+0]
	#DEBUG_VALUE: processCollision:dispatchInfo <- [DW_OP_plus_uconst 48] [$rsp+0]
	.loc	2 436 86                # /home/chris/test-suite/MultiSource/Benchmarks/Bullet/btConvexConvexAlgorithm.cpp:436:86
	movq	%r15, %rdi
	callq	_ZN17btCollisionObject17getWorldTransformEv
.Ltmp341:
	.loc	2 436 106               # /home/chris/test-suite/MultiSource/Benchmarks/Bullet/btConvexConvexAlgorithm.cpp:436:106
	movq	%rax, %rdi
	callq	_ZN11btTransform8getBasisEv
.Ltmp342:
.Ltmp129:
	.loc	2 0 106                 # /home/chris/test-suite/MultiSource/Benchmarks/Bullet/btConvexConvexAlgorithm.cpp:0:106
	leaq	672(%rsp), %rdi
	leaq	624(%rsp), %rsi
	.loc	2 436 78                # /home/chris/test-suite/MultiSource/Benchmarks/Bullet/btConvexConvexAlgorithm.cpp:436:78
	movq	%rax, %rdx
	callq	_ZmlRK11btMatrix3x3S1_
.Ltmp343:
.Ltmp130:
	jmp	.LBB11_55
.Ltmp344:
.LBB11_55:                              #   in Loop: Header=BB11_36 Depth=1
	#DEBUG_VALUE: i <- [DW_OP_plus_uconst 40] [$rsp+0]
	#DEBUG_VALUE: radiusA <- [DW_OP_plus_uconst 76] [$rsp+0]
	#DEBUG_VALUE: angleLimit <- 3.926991e-01
	#DEBUG_VALUE: perturbeA <- 1
	#DEBUG_VALUE: sepDist <- [DW_OP_plus_uconst 12] [$rsp+0]
	#DEBUG_VALUE: processCollision:this <- [DW_OP_plus_uconst 16] [$rsp+0]
	#DEBUG_VALUE: processCollision:dispatchInfo <- [DW_OP_plus_uconst 48] [$rsp+0]
	.loc	2 436 24                # /home/chris/test-suite/MultiSource/Benchmarks/Bullet/btConvexConvexAlgorithm.cpp:436:24
	leaq	480(%rsp), %rdi
	leaq	672(%rsp), %rsi
	callq	_ZN11btTransform8setBasisERK11btMatrix3x3
.Ltmp345:
	.loc	2 0 24                  # /home/chris/test-suite/MultiSource/Benchmarks/Bullet/btConvexConvexAlgorithm.cpp:0:24
	jmp	.LBB11_57
.Ltmp346:
.LBB11_56:
	#DEBUG_VALUE: i <- [DW_OP_plus_uconst 40] [$rsp+0]
	#DEBUG_VALUE: radiusA <- [DW_OP_plus_uconst 76] [$rsp+0]
	#DEBUG_VALUE: angleLimit <- 3.926991e-01
	#DEBUG_VALUE: perturbeA <- 1
	#DEBUG_VALUE: sepDist <- [DW_OP_plus_uconst 12] [$rsp+0]
	#DEBUG_VALUE: processCollision:this <- [DW_OP_plus_uconst 16] [$rsp+0]
	#DEBUG_VALUE: processCollision:dispatchInfo <- [DW_OP_plus_uconst 48] [$rsp+0]
.Ltmp131:
                                        # kill: killed $rdx
	movq	%rax, %rbx
	.loc	2 436 5                 # /home/chris/test-suite/MultiSource/Benchmarks/Bullet/btConvexConvexAlgorithm.cpp:436:5
	jmp	.LBB11_63
.Ltmp347:
.LBB11_57:                              #   in Loop: Header=BB11_36 Depth=1
	#DEBUG_VALUE: i <- [DW_OP_plus_uconst 40] [$rsp+0]
	#DEBUG_VALUE: radiusA <- [DW_OP_plus_uconst 76] [$rsp+0]
	#DEBUG_VALUE: angleLimit <- 3.926991e-01
	#DEBUG_VALUE: perturbeA <- 1
	#DEBUG_VALUE: sepDist <- [DW_OP_plus_uconst 12] [$rsp+0]
	#DEBUG_VALUE: processCollision:this <- [DW_OP_plus_uconst 16] [$rsp+0]
	#DEBUG_VALUE: processCollision:dispatchInfo <- [DW_OP_plus_uconst 48] [$rsp+0]
	.loc	2 0 5                   # /home/chris/test-suite/MultiSource/Benchmarks/Bullet/btConvexConvexAlgorithm.cpp:0:5
	leaq	816(%rsp), %rdi
	movq	104(%rsp), %rax         # 8-byte Reload
	.loc	2 442 140 is_stmt 1     # /home/chris/test-suite/MultiSource/Benchmarks/Bullet/btConvexConvexAlgorithm.cpp:442:140
	movq	(%rax), %rax
.Ltmp146:
	.loc	2 442 29 is_stmt 0      # /home/chris/test-suite/MultiSource/Benchmarks/Bullet/btConvexConvexAlgorithm.cpp:442:29
	movq	%rax, (%rsp)
	movzbl	%r13b, %r9d
	andl	$1, %r9d
	leaq	560(%rsp), %r8
	movq	56(%rsp), %rsi          # 8-byte Reload
	movq	%r14, %rdx
	leaq	480(%rsp), %rcx
	callq	_ZN24btPerturbedContactResultC2EP16btManifoldResultRK11btTransformS4_S4_bP12btIDebugDraw
.Ltmp348:
.Ltmp147:
	jmp	.LBB11_58
.Ltmp349:
.LBB11_58:                              #   in Loop: Header=BB11_36 Depth=1
	#DEBUG_VALUE: i <- [DW_OP_plus_uconst 40] [$rsp+0]
	#DEBUG_VALUE: radiusA <- [DW_OP_plus_uconst 76] [$rsp+0]
	#DEBUG_VALUE: angleLimit <- 3.926991e-01
	#DEBUG_VALUE: perturbeA <- 1
	#DEBUG_VALUE: sepDist <- [DW_OP_plus_uconst 12] [$rsp+0]
	#DEBUG_VALUE: processCollision:this <- [DW_OP_plus_uconst 16] [$rsp+0]
	#DEBUG_VALUE: processCollision:dispatchInfo <- [DW_OP_plus_uconst 48] [$rsp+0]
	.loc	2 0 29                  # /home/chris/test-suite/MultiSource/Benchmarks/Bullet/btConvexConvexAlgorithm.cpp:0:29
	movq	104(%rsp), %rax         # 8-byte Reload
	.loc	2 443 75 is_stmt 1      # /home/chris/test-suite/MultiSource/Benchmarks/Bullet/btConvexConvexAlgorithm.cpp:443:75
	movq	(%rax), %rcx
.Ltmp149:
	leaq	320(%rsp), %rdi
	leaq	416(%rsp), %rsi
	leaq	816(%rsp), %rdx
	.loc	2 443 20 is_stmt 0      # /home/chris/test-suite/MultiSource/Benchmarks/Bullet/btConvexConvexAlgorithm.cpp:443:20
	xorl	%r8d, %r8d
	callq	_ZN17btGjkPairDetector16getClosestPointsERKN36btDiscreteCollisionDetectorInterface17ClosestPointInputERNS0_6ResultEP12btIDebugDrawb
.Ltmp350:
.Ltmp150:
	jmp	.LBB11_59
.Ltmp351:
.LBB11_59:                              #   in Loop: Header=BB11_36 Depth=1
	#DEBUG_VALUE: i <- [DW_OP_plus_uconst 40] [$rsp+0]
	#DEBUG_VALUE: radiusA <- [DW_OP_plus_uconst 76] [$rsp+0]
	#DEBUG_VALUE: angleLimit <- 3.926991e-01
	#DEBUG_VALUE: perturbeA <- 1
	#DEBUG_VALUE: sepDist <- [DW_OP_plus_uconst 12] [$rsp+0]
	#DEBUG_VALUE: processCollision:this <- [DW_OP_plus_uconst 16] [$rsp+0]
	#DEBUG_VALUE: processCollision:dispatchInfo <- [DW_OP_plus_uconst 48] [$rsp+0]
	.loc	2 0 20                  # /home/chris/test-suite/MultiSource/Benchmarks/Bullet/btConvexConvexAlgorithm.cpp:0:20
	leaq	816(%rsp), %rdi
	.loc	2 446 3 is_stmt 1       # /home/chris/test-suite/MultiSource/Benchmarks/Bullet/btConvexConvexAlgorithm.cpp:446:3
	callq	_ZN36btDiscreteCollisionDetectorInterface6ResultD2Ev
.Ltmp352:
	.loc	2 0 3 is_stmt 0         # /home/chris/test-suite/MultiSource/Benchmarks/Bullet/btConvexConvexAlgorithm.cpp:0:3
	movl	40(%rsp), %ecx          # 4-byte Reload
.Ltmp353:
	#DEBUG_VALUE: i <- $ecx
	.loc	2 419 44 is_stmt 1      # /home/chris/test-suite/MultiSource/Benchmarks/Bullet/btConvexConvexAlgorithm.cpp:419:44
	addl	$1, %ecx
.Ltmp354:
	#DEBUG_VALUE: i <- $ecx
	.loc	2 419 3 is_stmt 0       # /home/chris/test-suite/MultiSource/Benchmarks/Bullet/btConvexConvexAlgorithm.cpp:419:3
	jmp	.LBB11_36
.Ltmp355:
.LBB11_60:
	#DEBUG_VALUE: i <- [DW_OP_plus_uconst 40] [$rsp+0]
	#DEBUG_VALUE: radiusA <- [DW_OP_plus_uconst 76] [$rsp+0]
	#DEBUG_VALUE: angleLimit <- 3.926991e-01
	#DEBUG_VALUE: perturbeA <- 1
	#DEBUG_VALUE: sepDist <- [DW_OP_plus_uconst 12] [$rsp+0]
	#DEBUG_VALUE: processCollision:this <- [DW_OP_plus_uconst 16] [$rsp+0]
	#DEBUG_VALUE: processCollision:dispatchInfo <- [DW_OP_plus_uconst 48] [$rsp+0]
.Ltmp148:
                                        # kill: killed $rdx
	.loc	2 0 3                   # /home/chris/test-suite/MultiSource/Benchmarks/Bullet/btConvexConvexAlgorithm.cpp:0:3
	movq	%rax, %rbx
.Ltmp356:
	.loc	2 466 1 is_stmt 1       # /home/chris/test-suite/MultiSource/Benchmarks/Bullet/btConvexConvexAlgorithm.cpp:466:1
	jmp	.LBB11_62
.Ltmp357:
.LBB11_61:
	#DEBUG_VALUE: i <- [DW_OP_plus_uconst 40] [$rsp+0]
	#DEBUG_VALUE: radiusA <- [DW_OP_plus_uconst 76] [$rsp+0]
	#DEBUG_VALUE: angleLimit <- 3.926991e-01
	#DEBUG_VALUE: perturbeA <- 1
	#DEBUG_VALUE: sepDist <- [DW_OP_plus_uconst 12] [$rsp+0]
	#DEBUG_VALUE: processCollision:this <- [DW_OP_plus_uconst 16] [$rsp+0]
	#DEBUG_VALUE: processCollision:dispatchInfo <- [DW_OP_plus_uconst 48] [$rsp+0]
.Ltmp151:
                                        # kill: killed $rdx
	.loc	2 0 1 is_stmt 0         # /home/chris/test-suite/MultiSource/Benchmarks/Bullet/btConvexConvexAlgorithm.cpp:0:1
	movq	%rax, %rbx
	leaq	816(%rsp), %rdi
	.loc	2 446 3 is_stmt 1       # /home/chris/test-suite/MultiSource/Benchmarks/Bullet/btConvexConvexAlgorithm.cpp:446:3
	callq	_ZN36btDiscreteCollisionDetectorInterface6ResultD2Ev
.Ltmp358:
.LBB11_62:
	#DEBUG_VALUE: i <- [DW_OP_plus_uconst 40] [$rsp+0]
	#DEBUG_VALUE: radiusA <- [DW_OP_plus_uconst 76] [$rsp+0]
	#DEBUG_VALUE: angleLimit <- 3.926991e-01
	#DEBUG_VALUE: perturbeA <- 1
	#DEBUG_VALUE: sepDist <- [DW_OP_plus_uconst 12] [$rsp+0]
	#DEBUG_VALUE: processCollision:this <- [DW_OP_plus_uconst 16] [$rsp+0]
	#DEBUG_VALUE: processCollision:dispatchInfo <- [DW_OP_plus_uconst 48] [$rsp+0]
.LBB11_63:
	#DEBUG_VALUE: i <- [DW_OP_plus_uconst 40] [$rsp+0]
	#DEBUG_VALUE: radiusA <- [DW_OP_plus_uconst 76] [$rsp+0]
	#DEBUG_VALUE: angleLimit <- 3.926991e-01
	#DEBUG_VALUE: perturbeA <- 1
	#DEBUG_VALUE: sepDist <- [DW_OP_plus_uconst 12] [$rsp+0]
	#DEBUG_VALUE: processCollision:this <- [DW_OP_plus_uconst 16] [$rsp+0]
	#DEBUG_VALUE: processCollision:dispatchInfo <- [DW_OP_plus_uconst 48] [$rsp+0]
.LBB11_64:
	#DEBUG_VALUE: i <- [DW_OP_plus_uconst 40] [$rsp+0]
	#DEBUG_VALUE: radiusA <- [DW_OP_plus_uconst 76] [$rsp+0]
	#DEBUG_VALUE: angleLimit <- 3.926991e-01
	#DEBUG_VALUE: perturbeA <- 1
	#DEBUG_VALUE: sepDist <- [DW_OP_plus_uconst 12] [$rsp+0]
	#DEBUG_VALUE: processCollision:this <- [DW_OP_plus_uconst 16] [$rsp+0]
	#DEBUG_VALUE: processCollision:dispatchInfo <- [DW_OP_plus_uconst 48] [$rsp+0]
	jmp	.LBB11_66
.Ltmp359:
.LBB11_65:
	#DEBUG_VALUE: i <- $ecx
	#DEBUG_VALUE: radiusA <- [DW_OP_plus_uconst 76] [$rsp+0]
	#DEBUG_VALUE: angleLimit <- 3.926991e-01
	#DEBUG_VALUE: perturbeA <- 1
	#DEBUG_VALUE: sepDist <- [DW_OP_plus_uconst 12] [$rsp+0]
	#DEBUG_VALUE: processCollision:this <- [DW_OP_plus_uconst 16] [$rsp+0]
	#DEBUG_VALUE: processCollision:dispatchInfo <- [DW_OP_plus_uconst 48] [$rsp+0]
	.loc	2 447 2                 # /home/chris/test-suite/MultiSource/Benchmarks/Bullet/btConvexConvexAlgorithm.cpp:447:2
	jmp	.LBB11_68
.Ltmp360:
.LBB11_66:
	#DEBUG_VALUE: radiusA <- [DW_OP_plus_uconst 76] [$rsp+0]
	#DEBUG_VALUE: angleLimit <- 3.926991e-01
	#DEBUG_VALUE: perturbeA <- 1
	#DEBUG_VALUE: sepDist <- [DW_OP_plus_uconst 12] [$rsp+0]
	#DEBUG_VALUE: processCollision:this <- [DW_OP_plus_uconst 16] [$rsp+0]
	#DEBUG_VALUE: processCollision:dispatchInfo <- [DW_OP_plus_uconst 48] [$rsp+0]
.LBB11_67:
	#DEBUG_VALUE: sepDist <- [DW_OP_plus_uconst 12] [$rsp+0]
	#DEBUG_VALUE: processCollision:this <- [DW_OP_plus_uconst 16] [$rsp+0]
	#DEBUG_VALUE: processCollision:dispatchInfo <- [DW_OP_plus_uconst 48] [$rsp+0]
	.loc	2 447 2 is_stmt 0       # /home/chris/test-suite/MultiSource/Benchmarks/Bullet/btConvexConvexAlgorithm.cpp:447:2
	jmp	.LBB11_71
.Ltmp361:
.LBB11_68:
	#DEBUG_VALUE: sepDist <- [DW_OP_plus_uconst 12] [$rsp+0]
	#DEBUG_VALUE: processCollision:this <- [DW_OP_plus_uconst 16] [$rsp+0]
	#DEBUG_VALUE: processCollision:dispatchInfo <- [DW_OP_plus_uconst 48] [$rsp+0]
	.loc	2 0 2                   # /home/chris/test-suite/MultiSource/Benchmarks/Bullet/btConvexConvexAlgorithm.cpp:0:2
	movss	.LCPI11_1(%rip), %xmm0  # xmm0 = mem[0],zero,zero,zero
.Ltmp362:
	.loc	2 452 19 is_stmt 1      # /home/chris/test-suite/MultiSource/Benchmarks/Bullet/btConvexConvexAlgorithm.cpp:452:19
	cmpb	$0, (%r12)
	setne	%al
	movss	12(%rsp), %xmm1         # 4-byte Reload
                                        # xmm1 = mem[0],zero,zero,zero
	.loc	2 452 66 is_stmt 0      # /home/chris/test-suite/MultiSource/Benchmarks/Bullet/btConvexConvexAlgorithm.cpp:452:66
	ucomiss	%xmm0, %xmm1
	seta	%cl
	.loc	2 452 55                # /home/chris/test-suite/MultiSource/Benchmarks/Bullet/btConvexConvexAlgorithm.cpp:452:55
	andb	%cl, %al
	testb	$1, %al
	jne	.LBB11_69
	jmp	.LBB11_70
.Ltmp363:
.LBB11_69:
	#DEBUG_VALUE: sepDist <- [DW_OP_plus_uconst 12] [$rsp+0]
	#DEBUG_VALUE: processCollision:this <- [DW_OP_plus_uconst 16] [$rsp+0]
	#DEBUG_VALUE: processCollision:dispatchInfo <- [DW_OP_plus_uconst 48] [$rsp+0]
	.loc	2 0 55                  # /home/chris/test-suite/MultiSource/Benchmarks/Bullet/btConvexConvexAlgorithm.cpp:0:55
	leaq	320(%rsp), %rdi
.Ltmp364:
	.loc	2 454 56 is_stmt 1      # /home/chris/test-suite/MultiSource/Benchmarks/Bullet/btConvexConvexAlgorithm.cpp:454:56
	callq	_ZNK17btGjkPairDetector23getCachedSeparatingAxisEv
.Ltmp365:
	movq	%rax, %r14
	movq	24(%rsp), %rdi          # 8-byte Reload
	.loc	2 454 97 is_stmt 0      # /home/chris/test-suite/MultiSource/Benchmarks/Bullet/btConvexConvexAlgorithm.cpp:454:97
	callq	_ZN17btCollisionObject17getWorldTransformEv
.Ltmp366:
	movq	%rax, %rbx
	.loc	2 454 124               # /home/chris/test-suite/MultiSource/Benchmarks/Bullet/btConvexConvexAlgorithm.cpp:454:124
	movq	%r15, %rdi
	callq	_ZN17btCollisionObject17getWorldTransformEv
.Ltmp367:
.Ltmp111:
	.loc	2 454 17                # /home/chris/test-suite/MultiSource/Benchmarks/Bullet/btConvexConvexAlgorithm.cpp:454:17
	movq	%rbp, %rdi
	movq	%r14, %rsi
	movss	12(%rsp), %xmm0         # 4-byte Reload
                                        # xmm0 = mem[0],zero,zero,zero
	movq	%rbx, %rdx
	movq	%rax, %rcx
	callq	_ZN30btConvexSeparatingDistanceUtil22initSeparatingDistanceERK9btVector3fRK11btTransformS5_
.Ltmp368:
.Ltmp112:
	jmp	.LBB11_70
.Ltmp369:
.LBB11_70:
	#DEBUG_VALUE: sepDist <- [DW_OP_plus_uconst 12] [$rsp+0]
	#DEBUG_VALUE: processCollision:this <- [DW_OP_plus_uconst 16] [$rsp+0]
	#DEBUG_VALUE: processCollision:dispatchInfo <- [DW_OP_plus_uconst 48] [$rsp+0]
	.loc	2 0 17                  # /home/chris/test-suite/MultiSource/Benchmarks/Bullet/btConvexConvexAlgorithm.cpp:0:17
	leaq	320(%rsp), %rdi
	.loc	2 459 2 is_stmt 1       # /home/chris/test-suite/MultiSource/Benchmarks/Bullet/btConvexConvexAlgorithm.cpp:459:2
	callq	_ZN36btDiscreteCollisionDetectorInterfaceD2Ev
.Ltmp370:
	.loc	2 459 2 is_stmt 0       # /home/chris/test-suite/MultiSource/Benchmarks/Bullet/btConvexConvexAlgorithm.cpp:459:2
	jmp	.LBB11_73
.Ltmp371:
.LBB11_71:
	#DEBUG_VALUE: processCollision:this <- [DW_OP_plus_uconst 16] [$rsp+0]
	#DEBUG_VALUE: processCollision:dispatchInfo <- [DW_OP_plus_uconst 48] [$rsp+0]
.LBB11_72:
	#DEBUG_VALUE: processCollision:this <- [DW_OP_plus_uconst 16] [$rsp+0]
	#DEBUG_VALUE: processCollision:dispatchInfo <- [DW_OP_plus_uconst 48] [$rsp+0]
	.loc	2 0 2                   # /home/chris/test-suite/MultiSource/Benchmarks/Bullet/btConvexConvexAlgorithm.cpp:0:2
	leaq	320(%rsp), %rdi
	.loc	2 459 2                 # /home/chris/test-suite/MultiSource/Benchmarks/Bullet/btConvexConvexAlgorithm.cpp:459:2
	callq	_ZN36btDiscreteCollisionDetectorInterfaceD2Ev
.Ltmp372:
	.loc	2 0 2                   # /home/chris/test-suite/MultiSource/Benchmarks/Bullet/btConvexConvexAlgorithm.cpp:0:2
	movq	%rbx, %rdi
	callq	_Unwind_Resume
.Ltmp373:
.LBB11_73:
	#DEBUG_VALUE: processCollision:this <- [DW_OP_plus_uconst 16] [$rsp+0]
	#DEBUG_VALUE: processCollision:dispatchInfo <- [DW_OP_plus_uconst 48] [$rsp+0]
	movq	16(%rsp), %rax          # 8-byte Reload
.Ltmp374:
	.loc	2 461 6 is_stmt 1       # /home/chris/test-suite/MultiSource/Benchmarks/Bullet/btConvexConvexAlgorithm.cpp:461:6
	cmpb	$0, 128(%rax)
.Ltmp375:
	.loc	2 461 6 is_stmt 0       # /home/chris/test-suite/MultiSource/Benchmarks/Bullet/btConvexConvexAlgorithm.cpp:461:6
	je	.LBB11_75
.Ltmp376:
# %bb.74:
	#DEBUG_VALUE: processCollision:this <- [DW_OP_plus_uconst 16] [$rsp+0]
	#DEBUG_VALUE: processCollision:dispatchInfo <- [DW_OP_plus_uconst 48] [$rsp+0]
	.loc	2 0 6                   # /home/chris/test-suite/MultiSource/Benchmarks/Bullet/btConvexConvexAlgorithm.cpp:0:6
	movq	56(%rsp), %rdi          # 8-byte Reload
.Ltmp377:
	.loc	2 463 14 is_stmt 1      # /home/chris/test-suite/MultiSource/Benchmarks/Bullet/btConvexConvexAlgorithm.cpp:463:14
	callq	_ZN16btManifoldResult20refreshContactPointsEv
.Ltmp378:
.LBB11_75:
	#DEBUG_VALUE: processCollision:this <- [DW_OP_plus_uconst 16] [$rsp+0]
	#DEBUG_VALUE: processCollision:dispatchInfo <- [DW_OP_plus_uconst 48] [$rsp+0]
	.loc	2 466 1                 # /home/chris/test-suite/MultiSource/Benchmarks/Bullet/btConvexConvexAlgorithm.cpp:466:1
	addq	$1208, %rsp             # imm = 0x4B8
	.cfi_def_cfa_offset 56
	popq	%rbx
	.cfi_def_cfa_offset 48
	popq	%r12
	.cfi_def_cfa_offset 40
	popq	%r13
	.cfi_def_cfa_offset 32
	popq	%r14
	.cfi_def_cfa_offset 24
	popq	%r15
	.cfi_def_cfa_offset 16
	popq	%rbp
	.cfi_def_cfa_offset 8
	retq
.Ltmp379:
.Lfunc_end11:
	.size	_ZN23btConvexConvexAlgorithm16processCollisionEP17btCollisionObjectS1_RK16btDispatcherInfoP16btManifoldResult, .Lfunc_end11-_ZN23btConvexConvexAlgorithm16processCollisionEP17btCollisionObjectS1_RK16btDispatcherInfoP16btManifoldResult
	.cfi_endproc
	.file	33 "/home/chris/test-suite/MultiSource/Benchmarks/Bullet/include/BulletCollision/CollisionDispatch" "btManifoldResult.h"
	.file	34 "/home/chris/test-suite/MultiSource/Benchmarks/Bullet/include/BulletCollision/CollisionShapes" "btCollisionShape.h"
	.file	35 "/home/chris/test-suite/MultiSource/Benchmarks/Bullet/include/BulletCollision/CollisionShapes" "btCapsuleShape.h"
	.file	36 "/home/chris/test-suite/MultiSource/Benchmarks/Bullet/include/BulletCollision/NarrowPhaseCollision" "btDiscreteCollisionDetectorInterface.h"
	.file	37 "/home/chris/test-suite/MultiSource/Benchmarks/Bullet/include/BulletCollision/NarrowPhaseCollision" "btGjkPairDetector.h"
	.section	.gcc_except_table,"a",@progbits
	.p2align	2
GCC_except_table11:
.Lexception2:
	.byte	255                     # @LPStart Encoding = omit
	.byte	255                     # @TType Encoding = omit
	.byte	1                       # Call site Encoding = uleb128
	.uleb128 .Lcst_end2-.Lcst_begin2
.Lcst_begin2:
	.uleb128 .Lfunc_begin11-.Lfunc_begin11 # >> Call Site 1 <<
	.uleb128 .Ltmp80-.Lfunc_begin11 #   Call between .Lfunc_begin11 and .Ltmp80
	.byte	0                       #     has no landing pad
	.byte	0                       #   On action: cleanup
	.uleb128 .Ltmp80-.Lfunc_begin11 # >> Call Site 2 <<
	.uleb128 .Ltmp91-.Ltmp80        #   Call between .Ltmp80 and .Ltmp91
	.uleb128 .Ltmp92-.Lfunc_begin11 #     jumps to .Ltmp92
	.byte	0                       #   On action: cleanup
	.uleb128 .Ltmp93-.Lfunc_begin11 # >> Call Site 3 <<
	.uleb128 .Ltmp94-.Ltmp93        #   Call between .Ltmp93 and .Ltmp94
	.uleb128 .Ltmp95-.Lfunc_begin11 #     jumps to .Ltmp95
	.byte	0                       #   On action: cleanup
	.uleb128 .Ltmp96-.Lfunc_begin11 # >> Call Site 4 <<
	.uleb128 .Ltmp97-.Ltmp96        #   Call between .Ltmp96 and .Ltmp97
	.uleb128 .Ltmp113-.Lfunc_begin11 #     jumps to .Ltmp113
	.byte	0                       #   On action: cleanup
	.uleb128 .Ltmp98-.Lfunc_begin11 # >> Call Site 5 <<
	.uleb128 .Ltmp99-.Ltmp98        #   Call between .Ltmp98 and .Ltmp99
	.uleb128 .Ltmp100-.Lfunc_begin11 #     jumps to .Ltmp100
	.byte	0                       #   On action: cleanup
	.uleb128 .Ltmp101-.Lfunc_begin11 # >> Call Site 6 <<
	.uleb128 .Ltmp102-.Ltmp101      #   Call between .Ltmp101 and .Ltmp102
	.uleb128 .Ltmp103-.Lfunc_begin11 #     jumps to .Ltmp103
	.byte	0                       #   On action: cleanup
	.uleb128 .Ltmp104-.Lfunc_begin11 # >> Call Site 7 <<
	.uleb128 .Ltmp107-.Ltmp104      #   Call between .Ltmp104 and .Ltmp107
	.uleb128 .Ltmp110-.Lfunc_begin11 #     jumps to .Ltmp110
	.byte	0                       #   On action: cleanup
	.uleb128 .Ltmp114-.Lfunc_begin11 # >> Call Site 8 <<
	.uleb128 .Ltmp115-.Ltmp114      #   Call between .Ltmp114 and .Ltmp115
	.uleb128 .Ltmp116-.Lfunc_begin11 #     jumps to .Ltmp116
	.byte	0                       #   On action: cleanup
	.uleb128 .Ltmp117-.Lfunc_begin11 # >> Call Site 9 <<
	.uleb128 .Ltmp118-.Ltmp117      #   Call between .Ltmp117 and .Ltmp118
	.uleb128 .Ltmp145-.Lfunc_begin11 #     jumps to .Ltmp145
	.byte	0                       #   On action: cleanup
	.uleb128 .Ltmp132-.Lfunc_begin11 # >> Call Site 10 <<
	.uleb128 .Ltmp141-.Ltmp132      #   Call between .Ltmp132 and .Ltmp141
	.uleb128 .Ltmp142-.Lfunc_begin11 #     jumps to .Ltmp142
	.byte	0                       #   On action: cleanup
	.uleb128 .Ltmp143-.Lfunc_begin11 # >> Call Site 11 <<
	.uleb128 .Ltmp120-.Ltmp143      #   Call between .Ltmp143 and .Ltmp120
	.uleb128 .Ltmp145-.Lfunc_begin11 #     jumps to .Ltmp145
	.byte	0                       #   On action: cleanup
	.uleb128 .Ltmp121-.Lfunc_begin11 # >> Call Site 12 <<
	.uleb128 .Ltmp130-.Ltmp121      #   Call between .Ltmp121 and .Ltmp130
	.uleb128 .Ltmp131-.Lfunc_begin11 #     jumps to .Ltmp131
	.byte	0                       #   On action: cleanup
	.uleb128 .Ltmp146-.Lfunc_begin11 # >> Call Site 13 <<
	.uleb128 .Ltmp147-.Ltmp146      #   Call between .Ltmp146 and .Ltmp147
	.uleb128 .Ltmp148-.Lfunc_begin11 #     jumps to .Ltmp148
	.byte	0                       #   On action: cleanup
	.uleb128 .Ltmp149-.Lfunc_begin11 # >> Call Site 14 <<
	.uleb128 .Ltmp150-.Ltmp149      #   Call between .Ltmp149 and .Ltmp150
	.uleb128 .Ltmp151-.Lfunc_begin11 #     jumps to .Ltmp151
	.byte	0                       #   On action: cleanup
	.uleb128 .Ltmp111-.Lfunc_begin11 # >> Call Site 15 <<
	.uleb128 .Ltmp112-.Ltmp111      #   Call between .Ltmp111 and .Ltmp112
	.uleb128 .Ltmp113-.Lfunc_begin11 #     jumps to .Ltmp113
	.byte	0                       #   On action: cleanup
	.uleb128 .Ltmp112-.Lfunc_begin11 # >> Call Site 16 <<
	.uleb128 .Lfunc_end11-.Ltmp112  #   Call between .Ltmp112 and .Lfunc_end11
	.byte	0                       #     has no landing pad
	.byte	0                       #   On action: cleanup
.Lcst_end2:
	.p2align	2
                                        # -- End function
	.section	.text._ZN16btManifoldResult21setPersistentManifoldEP20btPersistentManifold,"axG",@progbits,_ZN16btManifoldResult21setPersistentManifoldEP20btPersistentManifold,comdat
	.weak	_ZN16btManifoldResult21setPersistentManifoldEP20btPersistentManifold # -- Begin function _ZN16btManifoldResult21setPersistentManifoldEP20btPersistentManifold
	.p2align	4, 0x90
	.type	_ZN16btManifoldResult21setPersistentManifoldEP20btPersistentManifold,@function
_ZN16btManifoldResult21setPersistentManifoldEP20btPersistentManifold: # @_ZN16btManifoldResult21setPersistentManifoldEP20btPersistentManifold
.Lfunc_begin12:
	.loc	33 69 0                 # /home/chris/test-suite/MultiSource/Benchmarks/Bullet/include/BulletCollision/CollisionDispatch/btManifoldResult.h:69:0
	.cfi_startproc
# %bb.0:
	#DEBUG_VALUE: setPersistentManifold:this <- $rdi
	#DEBUG_VALUE: setPersistentManifold:manifoldPtr <- $rsi
	.loc	33 70 17 prologue_end   # /home/chris/test-suite/MultiSource/Benchmarks/Bullet/include/BulletCollision/CollisionDispatch/btManifoldResult.h:70:17
	movq	%rsi, 8(%rdi)
	.loc	33 71 2                 # /home/chris/test-suite/MultiSource/Benchmarks/Bullet/include/BulletCollision/CollisionDispatch/btManifoldResult.h:71:2
	retq
.Ltmp380:
.Lfunc_end12:
	.size	_ZN16btManifoldResult21setPersistentManifoldEP20btPersistentManifold, .Lfunc_end12-_ZN16btManifoldResult21setPersistentManifoldEP20btPersistentManifold
	.cfi_endproc
                                        # -- End function
	.section	.text._ZN9btVector3C2Ev,"axG",@progbits,_ZN9btVector3C2Ev,comdat
	.weak	_ZN9btVector3C2Ev       # -- Begin function _ZN9btVector3C2Ev
	.p2align	4, 0x90
	.type	_ZN9btVector3C2Ev,@function
_ZN9btVector3C2Ev:                      # @_ZN9btVector3C2Ev
.Lfunc_begin13:
	.loc	5 63 0                  # /home/chris/test-suite/MultiSource/Benchmarks/Bullet/include/LinearMath/btVector3.h:63:0
	.cfi_startproc
# %bb.0:
                                        # kill: killed $rdi
	#DEBUG_VALUE: btVector3:this <- undef
	.loc	5 63 33 prologue_end    # /home/chris/test-suite/MultiSource/Benchmarks/Bullet/include/LinearMath/btVector3.h:63:33
	retq
.Ltmp381:
.Lfunc_end13:
	.size	_ZN9btVector3C2Ev, .Lfunc_end13-_ZN9btVector3C2Ev
	.cfi_endproc
                                        # -- End function
	.section	.text._ZNK16btCollisionShape12getShapeTypeEv,"axG",@progbits,_ZNK16btCollisionShape12getShapeTypeEv,comdat
	.weak	_ZNK16btCollisionShape12getShapeTypeEv # -- Begin function _ZNK16btCollisionShape12getShapeTypeEv
	.p2align	4, 0x90
	.type	_ZNK16btCollisionShape12getShapeTypeEv,@function
_ZNK16btCollisionShape12getShapeTypeEv: # @_ZNK16btCollisionShape12getShapeTypeEv
.Lfunc_begin14:
	.loc	34 98 0                 # /home/chris/test-suite/MultiSource/Benchmarks/Bullet/include/BulletCollision/CollisionShapes/btCollisionShape.h:98:0
	.cfi_startproc
# %bb.0:
	#DEBUG_VALUE: getShapeType:this <- $rdi
	.loc	34 98 37 prologue_end   # /home/chris/test-suite/MultiSource/Benchmarks/Bullet/include/BulletCollision/CollisionShapes/btCollisionShape.h:98:37
	movl	8(%rdi), %eax
	.loc	34 98 30 is_stmt 0      # /home/chris/test-suite/MultiSource/Benchmarks/Bullet/include/BulletCollision/CollisionShapes/btCollisionShape.h:98:30
	retq
.Ltmp382:
.Lfunc_end14:
	.size	_ZNK16btCollisionShape12getShapeTypeEv, .Lfunc_end14-_ZNK16btCollisionShape12getShapeTypeEv
	.cfi_endproc
                                        # -- End function
	.section	.rodata.cst4,"aM",@progbits,4
	.p2align	2               # -- Begin function _ZL22capsuleCapsuleDistanceR9btVector3S0_ffffiiRK11btTransformS3_f
.LCPI15_0:
	.long	679477248               # float 1.42108547E-14
.LCPI15_1:
	.long	3212836864              # float -1
	.text
	.p2align	4, 0x90
	.type	_ZL22capsuleCapsuleDistanceR9btVector3S0_ffffiiRK11btTransformS3_f,@function
_ZL22capsuleCapsuleDistanceR9btVector3S0_ffffiiRK11btTransformS3_f: # @_ZL22capsuleCapsuleDistanceR9btVector3S0_ffffiiRK11btTransformS3_f
.Lfunc_begin15:
	.loc	2 126 0 is_stmt 1       # /home/chris/test-suite/MultiSource/Benchmarks/Bullet/btConvexConvexAlgorithm.cpp:126:0
	.cfi_startproc
# %bb.0:
	#DEBUG_VALUE: capsuleCapsuleDistance:transformA <- $r8
	#DEBUG_VALUE: capsuleCapsuleDistance:capsuleAxisA <- $edx
	#DEBUG_VALUE: capsuleCapsuleDistance:transformB <- $r9
	#DEBUG_VALUE: capsuleCapsuleDistance:capsuleAxisB <- $ecx
	pushq	%rbp
	.cfi_def_cfa_offset 16
	pushq	%r15
	.cfi_def_cfa_offset 24
	pushq	%r14
	.cfi_def_cfa_offset 32
	pushq	%r13
	.cfi_def_cfa_offset 40
	pushq	%r12
	.cfi_def_cfa_offset 48
	pushq	%rbx
	.cfi_def_cfa_offset 56
	subq	$248, %rsp
	.cfi_def_cfa_offset 304
	.cfi_offset %rbx, -56
	.cfi_offset %r12, -48
	.cfi_offset %r13, -40
	.cfi_offset %r14, -32
	.cfi_offset %r15, -24
	.cfi_offset %rbp, -16
	movss	%xmm4, 48(%rsp)         # 4-byte Spill
	movq	%r9, %r12
.Ltmp383:
	#DEBUG_VALUE: capsuleCapsuleDistance:transformB <- $r12
	movq	%r8, %rbx
.Ltmp384:
	#DEBUG_VALUE: capsuleCapsuleDistance:transformA <- $rbx
	movl	%ecx, %r13d
.Ltmp385:
	#DEBUG_VALUE: capsuleCapsuleDistance:capsuleAxisB <- $r13d
	movl	%edx, %ebp
.Ltmp386:
	#DEBUG_VALUE: capsuleCapsuleDistance:capsuleAxisA <- $ebp
	movss	%xmm2, 40(%rsp)         # 4-byte Spill
	movss	%xmm1, 44(%rsp)         # 4-byte Spill
	movss	%xmm0, 36(%rsp)         # 4-byte Spill
	movq	%rsi, %r14
	movq	%rdi, %r15
	movss	%xmm3, 28(%rsp)
	leaq	72(%rsp), %rax
.Ltmp387:
	.loc	2 127 36 prologue_end   # /home/chris/test-suite/MultiSource/Benchmarks/Bullet/btConvexConvexAlgorithm.cpp:127:36
	movq	%rbx, %rdi
	callq	_ZNK11btTransform8getBasisEv
.Ltmp388:
	.loc	2 127 47 is_stmt 0      # /home/chris/test-suite/MultiSource/Benchmarks/Bullet/btConvexConvexAlgorithm.cpp:127:47
	movq	%rax, %rdi
	movl	%ebp, %esi
.Ltmp389:
	#DEBUG_VALUE: capsuleCapsuleDistance:capsuleAxisA <- $esi
	callq	_ZNK11btMatrix3x39getColumnEi
.Ltmp390:
	movlpd	%xmm0, 72(%rsp)
	movlpd	%xmm1, 80(%rsp)
	leaq	192(%rsp), %rbp
	.loc	2 128 38 is_stmt 1      # /home/chris/test-suite/MultiSource/Benchmarks/Bullet/btConvexConvexAlgorithm.cpp:128:38
	movq	%rbx, %rdi
	callq	_ZNK11btTransform9getOriginEv
.Ltmp391:
	.loc	2 128 27 is_stmt 0      # /home/chris/test-suite/MultiSource/Benchmarks/Bullet/btConvexConvexAlgorithm.cpp:128:27
	movups	(%rax), %xmm0
	movaps	%xmm0, 192(%rsp)
	leaq	104(%rsp), %rax
	.loc	2 129 36 is_stmt 1      # /home/chris/test-suite/MultiSource/Benchmarks/Bullet/btConvexConvexAlgorithm.cpp:129:36
	movq	%r12, %rdi
	callq	_ZNK11btTransform8getBasisEv
.Ltmp392:
	.loc	2 129 47 is_stmt 0      # /home/chris/test-suite/MultiSource/Benchmarks/Bullet/btConvexConvexAlgorithm.cpp:129:47
	movq	%rax, %rdi
	movl	%r13d, %esi
.Ltmp393:
	#DEBUG_VALUE: capsuleCapsuleDistance:capsuleAxisB <- $esi
	callq	_ZNK11btMatrix3x39getColumnEi
.Ltmp394:
	movlpd	%xmm0, 104(%rsp)
	movlpd	%xmm1, 112(%rsp)
	leaq	176(%rsp), %rbx
.Ltmp395:
	.loc	2 130 38 is_stmt 1      # /home/chris/test-suite/MultiSource/Benchmarks/Bullet/btConvexConvexAlgorithm.cpp:130:38
	movq	%r12, %rdi
	callq	_ZNK11btTransform9getOriginEv
.Ltmp396:
	.loc	2 130 27 is_stmt 0      # /home/chris/test-suite/MultiSource/Benchmarks/Bullet/btConvexConvexAlgorithm.cpp:130:27
	movups	(%rax), %xmm0
	movaps	%xmm0, 176(%rsp)
	leaq	88(%rsp), %rax
	.loc	2 134 39 is_stmt 1      # /home/chris/test-suite/MultiSource/Benchmarks/Bullet/btConvexConvexAlgorithm.cpp:134:39
	movq	%rbx, %rdi
	movq	%rbp, %rsi
	callq	_ZmiRK9btVector3S1_
.Ltmp397:
	movlpd	%xmm0, 88(%rsp)
	movlpd	%xmm1, 96(%rsp)
	.loc	2 138 2                 # /home/chris/test-suite/MultiSource/Benchmarks/Bullet/btConvexConvexAlgorithm.cpp:138:2
	leaq	56(%rsp), %rdi
.Ltmp398:
	#DEBUG_VALUE: capsuleCapsuleDistance:ptsVector <- [DW_OP_deref] $rdi
	.loc	2 138 12 is_stmt 0      # /home/chris/test-suite/MultiSource/Benchmarks/Bullet/btConvexConvexAlgorithm.cpp:138:12
	callq	_ZN9btVector3C2Ev
.Ltmp399:
	.loc	2 140 2 is_stmt 1       # /home/chris/test-suite/MultiSource/Benchmarks/Bullet/btConvexConvexAlgorithm.cpp:140:2
	leaq	232(%rsp), %rdi
.Ltmp400:
	#DEBUG_VALUE: capsuleCapsuleDistance:offsetA <- [DW_OP_deref] $rdi
	.loc	2 140 12 is_stmt 0      # /home/chris/test-suite/MultiSource/Benchmarks/Bullet/btConvexConvexAlgorithm.cpp:140:12
	callq	_ZN9btVector3C2Ev
.Ltmp401:
	.loc	2 140 2                 # /home/chris/test-suite/MultiSource/Benchmarks/Bullet/btConvexConvexAlgorithm.cpp:140:2
	leaq	160(%rsp), %rdi
.Ltmp402:
	#DEBUG_VALUE: capsuleCapsuleDistance:offsetB <- [DW_OP_deref] $rdi
	.loc	2 140 21                # /home/chris/test-suite/MultiSource/Benchmarks/Bullet/btConvexConvexAlgorithm.cpp:140:21
	callq	_ZN9btVector3C2Ev
.Ltmp403:
	.loc	2 141 2 is_stmt 1       # /home/chris/test-suite/MultiSource/Benchmarks/Bullet/btConvexConvexAlgorithm.cpp:141:2
	leaq	124(%rsp), %rcx
.Ltmp404:
	#DEBUG_VALUE: capsuleCapsuleDistance:tA <- [DW_OP_deref] $rcx
	leaq	120(%rsp), %r8
.Ltmp405:
	#DEBUG_VALUE: capsuleCapsuleDistance:tB <- [DW_OP_deref] $r8
	.loc	2 143 2                 # /home/chris/test-suite/MultiSource/Benchmarks/Bullet/btConvexConvexAlgorithm.cpp:143:2
	leaq	56(%rsp), %rdi
	leaq	232(%rsp), %rsi
	leaq	160(%rsp), %rdx
	leaq	88(%rsp), %r9
	leaq	72(%rsp), %rax
	movq	%rax, (%rsp)
	movss	36(%rsp), %xmm0         # 4-byte Reload
                                        # xmm0 = mem[0],zero,zero,zero
	leaq	104(%rsp), %rax
	movq	%rax, 8(%rsp)
	movss	40(%rsp), %xmm1         # 4-byte Reload
                                        # xmm1 = mem[0],zero,zero,zero
	callq	_ZL21segmentsClosestPointsR9btVector3S0_S0_RfS1_RKS_S3_fS3_f
.Ltmp406:
	.loc	2 146 32                # /home/chris/test-suite/MultiSource/Benchmarks/Bullet/btConvexConvexAlgorithm.cpp:146:32
	leaq	56(%rsp), %rdi
	callq	_ZNK9btVector36lengthEv
.Ltmp407:
	.loc	2 146 41 is_stmt 0      # /home/chris/test-suite/MultiSource/Benchmarks/Bullet/btConvexConvexAlgorithm.cpp:146:41
	subss	44(%rsp), %xmm0         # 4-byte Folded Reload
	.loc	2 146 58                # /home/chris/test-suite/MultiSource/Benchmarks/Bullet/btConvexConvexAlgorithm.cpp:146:58
	subss	28(%rsp), %xmm0
.Ltmp408:
	#DEBUG_VALUE: capsuleCapsuleDistance:distance <- $xmm0
	.loc	2 148 16 is_stmt 1      # /home/chris/test-suite/MultiSource/Benchmarks/Bullet/btConvexConvexAlgorithm.cpp:148:16
	ucomiss	48(%rsp), %xmm0         # 4-byte Folded Reload
.Ltmp409:
	#DEBUG_VALUE: capsuleCapsuleDistance:distanceThreshold <- undef
	#DEBUG_VALUE: capsuleCapsuleDistance:capsuleLengthB <- undef
	#DEBUG_VALUE: capsuleCapsuleDistance:capsuleRadiusA <- undef
	#DEBUG_VALUE: capsuleCapsuleDistance:capsuleLengthA <- undef
	#DEBUG_VALUE: capsuleCapsuleDistance:pointOnB <- undef
	#DEBUG_VALUE: capsuleCapsuleDistance:normalOnB <- undef
	.loc	2 148 7 is_stmt 0       # /home/chris/test-suite/MultiSource/Benchmarks/Bullet/btConvexConvexAlgorithm.cpp:148:7
	jbe	.LBB15_2
.Ltmp410:
# %bb.1:
	#DEBUG_VALUE: capsuleCapsuleDistance:distance <- $xmm0
	#DEBUG_VALUE: capsuleCapsuleDistance:transformB <- $r12
	.loc	2 149 3 is_stmt 1       # /home/chris/test-suite/MultiSource/Benchmarks/Bullet/btConvexConvexAlgorithm.cpp:149:3
	jmp	.LBB15_6
.Ltmp411:
.LBB15_2:
	#DEBUG_VALUE: capsuleCapsuleDistance:distance <- $xmm0
	#DEBUG_VALUE: capsuleCapsuleDistance:transformB <- $r12
	.loc	2 0 3 is_stmt 0         # /home/chris/test-suite/MultiSource/Benchmarks/Bullet/btConvexConvexAlgorithm.cpp:0:3
	movss	%xmm0, 32(%rsp)         # 4-byte Spill
.Ltmp412:
	#DEBUG_VALUE: capsuleCapsuleDistance:distance <- [DW_OP_plus_uconst 32] [$rsp+0]
	.loc	2 151 30 is_stmt 1      # /home/chris/test-suite/MultiSource/Benchmarks/Bullet/btConvexConvexAlgorithm.cpp:151:30
	leaq	56(%rsp), %rdi
	callq	_ZNK9btVector37length2Ev
.Ltmp413:
	.loc	2 0 30 is_stmt 0        # /home/chris/test-suite/MultiSource/Benchmarks/Bullet/btConvexConvexAlgorithm.cpp:0:30
	movss	.LCPI15_0(%rip), %xmm1  # xmm1 = mem[0],zero,zero,zero
.Ltmp414:
	#DEBUG_VALUE: capsuleCapsuleDistance:lenSqr <- $xmm0
	.loc	2 152 12 is_stmt 1      # /home/chris/test-suite/MultiSource/Benchmarks/Bullet/btConvexConvexAlgorithm.cpp:152:12
	ucomiss	%xmm0, %xmm1
.Ltmp415:
	.loc	2 152 6 is_stmt 0       # /home/chris/test-suite/MultiSource/Benchmarks/Bullet/btConvexConvexAlgorithm.cpp:152:6
	jb	.LBB15_4
.Ltmp416:
# %bb.3:
	#DEBUG_VALUE: capsuleCapsuleDistance:lenSqr <- $xmm0
	#DEBUG_VALUE: capsuleCapsuleDistance:distance <- [DW_OP_plus_uconst 32] [$rsp+0]
	#DEBUG_VALUE: capsuleCapsuleDistance:transformB <- $r12
	.loc	2 155 13 is_stmt 1      # /home/chris/test-suite/MultiSource/Benchmarks/Bullet/btConvexConvexAlgorithm.cpp:155:13
	leaq	216(%rsp), %rdi
.Ltmp417:
	#DEBUG_VALUE: q <- [DW_OP_deref] $rdi
	callq	_ZN9btVector3C2Ev
.Ltmp418:
	.loc	2 156 3                 # /home/chris/test-suite/MultiSource/Benchmarks/Bullet/btConvexConvexAlgorithm.cpp:156:3
	leaq	72(%rsp), %rdi
	movq	%r15, %rsi
	leaq	216(%rsp), %rdx
	callq	_Z13btPlaneSpace1RK9btVector3RS_S2_
.Ltmp419:
	.loc	2 157 2                 # /home/chris/test-suite/MultiSource/Benchmarks/Bullet/btConvexConvexAlgorithm.cpp:157:2
	jmp	.LBB15_5
.Ltmp420:
.LBB15_4:
	#DEBUG_VALUE: capsuleCapsuleDistance:lenSqr <- $xmm0
	#DEBUG_VALUE: capsuleCapsuleDistance:distance <- [DW_OP_plus_uconst 32] [$rsp+0]
	#DEBUG_VALUE: capsuleCapsuleDistance:transformB <- $r12
	.loc	2 160 26                # /home/chris/test-suite/MultiSource/Benchmarks/Bullet/btConvexConvexAlgorithm.cpp:160:26
	callq	_Z6btSqrtf
.Ltmp421:
	.loc	2 0 26 is_stmt 0        # /home/chris/test-suite/MultiSource/Benchmarks/Bullet/btConvexConvexAlgorithm.cpp:0:26
	movss	.LCPI15_1(%rip), %xmm1  # xmm1 = mem[0],zero,zero,zero
	.loc	2 160 26                # /home/chris/test-suite/MultiSource/Benchmarks/Bullet/btConvexConvexAlgorithm.cpp:160:26
	divss	%xmm0, %xmm1
	.loc	2 160 25                # /home/chris/test-suite/MultiSource/Benchmarks/Bullet/btConvexConvexAlgorithm.cpp:160:25
	movss	%xmm1, 52(%rsp)
	leaq	56(%rsp), %rdi
	leaq	52(%rsp), %rsi
	.loc	2 160 24                # /home/chris/test-suite/MultiSource/Benchmarks/Bullet/btConvexConvexAlgorithm.cpp:160:24
	callq	_ZmlRK9btVector3RKf
.Ltmp422:
	.loc	2 160 13                # /home/chris/test-suite/MultiSource/Benchmarks/Bullet/btConvexConvexAlgorithm.cpp:160:13
	movlpd	%xmm0, (%r15)
	movlpd	%xmm1, 8(%r15)
.Ltmp423:
.LBB15_5:
	#DEBUG_VALUE: capsuleCapsuleDistance:distance <- [DW_OP_plus_uconst 32] [$rsp+0]
	#DEBUG_VALUE: capsuleCapsuleDistance:transformB <- $r12
	.loc	2 162 24 is_stmt 1      # /home/chris/test-suite/MultiSource/Benchmarks/Bullet/btConvexConvexAlgorithm.cpp:162:24
	movq	%r12, %rdi
	callq	_ZNK11btTransform9getOriginEv
.Ltmp424:
	.loc	2 0 24 is_stmt 0        # /home/chris/test-suite/MultiSource/Benchmarks/Bullet/btConvexConvexAlgorithm.cpp:0:24
	leaq	160(%rsp), %rsi
	.loc	2 162 35                # /home/chris/test-suite/MultiSource/Benchmarks/Bullet/btConvexConvexAlgorithm.cpp:162:35
	movq	%rax, %rdi
	callq	_ZplRK9btVector3S1_
.Ltmp425:
	movlpd	%xmm0, 144(%rsp)
	movlpd	%xmm1, 152(%rsp)
	leaq	28(%rsp), %rsi
	.loc	2 162 56                # /home/chris/test-suite/MultiSource/Benchmarks/Bullet/btConvexConvexAlgorithm.cpp:162:56
	movq	%r15, %rdi
	callq	_ZmlRK9btVector3RKf
.Ltmp426:
	movlpd	%xmm0, 128(%rsp)
	movlpd	%xmm1, 136(%rsp)
	leaq	144(%rsp), %rdi
	leaq	128(%rsp), %rsi
	.loc	2 162 44                # /home/chris/test-suite/MultiSource/Benchmarks/Bullet/btConvexConvexAlgorithm.cpp:162:44
	callq	_ZplRK9btVector3S1_
.Ltmp427:
	.loc	2 162 11                # /home/chris/test-suite/MultiSource/Benchmarks/Bullet/btConvexConvexAlgorithm.cpp:162:11
	movlpd	%xmm0, (%r14)
	movlpd	%xmm1, 8(%r14)
	movss	32(%rsp), %xmm0         # 4-byte Reload
                                        # xmm0 = mem[0],zero,zero,zero
.Ltmp428:
	#DEBUG_VALUE: capsuleCapsuleDistance:distance <- $xmm0
.LBB15_6:
	#DEBUG_VALUE: capsuleCapsuleDistance:distance <- $xmm0
	#DEBUG_VALUE: capsuleCapsuleDistance:transformB <- $r12
	.loc	2 165 1 is_stmt 1       # /home/chris/test-suite/MultiSource/Benchmarks/Bullet/btConvexConvexAlgorithm.cpp:165:1
	addq	$248, %rsp
	.cfi_def_cfa_offset 56
	popq	%rbx
	.cfi_def_cfa_offset 48
	popq	%r12
.Ltmp429:
	.cfi_def_cfa_offset 40
	popq	%r13
	.cfi_def_cfa_offset 32
	popq	%r14
	.cfi_def_cfa_offset 24
	popq	%r15
	.cfi_def_cfa_offset 16
	popq	%rbp
	.cfi_def_cfa_offset 8
	retq
.Ltmp430:
.Lfunc_end15:
	.size	_ZL22capsuleCapsuleDistanceR9btVector3S0_ffffiiRK11btTransformS3_f, .Lfunc_end15-_ZL22capsuleCapsuleDistanceR9btVector3S0_ffffiiRK11btTransformS3_f
	.cfi_endproc
                                        # -- End function
	.section	.text._ZNK14btCapsuleShape13getHalfHeightEv,"axG",@progbits,_ZNK14btCapsuleShape13getHalfHeightEv,comdat
	.weak	_ZNK14btCapsuleShape13getHalfHeightEv # -- Begin function _ZNK14btCapsuleShape13getHalfHeightEv
	.p2align	4, 0x90
	.type	_ZNK14btCapsuleShape13getHalfHeightEv,@function
_ZNK14btCapsuleShape13getHalfHeightEv:  # @_ZNK14btCapsuleShape13getHalfHeightEv
.Lfunc_begin16:
	.loc	35 76 0                 # /home/chris/test-suite/MultiSource/Benchmarks/Bullet/include/BulletCollision/CollisionShapes/btCapsuleShape.h:76:0
	.cfi_startproc
# %bb.0:
	pushq	%rbx
	.cfi_def_cfa_offset 16
	.cfi_offset %rbx, -16
	movq	%rdi, %rbx
.Ltmp431:
	#DEBUG_VALUE: getHalfHeight:this <- $rbx
	.loc	35 77 10 prologue_end   # /home/chris/test-suite/MultiSource/Benchmarks/Bullet/include/BulletCollision/CollisionShapes/btCapsuleShape.h:77:10
	movq	%rbx, %rdi
	addq	$40, %rdi
	callq	_ZNK9btVector3cvPKfEv
.Ltmp432:
	movslq	64(%rbx), %rcx
	movss	(%rax,%rcx,4), %xmm0    # xmm0 = mem[0],zero,zero,zero
	.loc	35 77 3 is_stmt 0       # /home/chris/test-suite/MultiSource/Benchmarks/Bullet/include/BulletCollision/CollisionShapes/btCapsuleShape.h:77:3
	popq	%rbx
.Ltmp433:
	.cfi_def_cfa_offset 8
	retq
.Ltmp434:
.Lfunc_end16:
	.size	_ZNK14btCapsuleShape13getHalfHeightEv, .Lfunc_end16-_ZNK14btCapsuleShape13getHalfHeightEv
	.cfi_endproc
                                        # -- End function
	.section	.text._ZNK14btCapsuleShape9getRadiusEv,"axG",@progbits,_ZNK14btCapsuleShape9getRadiusEv,comdat
	.weak	_ZNK14btCapsuleShape9getRadiusEv # -- Begin function _ZNK14btCapsuleShape9getRadiusEv
	.p2align	4, 0x90
	.type	_ZNK14btCapsuleShape9getRadiusEv,@function
_ZNK14btCapsuleShape9getRadiusEv:       # @_ZNK14btCapsuleShape9getRadiusEv
.Lfunc_begin17:
	.loc	35 70 0 is_stmt 1       # /home/chris/test-suite/MultiSource/Benchmarks/Bullet/include/BulletCollision/CollisionShapes/btCapsuleShape.h:70:0
	.cfi_startproc
# %bb.0:
	#DEBUG_VALUE: getRadius:this <- $rdi
	pushq	%rbx
	.cfi_def_cfa_offset 16
	.cfi_offset %rbx, -16
	.loc	35 71 21 prologue_end   # /home/chris/test-suite/MultiSource/Benchmarks/Bullet/include/BulletCollision/CollisionShapes/btCapsuleShape.h:71:21
	movl	64(%rdi), %eax
	.loc	35 71 29 is_stmt 0      # /home/chris/test-suite/MultiSource/Benchmarks/Bullet/include/BulletCollision/CollisionShapes/btCapsuleShape.h:71:29
	addl	$2, %eax
	.loc	35 71 32                # /home/chris/test-suite/MultiSource/Benchmarks/Bullet/include/BulletCollision/CollisionShapes/btCapsuleShape.h:71:32
	cltd
	movl	$3, %ecx
	idivl	%ecx
	movl	%edx, %ebx
.Ltmp435:
	#DEBUG_VALUE: getRadius:radiusAxis <- $ebx
	.loc	35 72 10 is_stmt 1      # /home/chris/test-suite/MultiSource/Benchmarks/Bullet/include/BulletCollision/CollisionShapes/btCapsuleShape.h:72:10
	addq	$40, %rdi
.Ltmp436:
	callq	_ZNK9btVector3cvPKfEv
.Ltmp437:
	movslq	%ebx, %rcx
	movss	(%rax,%rcx,4), %xmm0    # xmm0 = mem[0],zero,zero,zero
	.loc	35 72 3 is_stmt 0       # /home/chris/test-suite/MultiSource/Benchmarks/Bullet/include/BulletCollision/CollisionShapes/btCapsuleShape.h:72:3
	popq	%rbx
.Ltmp438:
	.cfi_def_cfa_offset 8
	retq
.Ltmp439:
.Lfunc_end17:
	.size	_ZNK14btCapsuleShape9getRadiusEv, .Lfunc_end17-_ZNK14btCapsuleShape9getRadiusEv
	.cfi_endproc
                                        # -- End function
	.section	.text._ZNK14btCapsuleShape9getUpAxisEv,"axG",@progbits,_ZNK14btCapsuleShape9getUpAxisEv,comdat
	.weak	_ZNK14btCapsuleShape9getUpAxisEv # -- Begin function _ZNK14btCapsuleShape9getUpAxisEv
	.p2align	4, 0x90
	.type	_ZNK14btCapsuleShape9getUpAxisEv,@function
_ZNK14btCapsuleShape9getUpAxisEv:       # @_ZNK14btCapsuleShape9getUpAxisEv
.Lfunc_begin18:
	.loc	35 65 0 is_stmt 1       # /home/chris/test-suite/MultiSource/Benchmarks/Bullet/include/BulletCollision/CollisionShapes/btCapsuleShape.h:65:0
	.cfi_startproc
# %bb.0:
	#DEBUG_VALUE: getUpAxis:this <- $rdi
	.loc	35 66 10 prologue_end   # /home/chris/test-suite/MultiSource/Benchmarks/Bullet/include/BulletCollision/CollisionShapes/btCapsuleShape.h:66:10
	movl	64(%rdi), %eax
	.loc	35 66 3 is_stmt 0       # /home/chris/test-suite/MultiSource/Benchmarks/Bullet/include/BulletCollision/CollisionShapes/btCapsuleShape.h:66:3
	retq
.Ltmp440:
.Lfunc_end18:
	.size	_ZNK14btCapsuleShape9getUpAxisEv, .Lfunc_end18-_ZNK14btCapsuleShape9getUpAxisEv
	.cfi_endproc
                                        # -- End function
	.section	.text._ZN17btCollisionObject17getWorldTransformEv,"axG",@progbits,_ZN17btCollisionObject17getWorldTransformEv,comdat
	.weak	_ZN17btCollisionObject17getWorldTransformEv # -- Begin function _ZN17btCollisionObject17getWorldTransformEv
	.p2align	4, 0x90
	.type	_ZN17btCollisionObject17getWorldTransformEv,@function
_ZN17btCollisionObject17getWorldTransformEv: # @_ZN17btCollisionObject17getWorldTransformEv
.Lfunc_begin19:
	.loc	32 262 0 is_stmt 1      # /home/chris/test-suite/MultiSource/Benchmarks/Bullet/include/BulletCollision/CollisionDispatch/btCollisionObject.h:262:0
	.cfi_startproc
# %bb.0:
	movq	%rdi, %rax
.Ltmp441:
	#DEBUG_VALUE: getWorldTransform:this <- $rax
	.loc	32 263 10 prologue_end  # /home/chris/test-suite/MultiSource/Benchmarks/Bullet/include/BulletCollision/CollisionDispatch/btCollisionObject.h:263:10
	addq	$8, %rax
.Ltmp442:
	.loc	32 263 3 is_stmt 0      # /home/chris/test-suite/MultiSource/Benchmarks/Bullet/include/BulletCollision/CollisionDispatch/btCollisionObject.h:263:3
	retq
.Ltmp443:
.Lfunc_end19:
	.size	_ZN17btCollisionObject17getWorldTransformEv, .Lfunc_end19-_ZN17btCollisionObject17getWorldTransformEv
	.cfi_endproc
                                        # -- End function
	.section	.text._ZN16btManifoldResult20refreshContactPointsEv,"axG",@progbits,_ZN16btManifoldResult20refreshContactPointsEv,comdat
	.weak	_ZN16btManifoldResult20refreshContactPointsEv # -- Begin function _ZN16btManifoldResult20refreshContactPointsEv
	.p2align	4, 0x90
	.type	_ZN16btManifoldResult20refreshContactPointsEv,@function
_ZN16btManifoldResult20refreshContactPointsEv: # @_ZN16btManifoldResult20refreshContactPointsEv
.Lfunc_begin20:
	.loc	33 98 0 is_stmt 1       # /home/chris/test-suite/MultiSource/Benchmarks/Bullet/include/BulletCollision/CollisionDispatch/btManifoldResult.h:98:0
	.cfi_startproc
# %bb.0:
	pushq	%r14
	.cfi_def_cfa_offset 16
	pushq	%rbx
	.cfi_def_cfa_offset 24
	pushq	%rax
	.cfi_def_cfa_offset 32
	.cfi_offset %rbx, -24
	.cfi_offset %r14, -16
	movq	%rdi, %r14
.Ltmp444:
	#DEBUG_VALUE: refreshContactPoints:this <- $r14
	.loc	33 100 8 prologue_end   # /home/chris/test-suite/MultiSource/Benchmarks/Bullet/include/BulletCollision/CollisionDispatch/btManifoldResult.h:100:8
	movq	%r14, %rbx
	addq	$8, %rbx
	movq	8(%r14), %rdi
	.loc	33 100 23 is_stmt 0     # /home/chris/test-suite/MultiSource/Benchmarks/Bullet/include/BulletCollision/CollisionDispatch/btManifoldResult.h:100:23
	callq	_ZNK20btPersistentManifold14getNumContactsEv
.Ltmp445:
	.loc	33 100 8                # /home/chris/test-suite/MultiSource/Benchmarks/Bullet/include/BulletCollision/CollisionDispatch/btManifoldResult.h:100:8
	cmpl	$0, %eax
.Ltmp446:
	.loc	33 100 7                # /home/chris/test-suite/MultiSource/Benchmarks/Bullet/include/BulletCollision/CollisionDispatch/btManifoldResult.h:100:7
	je	.LBB20_5
.Ltmp447:
# %bb.1:
	#DEBUG_VALUE: refreshContactPoints:this <- $r14
	.loc	33 103 20 is_stmt 1     # /home/chris/test-suite/MultiSource/Benchmarks/Bullet/include/BulletCollision/CollisionDispatch/btManifoldResult.h:103:20
	movq	(%rbx), %rdi
	.loc	33 103 35 is_stmt 0     # /home/chris/test-suite/MultiSource/Benchmarks/Bullet/include/BulletCollision/CollisionDispatch/btManifoldResult.h:103:35
	callq	_ZN20btPersistentManifold8getBody0Ev
.Ltmp448:
	.loc	33 103 49               # /home/chris/test-suite/MultiSource/Benchmarks/Bullet/include/BulletCollision/CollisionDispatch/btManifoldResult.h:103:49
	movq	144(%r14), %rcx
	.loc	33 103 46               # /home/chris/test-suite/MultiSource/Benchmarks/Bullet/include/BulletCollision/CollisionDispatch/btManifoldResult.h:103:46
	cmpq	%rcx, %rax
	setne	%al
.Ltmp449:
	.loc	33 0 0                  # /home/chris/test-suite/MultiSource/Benchmarks/Bullet/include/BulletCollision/CollisionDispatch/btManifoldResult.h:0:0
	movq	(%rbx), %rdi
.Ltmp450:
	.loc	33 105 7 is_stmt 1      # /home/chris/test-suite/MultiSource/Benchmarks/Bullet/include/BulletCollision/CollisionDispatch/btManifoldResult.h:105:7
	testb	$1, %al
	jne	.LBB20_2
	jmp	.LBB20_3
.Ltmp451:
.LBB20_2:
	#DEBUG_VALUE: refreshContactPoints:this <- $r14
	.loc	33 107 40               # /home/chris/test-suite/MultiSource/Benchmarks/Bullet/include/BulletCollision/CollisionDispatch/btManifoldResult.h:107:40
	movq	%r14, %rsi
	addq	$80, %rsi
	.loc	33 107 53 is_stmt 0     # /home/chris/test-suite/MultiSource/Benchmarks/Bullet/include/BulletCollision/CollisionDispatch/btManifoldResult.h:107:53
	addq	$16, %r14
.Ltmp452:
	.loc	33 107 19               # /home/chris/test-suite/MultiSource/Benchmarks/Bullet/include/BulletCollision/CollisionDispatch/btManifoldResult.h:107:19
	movq	%r14, %rdx
	callq	_ZN20btPersistentManifold20refreshContactPointsERK11btTransformS2_
.Ltmp453:
	.loc	33 108 3 is_stmt 1      # /home/chris/test-suite/MultiSource/Benchmarks/Bullet/include/BulletCollision/CollisionDispatch/btManifoldResult.h:108:3
	jmp	.LBB20_4
.Ltmp454:
.LBB20_3:
	#DEBUG_VALUE: refreshContactPoints:this <- $r14
	.loc	33 110 40               # /home/chris/test-suite/MultiSource/Benchmarks/Bullet/include/BulletCollision/CollisionDispatch/btManifoldResult.h:110:40
	movq	%r14, %rsi
	addq	$16, %rsi
	.loc	33 110 53 is_stmt 0     # /home/chris/test-suite/MultiSource/Benchmarks/Bullet/include/BulletCollision/CollisionDispatch/btManifoldResult.h:110:53
	addq	$80, %r14
.Ltmp455:
	.loc	33 110 19               # /home/chris/test-suite/MultiSource/Benchmarks/Bullet/include/BulletCollision/CollisionDispatch/btManifoldResult.h:110:19
	movq	%r14, %rdx
	callq	_ZN20btPersistentManifold20refreshContactPointsERK11btTransformS2_
.Ltmp456:
.LBB20_4:
	.loc	33 0 19                 # /home/chris/test-suite/MultiSource/Benchmarks/Bullet/include/BulletCollision/CollisionDispatch/btManifoldResult.h:0:19
	jmp	.LBB20_5
.LBB20_5:
	.loc	33 112 2 is_stmt 1      # /home/chris/test-suite/MultiSource/Benchmarks/Bullet/include/BulletCollision/CollisionDispatch/btManifoldResult.h:112:2
	addq	$8, %rsp
	.cfi_def_cfa_offset 24
	popq	%rbx
	.cfi_def_cfa_offset 16
	popq	%r14
	.cfi_def_cfa_offset 8
	retq
.Ltmp457:
.Lfunc_end20:
	.size	_ZN16btManifoldResult20refreshContactPointsEv, .Lfunc_end20-_ZN16btManifoldResult20refreshContactPointsEv
	.cfi_endproc
                                        # -- End function
	.section	.rodata.cst4,"aM",@progbits,4
	.p2align	2               # -- Begin function _ZN30btConvexSeparatingDistanceUtil24updateSeparatingDistanceERK11btTransformS2_
.LCPI21_0:
	.long	1065353216              # float 1
	.section	.text._ZN30btConvexSeparatingDistanceUtil24updateSeparatingDistanceERK11btTransformS2_,"axG",@progbits,_ZN30btConvexSeparatingDistanceUtil24updateSeparatingDistanceERK11btTransformS2_,comdat
	.weak	_ZN30btConvexSeparatingDistanceUtil24updateSeparatingDistanceERK11btTransformS2_
	.p2align	4, 0x90
	.type	_ZN30btConvexSeparatingDistanceUtil24updateSeparatingDistanceERK11btTransformS2_,@function
_ZN30btConvexSeparatingDistanceUtil24updateSeparatingDistanceERK11btTransformS2_: # @_ZN30btConvexSeparatingDistanceUtil24updateSeparatingDistanceERK11btTransformS2_
.Lfunc_begin21:
	.loc	25 176 0                # /home/chris/test-suite/MultiSource/Benchmarks/Bullet/include/LinearMath/btTransformUtil.h:176:0
	.cfi_startproc
# %bb.0:
	pushq	%rbp
	.cfi_def_cfa_offset 16
	pushq	%r15
	.cfi_def_cfa_offset 24
	pushq	%r14
	.cfi_def_cfa_offset 32
	pushq	%r13
	.cfi_def_cfa_offset 40
	pushq	%r12
	.cfi_def_cfa_offset 48
	pushq	%rbx
	.cfi_def_cfa_offset 56
	subq	$120, %rsp
	.cfi_def_cfa_offset 176
	.cfi_offset %rbx, -56
	.cfi_offset %r12, -48
	.cfi_offset %r13, -40
	.cfi_offset %r14, -32
	.cfi_offset %r15, -24
	.cfi_offset %rbp, -16
	movq	%rdx, %r12
	movq	%rsi, %rbp
	movq	%rdi, %rbx
.Ltmp458:
	#DEBUG_VALUE: updateSeparatingDistance:transB <- $r12
	#DEBUG_VALUE: updateSeparatingDistance:transA <- $rbp
	.loc	25 177 36 prologue_end  # /home/chris/test-suite/MultiSource/Benchmarks/Bullet/include/LinearMath/btTransformUtil.h:177:36
	movq	%rbp, %rdi
	callq	_ZNK11btTransform9getOriginEv
.Ltmp459:
	movq	%rax, %r14
.Ltmp460:
	#DEBUG_VALUE: updateSeparatingDistance:toPosA <- $r14
	.loc	25 178 36               # /home/chris/test-suite/MultiSource/Benchmarks/Bullet/include/LinearMath/btTransformUtil.h:178:36
	movq	%r12, %rdi
	callq	_ZNK11btTransform9getOriginEv
.Ltmp461:
	movq	%rax, %r15
.Ltmp462:
	#DEBUG_VALUE: updateSeparatingDistance:toPosB <- $r15
	.loc	25 179 32               # /home/chris/test-suite/MultiSource/Benchmarks/Bullet/include/LinearMath/btTransformUtil.h:179:32
	movq	%rbp, %rdi
	callq	_ZNK11btTransform11getRotationEv
.Ltmp463:
	movlpd	%xmm0, 24(%rsp)
	movlpd	%xmm1, 32(%rsp)
	leaq	8(%rsp), %rbp
.Ltmp464:
	.loc	25 180 32               # /home/chris/test-suite/MultiSource/Benchmarks/Bullet/include/LinearMath/btTransformUtil.h:180:32
	movq	%r12, %rdi
	callq	_ZNK11btTransform11getRotationEv
.Ltmp465:
	movlpd	%xmm0, 8(%rsp)
	movlpd	%xmm1, 16(%rsp)
.Ltmp466:
	.loc	25 182 7                # /home/chris/test-suite/MultiSource/Benchmarks/Bullet/include/LinearMath/btTransformUtil.h:182:7
	movq	%rbx, %r13
	addq	$88, %r13
	movss	88(%rbx), %xmm0         # xmm0 = mem[0],zero,zero,zero
	.loc	25 182 27 is_stmt 0     # /home/chris/test-suite/MultiSource/Benchmarks/Bullet/include/LinearMath/btTransformUtil.h:182:27
	xorps	%xmm1, %xmm1
	ucomiss	%xmm1, %xmm0
.Ltmp467:
	#DEBUG_VALUE: updateSeparatingDistance:this <- undef
	.loc	25 182 7                # /home/chris/test-suite/MultiSource/Benchmarks/Bullet/include/LinearMath/btTransformUtil.h:182:7
	jbe	.LBB21_4
.Ltmp468:
# %bb.1:
	#DEBUG_VALUE: updateSeparatingDistance:toPosB <- $r15
	#DEBUG_VALUE: updateSeparatingDistance:toPosA <- $r14
	#DEBUG_VALUE: updateSeparatingDistance:transB <- $r12
	.loc	25 0 7                  # /home/chris/test-suite/MultiSource/Benchmarks/Bullet/include/LinearMath/btTransformUtil.h:0:7
	leaq	56(%rsp), %rdi
.Ltmp469:
	.loc	25 186 14 is_stmt 1     # /home/chris/test-suite/MultiSource/Benchmarks/Bullet/include/LinearMath/btTransformUtil.h:186:14
	callq	_ZN9btVector3C2Ev
.Ltmp470:
	.loc	25 0 14 is_stmt 0       # /home/chris/test-suite/MultiSource/Benchmarks/Bullet/include/LinearMath/btTransformUtil.h:0:14
	leaq	88(%rsp), %rbp
	.loc	25 186 22               # /home/chris/test-suite/MultiSource/Benchmarks/Bullet/include/LinearMath/btTransformUtil.h:186:22
	movq	%rbp, %rdi
	callq	_ZN9btVector3C2Ev
.Ltmp471:
	.loc	25 0 22                 # /home/chris/test-suite/MultiSource/Benchmarks/Bullet/include/LinearMath/btTransformUtil.h:0:22
	leaq	72(%rsp), %rdi
	.loc	25 186 30               # /home/chris/test-suite/MultiSource/Benchmarks/Bullet/include/LinearMath/btTransformUtil.h:186:30
	callq	_ZN9btVector3C2Ev
.Ltmp472:
	.loc	25 0 30                 # /home/chris/test-suite/MultiSource/Benchmarks/Bullet/include/LinearMath/btTransformUtil.h:0:30
	leaq	104(%rsp), %r12
.Ltmp473:
	.loc	25 186 38               # /home/chris/test-suite/MultiSource/Benchmarks/Bullet/include/LinearMath/btTransformUtil.h:186:38
	movq	%r12, %rdi
	callq	_ZN9btVector3C2Ev
.Ltmp474:
	.loc	25 187 49 is_stmt 1     # /home/chris/test-suite/MultiSource/Benchmarks/Bullet/include/LinearMath/btTransformUtil.h:187:49
	movq	%rbx, %rdi
	addq	$32, %rdi
	leaq	24(%rsp), %rcx
	movss	.LCPI21_0(%rip), %xmm0  # xmm0 = mem[0],zero,zero,zero
	.loc	25 187 4 is_stmt 0      # /home/chris/test-suite/MultiSource/Benchmarks/Bullet/include/LinearMath/btTransformUtil.h:187:4
	movq	%r14, %rsi
	movq	%rbx, %rdx
	leaq	56(%rsp), %r8
	movq	%rbp, %r9
	callq	_ZN15btTransformUtil27calculateVelocityQuaternionERK9btVector3S2_RK12btQuaternionS5_fRS0_S6_
.Ltmp475:
	.loc	25 188 49 is_stmt 1     # /home/chris/test-suite/MultiSource/Benchmarks/Bullet/include/LinearMath/btTransformUtil.h:188:49
	movq	%rbx, %rdi
	addq	$48, %rdi
	.loc	25 188 63 is_stmt 0     # /home/chris/test-suite/MultiSource/Benchmarks/Bullet/include/LinearMath/btTransformUtil.h:188:63
	movq	%rbx, %rdx
	addq	$16, %rdx
	leaq	8(%rsp), %rcx
	.loc	25 188 4                # /home/chris/test-suite/MultiSource/Benchmarks/Bullet/include/LinearMath/btTransformUtil.h:188:4
	movq	%r15, %rsi
	movss	.LCPI21_0(%rip), %xmm0  # xmm0 = mem[0],zero,zero,zero
	leaq	72(%rsp), %r8
	movq	%r8, %rbp
	movq	%r12, %r9
	callq	_ZN15btTransformUtil27calculateVelocityQuaternionERK9btVector3S2_RK12btQuaternionS5_fRS0_S6_
.Ltmp476:
	.loc	25 189 51 is_stmt 1     # /home/chris/test-suite/MultiSource/Benchmarks/Bullet/include/LinearMath/btTransformUtil.h:189:51
	leaq	88(%rsp), %rdi
	callq	_ZNK9btVector36lengthEv
.Ltmp477:
	.loc	25 189 62 is_stmt 0     # /home/chris/test-suite/MultiSource/Benchmarks/Bullet/include/LinearMath/btTransformUtil.h:189:62
	movss	80(%rbx), %xmm1         # xmm1 = mem[0],zero,zero,zero
	.loc	25 189 60               # /home/chris/test-suite/MultiSource/Benchmarks/Bullet/include/LinearMath/btTransformUtil.h:189:60
	mulss	%xmm1, %xmm0
	movss	%xmm0, 4(%rsp)          # 4-byte Spill
	.loc	25 189 90               # /home/chris/test-suite/MultiSource/Benchmarks/Bullet/include/LinearMath/btTransformUtil.h:189:90
	movq	%r12, %rdi
	callq	_ZNK9btVector36lengthEv
.Ltmp478:
	.loc	25 189 101              # /home/chris/test-suite/MultiSource/Benchmarks/Bullet/include/LinearMath/btTransformUtil.h:189:101
	movss	84(%rbx), %xmm1         # xmm1 = mem[0],zero,zero,zero
	.loc	25 189 99               # /home/chris/test-suite/MultiSource/Benchmarks/Bullet/include/LinearMath/btTransformUtil.h:189:99
	mulss	%xmm1, %xmm0
	movss	4(%rsp), %xmm1          # 4-byte Reload
                                        # xmm1 = mem[0],zero,zero,zero
	.loc	25 189 80               # /home/chris/test-suite/MultiSource/Benchmarks/Bullet/include/LinearMath/btTransformUtil.h:189:80
	addss	%xmm0, %xmm1
.Ltmp479:
	#DEBUG_VALUE: maxAngularProjectedVelocity <- undef
	.loc	25 0 80                 # /home/chris/test-suite/MultiSource/Benchmarks/Bullet/include/LinearMath/btTransformUtil.h:0:80
	movss	%xmm1, 4(%rsp)          # 4-byte Spill
.Ltmp480:
	#DEBUG_VALUE: maxAngularProjectedVelocity <- [DW_OP_plus_uconst 4] [$rsp+0]
	#DEBUG_VALUE: maxAngularProjectedVelocity <- undef
	.loc	25 190 34 is_stmt 1     # /home/chris/test-suite/MultiSource/Benchmarks/Bullet/include/LinearMath/btTransformUtil.h:190:34
	movq	%rbp, %rdi
	movq	%rbp, %r12
	leaq	56(%rsp), %rbp
	movq	%rbp, %rsi
	callq	_ZmiRK9btVector3S1_
.Ltmp481:
	#DEBUG_VALUE: relLinVel <- [DW_OP_LLVM_fragment 64 64] undef
	#DEBUG_VALUE: relLinVel <- [DW_OP_LLVM_fragment 0 64] undef
	.loc	25 191 41               # /home/chris/test-suite/MultiSource/Benchmarks/Bullet/include/LinearMath/btTransformUtil.h:191:41
	movq	%r12, %rdi
	movq	%rbp, %rsi
	callq	_ZmiRK9btVector3S1_
.Ltmp482:
	movlpd	%xmm0, 40(%rsp)
	movlpd	%xmm1, 48(%rsp)
	.loc	25 191 55 is_stmt 0     # /home/chris/test-suite/MultiSource/Benchmarks/Bullet/include/LinearMath/btTransformUtil.h:191:55
	movq	%rbx, %rsi
	addq	$64, %rsi
	.loc	25 191 51               # /home/chris/test-suite/MultiSource/Benchmarks/Bullet/include/LinearMath/btTransformUtil.h:191:51
	leaq	40(%rsp), %rdi
	callq	_ZNK9btVector33dotERKS_
.Ltmp483:
	#DEBUG_VALUE: relLinVelocLength <- $xmm0
	.loc	25 192 25 is_stmt 1     # /home/chris/test-suite/MultiSource/Benchmarks/Bullet/include/LinearMath/btTransformUtil.h:192:25
	xorps	%xmm1, %xmm1
	ucomiss	%xmm0, %xmm1
.Ltmp484:
	.loc	25 192 8 is_stmt 0      # /home/chris/test-suite/MultiSource/Benchmarks/Bullet/include/LinearMath/btTransformUtil.h:192:8
	jbe	.LBB21_3
.Ltmp485:
# %bb.2:
	#DEBUG_VALUE: relLinVelocLength <- $xmm0
	#DEBUG_VALUE: maxAngularProjectedVelocity <- [DW_OP_plus_uconst 4] [$rsp+0]
	#DEBUG_VALUE: updateSeparatingDistance:toPosB <- $r15
	#DEBUG_VALUE: updateSeparatingDistance:toPosA <- $r14
	#DEBUG_VALUE: relLinVelocLength <- 0.000000e+00
	.loc	25 195 4 is_stmt 1      # /home/chris/test-suite/MultiSource/Benchmarks/Bullet/include/LinearMath/btTransformUtil.h:195:4
	xorps	%xmm0, %xmm0
	jmp	.LBB21_3
.Ltmp486:
.LBB21_3:
	#DEBUG_VALUE: maxAngularProjectedVelocity <- [DW_OP_plus_uconst 4] [$rsp+0]
	#DEBUG_VALUE: updateSeparatingDistance:toPosB <- $r15
	#DEBUG_VALUE: updateSeparatingDistance:toPosA <- $r14
	#DEBUG_VALUE: relLinVelocLength <- $xmm0
	.loc	25 0 4 is_stmt 0        # /home/chris/test-suite/MultiSource/Benchmarks/Bullet/include/LinearMath/btTransformUtil.h:0:4
	movss	4(%rsp), %xmm1          # 4-byte Reload
                                        # xmm1 = mem[0],zero,zero,zero
	.loc	25 197 59 is_stmt 1     # /home/chris/test-suite/MultiSource/Benchmarks/Bullet/include/LinearMath/btTransformUtil.h:197:59
	addss	%xmm0, %xmm1
.Ltmp487:
	#DEBUG_VALUE: projectedMotion <- $xmm1
	.loc	25 198 25               # /home/chris/test-suite/MultiSource/Benchmarks/Bullet/include/LinearMath/btTransformUtil.h:198:25
	movss	(%r13), %xmm0           # xmm0 = mem[0],zero,zero,zero
.Ltmp488:
	subss	%xmm1, %xmm0
	movss	%xmm0, (%r13)
	leaq	8(%rsp), %rbp
.Ltmp489:
.LBB21_4:
	#DEBUG_VALUE: updateSeparatingDistance:toPosB <- $r15
	#DEBUG_VALUE: updateSeparatingDistance:toPosA <- $r14
	.loc	25 201 10               # /home/chris/test-suite/MultiSource/Benchmarks/Bullet/include/LinearMath/btTransformUtil.h:201:10
	movq	(%r14), %rax
	movq	%rax, 32(%rbx)
	movq	8(%r14), %rax
	movq	%rax, 40(%rbx)
	.loc	25 202 10               # /home/chris/test-suite/MultiSource/Benchmarks/Bullet/include/LinearMath/btTransformUtil.h:202:10
	movq	(%r15), %rax
	movq	%rax, 48(%rbx)
	movq	8(%r15), %rax
	movq	%rax, 56(%rbx)
	leaq	24(%rsp), %rax
	movq	%rax, %rcx
	.loc	25 203 10               # /home/chris/test-suite/MultiSource/Benchmarks/Bullet/include/LinearMath/btTransformUtil.h:203:10
	movq	(%rcx), %rax
	movq	%rax, (%rbx)
	movq	8(%rcx), %rax
	movq	%rax, 8(%rbx)
	.loc	25 204 10               # /home/chris/test-suite/MultiSource/Benchmarks/Bullet/include/LinearMath/btTransformUtil.h:204:10
	movq	(%rbp), %rax
	movq	%rax, 16(%rbx)
	movq	8(%rbp), %rax
	movq	%rax, 24(%rbx)
	.loc	25 205 2                # /home/chris/test-suite/MultiSource/Benchmarks/Bullet/include/LinearMath/btTransformUtil.h:205:2
	addq	$120, %rsp
	.cfi_def_cfa_offset 56
	popq	%rbx
	.cfi_def_cfa_offset 48
	popq	%r12
	.cfi_def_cfa_offset 40
	popq	%r13
	.cfi_def_cfa_offset 32
	popq	%r14
.Ltmp490:
	.cfi_def_cfa_offset 24
	popq	%r15
.Ltmp491:
	.cfi_def_cfa_offset 16
	popq	%rbp
	.cfi_def_cfa_offset 8
	retq
.Ltmp492:
.Lfunc_end21:
	.size	_ZN30btConvexSeparatingDistanceUtil24updateSeparatingDistanceERK11btTransformS2_, .Lfunc_end21-_ZN30btConvexSeparatingDistanceUtil24updateSeparatingDistanceERK11btTransformS2_
	.cfi_endproc
                                        # -- End function
	.section	.text._ZN30btConvexSeparatingDistanceUtil33getConservativeSeparatingDistanceEv,"axG",@progbits,_ZN30btConvexSeparatingDistanceUtil33getConservativeSeparatingDistanceEv,comdat
	.weak	_ZN30btConvexSeparatingDistanceUtil33getConservativeSeparatingDistanceEv # -- Begin function _ZN30btConvexSeparatingDistanceUtil33getConservativeSeparatingDistanceEv
	.p2align	4, 0x90
	.type	_ZN30btConvexSeparatingDistanceUtil33getConservativeSeparatingDistanceEv,@function
_ZN30btConvexSeparatingDistanceUtil33getConservativeSeparatingDistanceEv: # @_ZN30btConvexSeparatingDistanceUtil33getConservativeSeparatingDistanceEv
.Lfunc_begin22:
	.loc	25 171 0                # /home/chris/test-suite/MultiSource/Benchmarks/Bullet/include/LinearMath/btTransformUtil.h:171:0
	.cfi_startproc
# %bb.0:
	#DEBUG_VALUE: getConservativeSeparatingDistance:this <- $rdi
	.loc	25 172 10 prologue_end  # /home/chris/test-suite/MultiSource/Benchmarks/Bullet/include/LinearMath/btTransformUtil.h:172:10
	movss	88(%rdi), %xmm0         # xmm0 = mem[0],zero,zero,zero
	.loc	25 172 3 is_stmt 0      # /home/chris/test-suite/MultiSource/Benchmarks/Bullet/include/LinearMath/btTransformUtil.h:172:3
	retq
.Ltmp493:
.Lfunc_end22:
	.size	_ZN30btConvexSeparatingDistanceUtil33getConservativeSeparatingDistanceEv, .Lfunc_end22-_ZN30btConvexSeparatingDistanceUtil33getConservativeSeparatingDistanceEv
	.cfi_endproc
                                        # -- End function
	.section	.rodata.cst4,"aM",@progbits,4
	.p2align	2               # -- Begin function _ZN36btDiscreteCollisionDetectorInterface17ClosestPointInputC2Ev
.LCPI23_0:
	.long	1566444395              # float 9.99999984E+17
	.section	.text._ZN36btDiscreteCollisionDetectorInterface17ClosestPointInputC2Ev,"axG",@progbits,_ZN36btDiscreteCollisionDetectorInterface17ClosestPointInputC2Ev,comdat
	.weak	_ZN36btDiscreteCollisionDetectorInterface17ClosestPointInputC2Ev
	.p2align	4, 0x90
	.type	_ZN36btDiscreteCollisionDetectorInterface17ClosestPointInputC2Ev,@function
_ZN36btDiscreteCollisionDetectorInterface17ClosestPointInputC2Ev: # @_ZN36btDiscreteCollisionDetectorInterface17ClosestPointInputC2Ev
.Lfunc_begin23:
	.loc	36 47 0 is_stmt 1       # /home/chris/test-suite/MultiSource/Benchmarks/Bullet/include/BulletCollision/NarrowPhaseCollision/btDiscreteCollisionDetectorInterface.h:47:0
	.cfi_startproc
# %bb.0:
	pushq	%rbx
	.cfi_def_cfa_offset 16
	.cfi_offset %rbx, -16
	movq	%rdi, %rbx
.Ltmp494:
	#DEBUG_VALUE: ClosestPointInput:this <- $rbx
	.loc	36 44 3 prologue_end    # /home/chris/test-suite/MultiSource/Benchmarks/Bullet/include/BulletCollision/NarrowPhaseCollision/btDiscreteCollisionDetectorInterface.h:44:3
	movq	%rbx, %rdi
	callq	_ZN11btTransformC2Ev
.Ltmp495:
	movq	%rbx, %rdi
	addq	$64, %rdi
	callq	_ZN11btTransformC2Ev
.Ltmp496:
	.loc	36 0 3 is_stmt 0        # /home/chris/test-suite/MultiSource/Benchmarks/Bullet/include/BulletCollision/NarrowPhaseCollision/btDiscreteCollisionDetectorInterface.h:0:3
	movss	.LCPI23_0(%rip), %xmm0  # xmm0 = mem[0],zero,zero,zero
	.loc	36 45 5 is_stmt 1       # /home/chris/test-suite/MultiSource/Benchmarks/Bullet/include/BulletCollision/NarrowPhaseCollision/btDiscreteCollisionDetectorInterface.h:45:5
	movss	%xmm0, 128(%rbx)
	.loc	36 46 4                 # /home/chris/test-suite/MultiSource/Benchmarks/Bullet/include/BulletCollision/NarrowPhaseCollision/btDiscreteCollisionDetectorInterface.h:46:4
	movq	$0, 136(%rbx)
	.loc	36 48 3                 # /home/chris/test-suite/MultiSource/Benchmarks/Bullet/include/BulletCollision/NarrowPhaseCollision/btDiscreteCollisionDetectorInterface.h:48:3
	popq	%rbx
.Ltmp497:
	.cfi_def_cfa_offset 8
	retq
.Ltmp498:
.Lfunc_end23:
	.size	_ZN36btDiscreteCollisionDetectorInterface17ClosestPointInputC2Ev, .Lfunc_end23-_ZN36btDiscreteCollisionDetectorInterface17ClosestPointInputC2Ev
	.cfi_endproc
                                        # -- End function
	.section	.text._ZN17btGjkPairDetector13setMinkowskiAEP13btConvexShape,"axG",@progbits,_ZN17btGjkPairDetector13setMinkowskiAEP13btConvexShape,comdat
	.weak	_ZN17btGjkPairDetector13setMinkowskiAEP13btConvexShape # -- Begin function _ZN17btGjkPairDetector13setMinkowskiAEP13btConvexShape
	.p2align	4, 0x90
	.type	_ZN17btGjkPairDetector13setMinkowskiAEP13btConvexShape,@function
_ZN17btGjkPairDetector13setMinkowskiAEP13btConvexShape: # @_ZN17btGjkPairDetector13setMinkowskiAEP13btConvexShape
.Lfunc_begin24:
	.loc	37 67 0                 # /home/chris/test-suite/MultiSource/Benchmarks/Bullet/include/BulletCollision/NarrowPhaseCollision/btGjkPairDetector.h:67:0
	.cfi_startproc
# %bb.0:
	#DEBUG_VALUE: setMinkowskiA:this <- $rdi
	#DEBUG_VALUE: setMinkowskiA:minkA <- $rsi
	.loc	37 68 16 prologue_end   # /home/chris/test-suite/MultiSource/Benchmarks/Bullet/include/BulletCollision/NarrowPhaseCollision/btGjkPairDetector.h:68:16
	movq	%rsi, 40(%rdi)
	.loc	37 69 2                 # /home/chris/test-suite/MultiSource/Benchmarks/Bullet/include/BulletCollision/NarrowPhaseCollision/btGjkPairDetector.h:69:2
	retq
.Ltmp499:
.Lfunc_end24:
	.size	_ZN17btGjkPairDetector13setMinkowskiAEP13btConvexShape, .Lfunc_end24-_ZN17btGjkPairDetector13setMinkowskiAEP13btConvexShape
	.cfi_endproc
                                        # -- End function
	.section	.text._ZN17btGjkPairDetector13setMinkowskiBEP13btConvexShape,"axG",@progbits,_ZN17btGjkPairDetector13setMinkowskiBEP13btConvexShape,comdat
	.weak	_ZN17btGjkPairDetector13setMinkowskiBEP13btConvexShape # -- Begin function _ZN17btGjkPairDetector13setMinkowskiBEP13btConvexShape
	.p2align	4, 0x90
	.type	_ZN17btGjkPairDetector13setMinkowskiBEP13btConvexShape,@function
_ZN17btGjkPairDetector13setMinkowskiBEP13btConvexShape: # @_ZN17btGjkPairDetector13setMinkowskiBEP13btConvexShape
.Lfunc_begin25:
	.loc	37 72 0                 # /home/chris/test-suite/MultiSource/Benchmarks/Bullet/include/BulletCollision/NarrowPhaseCollision/btGjkPairDetector.h:72:0
	.cfi_startproc
# %bb.0:
	#DEBUG_VALUE: setMinkowskiB:this <- $rdi
	#DEBUG_VALUE: setMinkowskiB:minkB <- $rsi
	.loc	37 73 16 prologue_end   # /home/chris/test-suite/MultiSource/Benchmarks/Bullet/include/BulletCollision/NarrowPhaseCollision/btGjkPairDetector.h:73:16
	movq	%rsi, 48(%rdi)
	.loc	37 74 2                 # /home/chris/test-suite/MultiSource/Benchmarks/Bullet/include/BulletCollision/NarrowPhaseCollision/btGjkPairDetector.h:74:2
	retq
.Ltmp500:
.Lfunc_end25:
	.size	_ZN17btGjkPairDetector13setMinkowskiBEP13btConvexShape, .Lfunc_end25-_ZN17btGjkPairDetector13setMinkowskiBEP13btConvexShape
	.cfi_endproc
                                        # -- End function
	.section	.text._ZN11btTransformaSERKS_,"axG",@progbits,_ZN11btTransformaSERKS_,comdat
	.weak	_ZN11btTransformaSERKS_ # -- Begin function _ZN11btTransformaSERKS_
	.p2align	4, 0x90
	.type	_ZN11btTransformaSERKS_,@function
_ZN11btTransformaSERKS_:                # @_ZN11btTransformaSERKS_
.Lfunc_begin26:
	.loc	12 58 0                 # /home/chris/test-suite/MultiSource/Benchmarks/Bullet/include/LinearMath/btTransform.h:58:0
	.cfi_startproc
# %bb.0:
	pushq	%r14
	.cfi_def_cfa_offset 16
	pushq	%rbx
	.cfi_def_cfa_offset 24
	pushq	%rax
	.cfi_def_cfa_offset 32
	.cfi_offset %rbx, -24
	.cfi_offset %r14, -16
	movq	%rsi, %r14
	movq	%rdi, %rbx
.Ltmp501:
	#DEBUG_VALUE: operator=:other <- $r14
	#DEBUG_VALUE: operator=:this <- $rbx
	.loc	12 59 11 prologue_end   # /home/chris/test-suite/MultiSource/Benchmarks/Bullet/include/LinearMath/btTransform.h:59:11
	movq	%rbx, %rdi
	movq	%r14, %rsi
	callq	_ZN11btMatrix3x3aSERKS_
.Ltmp502:
	.loc	12 60 12                # /home/chris/test-suite/MultiSource/Benchmarks/Bullet/include/LinearMath/btTransform.h:60:12
	movq	48(%r14), %rax
	movq	%rax, 48(%rbx)
	movq	56(%r14), %rax
	movq	%rax, 56(%rbx)
	.loc	12 61 3                 # /home/chris/test-suite/MultiSource/Benchmarks/Bullet/include/LinearMath/btTransform.h:61:3
	movq	%rbx, %rax
	addq	$8, %rsp
	.cfi_def_cfa_offset 24
	popq	%rbx
.Ltmp503:
	.cfi_def_cfa_offset 16
	popq	%r14
.Ltmp504:
	.cfi_def_cfa_offset 8
	retq
.Ltmp505:
.Lfunc_end26:
	.size	_ZN11btTransformaSERKS_, .Lfunc_end26-_ZN11btTransformaSERKS_
	.cfi_endproc
                                        # -- End function
	.section	.text._ZNK17btGjkPairDetector27getCachedSeparatingDistanceEv,"axG",@progbits,_ZNK17btGjkPairDetector27getCachedSeparatingDistanceEv,comdat
	.weak	_ZNK17btGjkPairDetector27getCachedSeparatingDistanceEv # -- Begin function _ZNK17btGjkPairDetector27getCachedSeparatingDistanceEv
	.p2align	4, 0x90
	.type	_ZNK17btGjkPairDetector27getCachedSeparatingDistanceEv,@function
_ZNK17btGjkPairDetector27getCachedSeparatingDistanceEv: # @_ZNK17btGjkPairDetector27getCachedSeparatingDistanceEv
.Lfunc_begin27:
	.loc	37 85 0                 # /home/chris/test-suite/MultiSource/Benchmarks/Bullet/include/BulletCollision/NarrowPhaseCollision/btGjkPairDetector.h:85:0
	.cfi_startproc
# %bb.0:
	#DEBUG_VALUE: getCachedSeparatingDistance:this <- $rdi
	.loc	37 86 10 prologue_end   # /home/chris/test-suite/MultiSource/Benchmarks/Bullet/include/BulletCollision/NarrowPhaseCollision/btGjkPairDetector.h:86:10
	movss	76(%rdi), %xmm0         # xmm0 = mem[0],zero,zero,zero
	.loc	37 86 3 is_stmt 0       # /home/chris/test-suite/MultiSource/Benchmarks/Bullet/include/BulletCollision/NarrowPhaseCollision/btGjkPairDetector.h:86:3
	retq
.Ltmp506:
.Lfunc_end27:
	.size	_ZNK17btGjkPairDetector27getCachedSeparatingDistanceEv, .Lfunc_end27-_ZNK17btGjkPairDetector27getCachedSeparatingDistanceEv
	.cfi_endproc
                                        # -- End function
	.section	.text._ZNK17btGjkPairDetector23getCachedSeparatingAxisEv,"axG",@progbits,_ZNK17btGjkPairDetector23getCachedSeparatingAxisEv,comdat
	.weak	_ZNK17btGjkPairDetector23getCachedSeparatingAxisEv # -- Begin function _ZNK17btGjkPairDetector23getCachedSeparatingAxisEv
	.p2align	4, 0x90
	.type	_ZNK17btGjkPairDetector23getCachedSeparatingAxisEv,@function
_ZNK17btGjkPairDetector23getCachedSeparatingAxisEv: # @_ZNK17btGjkPairDetector23getCachedSeparatingAxisEv
.Lfunc_begin28:
	.loc	37 81 0 is_stmt 1       # /home/chris/test-suite/MultiSource/Benchmarks/Bullet/include/BulletCollision/NarrowPhaseCollision/btGjkPairDetector.h:81:0
	.cfi_startproc
# %bb.0:
	movq	%rdi, %rax
.Ltmp507:
	#DEBUG_VALUE: getCachedSeparatingAxis:this <- $rax
	.loc	37 82 10 prologue_end   # /home/chris/test-suite/MultiSource/Benchmarks/Bullet/include/BulletCollision/NarrowPhaseCollision/btGjkPairDetector.h:82:10
	addq	$8, %rax
.Ltmp508:
	.loc	37 82 3 is_stmt 0       # /home/chris/test-suite/MultiSource/Benchmarks/Bullet/include/BulletCollision/NarrowPhaseCollision/btGjkPairDetector.h:82:3
	retq
.Ltmp509:
.Lfunc_end28:
	.size	_ZNK17btGjkPairDetector23getCachedSeparatingAxisEv, .Lfunc_end28-_ZNK17btGjkPairDetector23getCachedSeparatingAxisEv
	.cfi_endproc
                                        # -- End function
	.section	.text._ZNK9btVector310normalizedEv,"axG",@progbits,_ZNK9btVector310normalizedEv,comdat
	.weak	_ZNK9btVector310normalizedEv # -- Begin function _ZNK9btVector310normalizedEv
	.p2align	4, 0x90
	.type	_ZNK9btVector310normalizedEv,@function
_ZNK9btVector310normalizedEv:           # @_ZNK9btVector310normalizedEv
.Lfunc_begin29:
	.loc	5 445 0 is_stmt 1       # /home/chris/test-suite/MultiSource/Benchmarks/Bullet/include/LinearMath/btVector3.h:445:0
	.cfi_startproc
# %bb.0:
	pushq	%rbx
	.cfi_def_cfa_offset 16
	subq	$16, %rsp
	.cfi_def_cfa_offset 32
	.cfi_offset %rbx, -16
	movq	%rdi, %rbx
.Ltmp510:
	#DEBUG_VALUE: normalized:this <- $rbx
	.loc	5 446 17 prologue_end   # /home/chris/test-suite/MultiSource/Benchmarks/Bullet/include/LinearMath/btVector3.h:446:17
	movq	%rbx, %rdi
	callq	_ZNK9btVector36lengthEv
.Ltmp511:
	movss	%xmm0, 12(%rsp)
	leaq	12(%rsp), %rsi
	.loc	5 446 15 is_stmt 0      # /home/chris/test-suite/MultiSource/Benchmarks/Bullet/include/LinearMath/btVector3.h:446:15
	movq	%rbx, %rdi
	callq	_ZdvRK9btVector3RKf
.Ltmp512:
	.loc	5 446 2                 # /home/chris/test-suite/MultiSource/Benchmarks/Bullet/include/LinearMath/btVector3.h:446:2
	addq	$16, %rsp
	.cfi_def_cfa_offset 16
	popq	%rbx
.Ltmp513:
	.cfi_def_cfa_offset 8
	retq
.Ltmp514:
.Lfunc_end29:
	.size	_ZNK9btVector310normalizedEv, .Lfunc_end29-_ZNK9btVector310normalizedEv
	.cfi_endproc
                                        # -- End function
	.section	.rodata.cst4,"aM",@progbits,4
	.p2align	2               # -- Begin function _Z13btPlaneSpace1RK9btVector3RS_S2_
.LCPI30_0:
	.long	1060439283              # float 0.707106769
.LCPI30_1:
	.long	1065353216              # float 1
	.section	.text._Z13btPlaneSpace1RK9btVector3RS_S2_,"axG",@progbits,_Z13btPlaneSpace1RK9btVector3RS_S2_,comdat
	.weak	_Z13btPlaneSpace1RK9btVector3RS_S2_
	.p2align	4, 0x90
	.type	_Z13btPlaneSpace1RK9btVector3RS_S2_,@function
_Z13btPlaneSpace1RK9btVector3RS_S2_:    # @_Z13btPlaneSpace1RK9btVector3RS_S2_
.Lfunc_begin30:
	.loc	5 641 0 is_stmt 1       # /home/chris/test-suite/MultiSource/Benchmarks/Bullet/include/LinearMath/btVector3.h:641:0
	.cfi_startproc
# %bb.0:
	pushq	%r15
	.cfi_def_cfa_offset 16
	pushq	%r14
	.cfi_def_cfa_offset 24
	pushq	%rbx
	.cfi_def_cfa_offset 32
	subq	$96, %rsp
	.cfi_def_cfa_offset 128
	.cfi_offset %rbx, -32
	.cfi_offset %r14, -24
	.cfi_offset %r15, -16
	movq	%rdx, %r14
	movq	%rsi, %r15
	movq	%rdi, %rbx
.Ltmp515:
	#DEBUG_VALUE: btPlaneSpace1:q <- $r14
	#DEBUG_VALUE: btPlaneSpace1:p <- $r15
	#DEBUG_VALUE: btPlaneSpace1:n <- $rbx
	.loc	5 642 16 prologue_end   # /home/chris/test-suite/MultiSource/Benchmarks/Bullet/include/LinearMath/btVector3.h:642:16
	movq	%rbx, %rdi
	callq	_ZNK9btVector31zEv
.Ltmp516:
	movss	(%rax), %xmm0           # xmm0 = mem[0],zero,zero,zero
	.loc	5 642 7 is_stmt 0       # /home/chris/test-suite/MultiSource/Benchmarks/Bullet/include/LinearMath/btVector3.h:642:7
	callq	_Z6btFabsf
.Ltmp517:
	.loc	5 0 7                   # /home/chris/test-suite/MultiSource/Benchmarks/Bullet/include/LinearMath/btVector3.h:0:7
	movss	.LCPI30_0(%rip), %xmm1  # xmm1 = mem[0],zero,zero,zero
	.loc	5 642 21                # /home/chris/test-suite/MultiSource/Benchmarks/Bullet/include/LinearMath/btVector3.h:642:21
	ucomiss	%xmm1, %xmm0
.Ltmp518:
	.loc	5 642 7                 # /home/chris/test-suite/MultiSource/Benchmarks/Bullet/include/LinearMath/btVector3.h:642:7
	jbe	.LBB30_2
.Ltmp519:
# %bb.1:
	#DEBUG_VALUE: btPlaneSpace1:n <- $rbx
	#DEBUG_VALUE: btPlaneSpace1:p <- $r15
	#DEBUG_VALUE: btPlaneSpace1:q <- $r14
	.loc	5 644 18 is_stmt 1      # /home/chris/test-suite/MultiSource/Benchmarks/Bullet/include/LinearMath/btVector3.h:644:18
	movq	%rbx, %rdi
	callq	_ZNK9btVector3cvPKfEv
.Ltmp520:
	movss	4(%rax), %xmm0          # xmm0 = mem[0],zero,zero,zero
	movss	%xmm0, 8(%rsp)          # 4-byte Spill
	.loc	5 644 23 is_stmt 0      # /home/chris/test-suite/MultiSource/Benchmarks/Bullet/include/LinearMath/btVector3.h:644:23
	movq	%rbx, %rdi
	callq	_ZNK9btVector3cvPKfEv
.Ltmp521:
	.loc	5 0 23                  # /home/chris/test-suite/MultiSource/Benchmarks/Bullet/include/LinearMath/btVector3.h:0:23
	movss	8(%rsp), %xmm0          # 4-byte Reload
                                        # xmm0 = mem[0],zero,zero,zero
	.loc	5 644 22                # /home/chris/test-suite/MultiSource/Benchmarks/Bullet/include/LinearMath/btVector3.h:644:22
	mulss	4(%rax), %xmm0
	movss	%xmm0, 8(%rsp)          # 4-byte Spill
	.loc	5 644 30                # /home/chris/test-suite/MultiSource/Benchmarks/Bullet/include/LinearMath/btVector3.h:644:30
	movq	%rbx, %rdi
	callq	_ZNK9btVector3cvPKfEv
.Ltmp522:
	movss	8(%rax), %xmm0          # xmm0 = mem[0],zero,zero,zero
	movss	%xmm0, 40(%rsp)         # 4-byte Spill
	.loc	5 644 35                # /home/chris/test-suite/MultiSource/Benchmarks/Bullet/include/LinearMath/btVector3.h:644:35
	movq	%rbx, %rdi
	callq	_ZNK9btVector3cvPKfEv
.Ltmp523:
	.loc	5 0 35                  # /home/chris/test-suite/MultiSource/Benchmarks/Bullet/include/LinearMath/btVector3.h:0:35
	movss	40(%rsp), %xmm1         # 4-byte Reload
                                        # xmm1 = mem[0],zero,zero,zero
	.loc	5 644 34                # /home/chris/test-suite/MultiSource/Benchmarks/Bullet/include/LinearMath/btVector3.h:644:34
	mulss	8(%rax), %xmm1
	movss	8(%rsp), %xmm0          # 4-byte Reload
                                        # xmm0 = mem[0],zero,zero,zero
	.loc	5 644 28                # /home/chris/test-suite/MultiSource/Benchmarks/Bullet/include/LinearMath/btVector3.h:644:28
	addss	%xmm1, %xmm0
.Ltmp524:
	#DEBUG_VALUE: a <- $xmm0
	.loc	5 0 28                  # /home/chris/test-suite/MultiSource/Benchmarks/Bullet/include/LinearMath/btVector3.h:0:28
	movss	%xmm0, 8(%rsp)          # 4-byte Spill
.Ltmp525:
	#DEBUG_VALUE: a <- [DW_OP_plus_uconst 8] [$rsp+0]
	.loc	5 645 18 is_stmt 1      # /home/chris/test-suite/MultiSource/Benchmarks/Bullet/include/LinearMath/btVector3.h:645:18
	callq	_Z6btSqrtf
.Ltmp526:
	.loc	5 0 18 is_stmt 0        # /home/chris/test-suite/MultiSource/Benchmarks/Bullet/include/LinearMath/btVector3.h:0:18
	movss	.LCPI30_1(%rip), %xmm1  # xmm1 = mem[0],zero,zero,zero
	.loc	5 645 18                # /home/chris/test-suite/MultiSource/Benchmarks/Bullet/include/LinearMath/btVector3.h:645:18
	divss	%xmm0, %xmm1
.Ltmp527:
	#DEBUG_VALUE: k <- $xmm1
	.loc	5 0 18                  # /home/chris/test-suite/MultiSource/Benchmarks/Bullet/include/LinearMath/btVector3.h:0:18
	movss	%xmm1, 16(%rsp)         # 4-byte Spill
.Ltmp528:
	#DEBUG_VALUE: k <- [DW_OP_plus_uconst 16] [$rsp+0]
	#DEBUG_VALUE: k <- [DW_OP_plus_uconst 16] [$rsp+0]
	.loc	5 646 16 is_stmt 1      # /home/chris/test-suite/MultiSource/Benchmarks/Bullet/include/LinearMath/btVector3.h:646:16
	xorps	%xmm0, %xmm0
	movss	%xmm0, 92(%rsp)
	.loc	5 646 19 is_stmt 0      # /home/chris/test-suite/MultiSource/Benchmarks/Bullet/include/LinearMath/btVector3.h:646:19
	movq	%rbx, %rdi
	callq	_ZNK9btVector3cvPKfEv
.Ltmp529:
	movss	8(%rax), %xmm0          # xmm0 = mem[0],zero,zero,zero
	.loc	5 646 18                # /home/chris/test-suite/MultiSource/Benchmarks/Bullet/include/LinearMath/btVector3.h:646:18
	movd	%xmm0, %eax
	xorl	$2147483648, %eax       # imm = 0x80000000
	movd	%eax, %xmm0
	.loc	5 646 23                # /home/chris/test-suite/MultiSource/Benchmarks/Bullet/include/LinearMath/btVector3.h:646:23
	mulss	16(%rsp), %xmm0         # 4-byte Folded Reload
	.loc	5 646 18                # /home/chris/test-suite/MultiSource/Benchmarks/Bullet/include/LinearMath/btVector3.h:646:18
	movss	%xmm0, 88(%rsp)
	.loc	5 646 26                # /home/chris/test-suite/MultiSource/Benchmarks/Bullet/include/LinearMath/btVector3.h:646:26
	movq	%rbx, %rdi
	callq	_ZNK9btVector3cvPKfEv
.Ltmp530:
	.loc	5 0 26                  # /home/chris/test-suite/MultiSource/Benchmarks/Bullet/include/LinearMath/btVector3.h:0:26
	movss	16(%rsp), %xmm0         # 4-byte Reload
                                        # xmm0 = mem[0],zero,zero,zero
	.loc	5 646 30                # /home/chris/test-suite/MultiSource/Benchmarks/Bullet/include/LinearMath/btVector3.h:646:30
	mulss	4(%rax), %xmm0
	.loc	5 646 26                # /home/chris/test-suite/MultiSource/Benchmarks/Bullet/include/LinearMath/btVector3.h:646:26
	movss	%xmm0, 84(%rsp)
	.loc	5 646 7                 # /home/chris/test-suite/MultiSource/Benchmarks/Bullet/include/LinearMath/btVector3.h:646:7
	movq	%r15, %rdi
	leaq	92(%rsp), %rsi
	leaq	88(%rsp), %rdx
	leaq	84(%rsp), %rcx
	callq	_ZN9btVector38setValueERKfS1_S1_
.Ltmp531:
	.loc	5 0 7                   # /home/chris/test-suite/MultiSource/Benchmarks/Bullet/include/LinearMath/btVector3.h:0:7
	movss	8(%rsp), %xmm0          # 4-byte Reload
                                        # xmm0 = mem[0],zero,zero,zero
.Ltmp532:
	#DEBUG_VALUE: a <- $xmm0
	.loc	5 648 17 is_stmt 1      # /home/chris/test-suite/MultiSource/Benchmarks/Bullet/include/LinearMath/btVector3.h:648:17
	mulss	16(%rsp), %xmm0         # 4-byte Folded Reload
.Ltmp533:
	.loc	5 648 16 is_stmt 0      # /home/chris/test-suite/MultiSource/Benchmarks/Bullet/include/LinearMath/btVector3.h:648:16
	movss	%xmm0, 80(%rsp)
	.loc	5 648 21                # /home/chris/test-suite/MultiSource/Benchmarks/Bullet/include/LinearMath/btVector3.h:648:21
	movq	%rbx, %rdi
	callq	_ZNK9btVector3cvPKfEv
.Ltmp534:
	movss	(%rax), %xmm0           # xmm0 = mem[0],zero,zero,zero
	.loc	5 648 20                # /home/chris/test-suite/MultiSource/Benchmarks/Bullet/include/LinearMath/btVector3.h:648:20
	movd	%xmm0, %eax
	xorl	$2147483648, %eax       # imm = 0x80000000
	movd	%eax, %xmm0
	movss	%xmm0, 24(%rsp)         # 4-byte Spill
	.loc	5 648 26                # /home/chris/test-suite/MultiSource/Benchmarks/Bullet/include/LinearMath/btVector3.h:648:26
	movq	%r15, %rdi
	callq	_ZN9btVector3cvPfEv
.Ltmp535:
	.loc	5 0 26                  # /home/chris/test-suite/MultiSource/Benchmarks/Bullet/include/LinearMath/btVector3.h:0:26
	movss	24(%rsp), %xmm0         # 4-byte Reload
                                        # xmm0 = mem[0],zero,zero,zero
	.loc	5 648 25                # /home/chris/test-suite/MultiSource/Benchmarks/Bullet/include/LinearMath/btVector3.h:648:25
	mulss	8(%rax), %xmm0
	.loc	5 648 20                # /home/chris/test-suite/MultiSource/Benchmarks/Bullet/include/LinearMath/btVector3.h:648:20
	movss	%xmm0, 76(%rsp)
	.loc	5 648 31                # /home/chris/test-suite/MultiSource/Benchmarks/Bullet/include/LinearMath/btVector3.h:648:31
	movq	%rbx, %rdi
	callq	_ZNK9btVector3cvPKfEv
.Ltmp536:
	movss	(%rax), %xmm0           # xmm0 = mem[0],zero,zero,zero
	movss	%xmm0, 28(%rsp)         # 4-byte Spill
	.loc	5 648 36                # /home/chris/test-suite/MultiSource/Benchmarks/Bullet/include/LinearMath/btVector3.h:648:36
	movq	%r15, %rdi
	callq	_ZN9btVector3cvPfEv
.Ltmp537:
	.loc	5 0 36                  # /home/chris/test-suite/MultiSource/Benchmarks/Bullet/include/LinearMath/btVector3.h:0:36
	movss	28(%rsp), %xmm0         # 4-byte Reload
                                        # xmm0 = mem[0],zero,zero,zero
	.loc	5 648 35                # /home/chris/test-suite/MultiSource/Benchmarks/Bullet/include/LinearMath/btVector3.h:648:35
	mulss	4(%rax), %xmm0
	.loc	5 648 31                # /home/chris/test-suite/MultiSource/Benchmarks/Bullet/include/LinearMath/btVector3.h:648:31
	movss	%xmm0, 72(%rsp)
	.loc	5 648 7                 # /home/chris/test-suite/MultiSource/Benchmarks/Bullet/include/LinearMath/btVector3.h:648:7
	movq	%r14, %rdi
	leaq	80(%rsp), %rsi
	leaq	76(%rsp), %rdx
	leaq	72(%rsp), %rcx
	callq	_ZN9btVector38setValueERKfS1_S1_
.Ltmp538:
	.loc	5 649 3 is_stmt 1       # /home/chris/test-suite/MultiSource/Benchmarks/Bullet/include/LinearMath/btVector3.h:649:3
	jmp	.LBB30_3
.Ltmp539:
.LBB30_2:
	#DEBUG_VALUE: btPlaneSpace1:n <- $rbx
	#DEBUG_VALUE: btPlaneSpace1:p <- $r15
	#DEBUG_VALUE: btPlaneSpace1:q <- $r14
	.loc	5 652 20                # /home/chris/test-suite/MultiSource/Benchmarks/Bullet/include/LinearMath/btVector3.h:652:20
	movq	%rbx, %rdi
	callq	_ZNK9btVector31xEv
.Ltmp540:
	movss	(%rax), %xmm0           # xmm0 = mem[0],zero,zero,zero
	movss	%xmm0, 12(%rsp)         # 4-byte Spill
	.loc	5 652 26 is_stmt 0      # /home/chris/test-suite/MultiSource/Benchmarks/Bullet/include/LinearMath/btVector3.h:652:26
	movq	%rbx, %rdi
	callq	_ZNK9btVector31xEv
.Ltmp541:
	.loc	5 0 26                  # /home/chris/test-suite/MultiSource/Benchmarks/Bullet/include/LinearMath/btVector3.h:0:26
	movss	12(%rsp), %xmm0         # 4-byte Reload
                                        # xmm0 = mem[0],zero,zero,zero
	.loc	5 652 23                # /home/chris/test-suite/MultiSource/Benchmarks/Bullet/include/LinearMath/btVector3.h:652:23
	mulss	(%rax), %xmm0
	movss	%xmm0, 12(%rsp)         # 4-byte Spill
	.loc	5 652 34                # /home/chris/test-suite/MultiSource/Benchmarks/Bullet/include/LinearMath/btVector3.h:652:34
	movq	%rbx, %rdi
	callq	_ZNK9btVector31yEv
.Ltmp542:
	movss	(%rax), %xmm0           # xmm0 = mem[0],zero,zero,zero
	movss	%xmm0, 44(%rsp)         # 4-byte Spill
	.loc	5 652 40                # /home/chris/test-suite/MultiSource/Benchmarks/Bullet/include/LinearMath/btVector3.h:652:40
	movq	%rbx, %rdi
	callq	_ZNK9btVector31yEv
.Ltmp543:
	.loc	5 0 40                  # /home/chris/test-suite/MultiSource/Benchmarks/Bullet/include/LinearMath/btVector3.h:0:40
	movss	44(%rsp), %xmm1         # 4-byte Reload
                                        # xmm1 = mem[0],zero,zero,zero
	.loc	5 652 37                # /home/chris/test-suite/MultiSource/Benchmarks/Bullet/include/LinearMath/btVector3.h:652:37
	mulss	(%rax), %xmm1
	movss	12(%rsp), %xmm0         # 4-byte Reload
                                        # xmm0 = mem[0],zero,zero,zero
	.loc	5 652 30                # /home/chris/test-suite/MultiSource/Benchmarks/Bullet/include/LinearMath/btVector3.h:652:30
	addss	%xmm1, %xmm0
.Ltmp544:
	#DEBUG_VALUE: a <- $xmm0
	.loc	5 0 30                  # /home/chris/test-suite/MultiSource/Benchmarks/Bullet/include/LinearMath/btVector3.h:0:30
	movss	%xmm0, 12(%rsp)         # 4-byte Spill
.Ltmp545:
	#DEBUG_VALUE: a <- [DW_OP_plus_uconst 12] [$rsp+0]
	.loc	5 653 18 is_stmt 1      # /home/chris/test-suite/MultiSource/Benchmarks/Bullet/include/LinearMath/btVector3.h:653:18
	callq	_Z6btSqrtf
.Ltmp546:
	.loc	5 0 18 is_stmt 0        # /home/chris/test-suite/MultiSource/Benchmarks/Bullet/include/LinearMath/btVector3.h:0:18
	movss	.LCPI30_1(%rip), %xmm1  # xmm1 = mem[0],zero,zero,zero
	.loc	5 653 18                # /home/chris/test-suite/MultiSource/Benchmarks/Bullet/include/LinearMath/btVector3.h:653:18
	divss	%xmm0, %xmm1
.Ltmp547:
	#DEBUG_VALUE: k <- $xmm1
	.loc	5 0 18                  # /home/chris/test-suite/MultiSource/Benchmarks/Bullet/include/LinearMath/btVector3.h:0:18
	movss	%xmm1, 20(%rsp)         # 4-byte Spill
.Ltmp548:
	#DEBUG_VALUE: k <- [DW_OP_plus_uconst 20] [$rsp+0]
	#DEBUG_VALUE: k <- [DW_OP_plus_uconst 20] [$rsp+0]
	.loc	5 654 19 is_stmt 1      # /home/chris/test-suite/MultiSource/Benchmarks/Bullet/include/LinearMath/btVector3.h:654:19
	movq	%rbx, %rdi
	callq	_ZNK9btVector31yEv
.Ltmp549:
	movss	(%rax), %xmm0           # xmm0 = mem[0],zero,zero,zero
	.loc	5 654 16 is_stmt 0      # /home/chris/test-suite/MultiSource/Benchmarks/Bullet/include/LinearMath/btVector3.h:654:16
	movd	%xmm0, %eax
	xorl	$2147483648, %eax       # imm = 0x80000000
	movd	%eax, %xmm0
	.loc	5 654 22                # /home/chris/test-suite/MultiSource/Benchmarks/Bullet/include/LinearMath/btVector3.h:654:22
	mulss	20(%rsp), %xmm0         # 4-byte Folded Reload
	.loc	5 654 16                # /home/chris/test-suite/MultiSource/Benchmarks/Bullet/include/LinearMath/btVector3.h:654:16
	movss	%xmm0, 68(%rsp)
	.loc	5 654 27                # /home/chris/test-suite/MultiSource/Benchmarks/Bullet/include/LinearMath/btVector3.h:654:27
	movq	%rbx, %rdi
	callq	_ZNK9btVector31xEv
.Ltmp550:
	.loc	5 0 27                  # /home/chris/test-suite/MultiSource/Benchmarks/Bullet/include/LinearMath/btVector3.h:0:27
	movss	20(%rsp), %xmm0         # 4-byte Reload
                                        # xmm0 = mem[0],zero,zero,zero
	.loc	5 654 30                # /home/chris/test-suite/MultiSource/Benchmarks/Bullet/include/LinearMath/btVector3.h:654:30
	mulss	(%rax), %xmm0
	.loc	5 654 25                # /home/chris/test-suite/MultiSource/Benchmarks/Bullet/include/LinearMath/btVector3.h:654:25
	movss	%xmm0, 64(%rsp)
	.loc	5 654 33                # /home/chris/test-suite/MultiSource/Benchmarks/Bullet/include/LinearMath/btVector3.h:654:33
	xorps	%xmm0, %xmm0
	movss	%xmm0, 60(%rsp)
	.loc	5 654 7                 # /home/chris/test-suite/MultiSource/Benchmarks/Bullet/include/LinearMath/btVector3.h:654:7
	movq	%r15, %rdi
	leaq	68(%rsp), %rsi
	leaq	64(%rsp), %rdx
	leaq	60(%rsp), %rcx
	callq	_ZN9btVector38setValueERKfS1_S1_
.Ltmp551:
	.loc	5 656 19 is_stmt 1      # /home/chris/test-suite/MultiSource/Benchmarks/Bullet/include/LinearMath/btVector3.h:656:19
	movq	%rbx, %rdi
	callq	_ZNK9btVector31zEv
.Ltmp552:
	movss	(%rax), %xmm0           # xmm0 = mem[0],zero,zero,zero
	.loc	5 656 16 is_stmt 0      # /home/chris/test-suite/MultiSource/Benchmarks/Bullet/include/LinearMath/btVector3.h:656:16
	movd	%xmm0, %eax
	xorl	$2147483648, %eax       # imm = 0x80000000
	movd	%eax, %xmm0
	movss	%xmm0, 32(%rsp)         # 4-byte Spill
	.loc	5 656 25                # /home/chris/test-suite/MultiSource/Benchmarks/Bullet/include/LinearMath/btVector3.h:656:25
	movq	%r15, %rdi
	callq	_ZNK9btVector31yEv
.Ltmp553:
	.loc	5 0 25                  # /home/chris/test-suite/MultiSource/Benchmarks/Bullet/include/LinearMath/btVector3.h:0:25
	movss	32(%rsp), %xmm0         # 4-byte Reload
                                        # xmm0 = mem[0],zero,zero,zero
	.loc	5 656 22                # /home/chris/test-suite/MultiSource/Benchmarks/Bullet/include/LinearMath/btVector3.h:656:22
	mulss	(%rax), %xmm0
	.loc	5 656 16                # /home/chris/test-suite/MultiSource/Benchmarks/Bullet/include/LinearMath/btVector3.h:656:16
	movss	%xmm0, 56(%rsp)
	.loc	5 656 31                # /home/chris/test-suite/MultiSource/Benchmarks/Bullet/include/LinearMath/btVector3.h:656:31
	movq	%rbx, %rdi
	callq	_ZNK9btVector31zEv
.Ltmp554:
	movss	(%rax), %xmm0           # xmm0 = mem[0],zero,zero,zero
	movss	%xmm0, 36(%rsp)         # 4-byte Spill
	.loc	5 656 37                # /home/chris/test-suite/MultiSource/Benchmarks/Bullet/include/LinearMath/btVector3.h:656:37
	movq	%r15, %rdi
	callq	_ZNK9btVector31xEv
.Ltmp555:
	.loc	5 0 37                  # /home/chris/test-suite/MultiSource/Benchmarks/Bullet/include/LinearMath/btVector3.h:0:37
	movss	36(%rsp), %xmm0         # 4-byte Reload
                                        # xmm0 = mem[0],zero,zero,zero
	.loc	5 656 34                # /home/chris/test-suite/MultiSource/Benchmarks/Bullet/include/LinearMath/btVector3.h:656:34
	mulss	(%rax), %xmm0
	.loc	5 656 29                # /home/chris/test-suite/MultiSource/Benchmarks/Bullet/include/LinearMath/btVector3.h:656:29
	movss	%xmm0, 52(%rsp)
	movss	12(%rsp), %xmm0         # 4-byte Reload
                                        # xmm0 = mem[0],zero,zero,zero
.Ltmp556:
	#DEBUG_VALUE: a <- $xmm0
	.loc	5 656 42                # /home/chris/test-suite/MultiSource/Benchmarks/Bullet/include/LinearMath/btVector3.h:656:42
	mulss	20(%rsp), %xmm0         # 4-byte Folded Reload
.Ltmp557:
	.loc	5 656 41                # /home/chris/test-suite/MultiSource/Benchmarks/Bullet/include/LinearMath/btVector3.h:656:41
	movss	%xmm0, 48(%rsp)
	.loc	5 656 7                 # /home/chris/test-suite/MultiSource/Benchmarks/Bullet/include/LinearMath/btVector3.h:656:7
	movq	%r14, %rdi
	leaq	56(%rsp), %rsi
	leaq	52(%rsp), %rdx
	leaq	48(%rsp), %rcx
	callq	_ZN9btVector38setValueERKfS1_S1_
.Ltmp558:
.LBB30_3:
	#DEBUG_VALUE: btPlaneSpace1:n <- $rbx
	#DEBUG_VALUE: btPlaneSpace1:p <- $r15
	#DEBUG_VALUE: btPlaneSpace1:q <- $r14
	.loc	5 658 1 is_stmt 1       # /home/chris/test-suite/MultiSource/Benchmarks/Bullet/include/LinearMath/btVector3.h:658:1
	addq	$96, %rsp
	.cfi_def_cfa_offset 32
	popq	%rbx
.Ltmp559:
	.cfi_def_cfa_offset 24
	popq	%r14
.Ltmp560:
	.cfi_def_cfa_offset 16
	popq	%r15
.Ltmp561:
	.cfi_def_cfa_offset 8
	retq
.Ltmp562:
.Lfunc_end30:
	.size	_Z13btPlaneSpace1RK9btVector3RS_S2_, .Lfunc_end30-_Z13btPlaneSpace1RK9btVector3RS_S2_
	.cfi_endproc
                                        # -- End function
	.section	.text._ZN16btManifoldResult21getPersistentManifoldEv,"axG",@progbits,_ZN16btManifoldResult21getPersistentManifoldEv,comdat
	.weak	_ZN16btManifoldResult21getPersistentManifoldEv # -- Begin function _ZN16btManifoldResult21getPersistentManifoldEv
	.p2align	4, 0x90
	.type	_ZN16btManifoldResult21getPersistentManifoldEv,@function
_ZN16btManifoldResult21getPersistentManifoldEv: # @_ZN16btManifoldResult21getPersistentManifoldEv
.Lfunc_begin31:
	.loc	33 78 0                 # /home/chris/test-suite/MultiSource/Benchmarks/Bullet/include/BulletCollision/CollisionDispatch/btManifoldResult.h:78:0
	.cfi_startproc
# %bb.0:
	#DEBUG_VALUE: getPersistentManifold:this <- $rdi
	.loc	33 79 10 prologue_end   # /home/chris/test-suite/MultiSource/Benchmarks/Bullet/include/BulletCollision/CollisionDispatch/btManifoldResult.h:79:10
	movq	8(%rdi), %rax
	.loc	33 79 3 is_stmt 0       # /home/chris/test-suite/MultiSource/Benchmarks/Bullet/include/BulletCollision/CollisionDispatch/btManifoldResult.h:79:3
	retq
.Ltmp563:
.Lfunc_end31:
	.size	_ZN16btManifoldResult21getPersistentManifoldEv, .Lfunc_end31-_ZN16btManifoldResult21getPersistentManifoldEv
	.cfi_endproc
                                        # -- End function
	.section	.text._ZNK20btPersistentManifold14getNumContactsEv,"axG",@progbits,_ZNK20btPersistentManifold14getNumContactsEv,comdat
	.weak	_ZNK20btPersistentManifold14getNumContactsEv # -- Begin function _ZNK20btPersistentManifold14getNumContactsEv
	.p2align	4, 0x90
	.type	_ZNK20btPersistentManifold14getNumContactsEv,@function
_ZNK20btPersistentManifold14getNumContactsEv: # @_ZNK20btPersistentManifold14getNumContactsEv
.Lfunc_begin32:
	.loc	10 104 0 is_stmt 1      # /home/chris/test-suite/MultiSource/Benchmarks/Bullet/include/BulletCollision/NarrowPhaseCollision/btPersistentManifold.h:104:0
	.cfi_startproc
# %bb.0:
	#DEBUG_VALUE: getNumContacts:this <- $rdi
	.loc	10 104 56 prologue_end  # /home/chris/test-suite/MultiSource/Benchmarks/Bullet/include/BulletCollision/NarrowPhaseCollision/btPersistentManifold.h:104:56
	movl	728(%rdi), %eax
	.loc	10 104 49 is_stmt 0     # /home/chris/test-suite/MultiSource/Benchmarks/Bullet/include/BulletCollision/NarrowPhaseCollision/btPersistentManifold.h:104:49
	retq
.Ltmp564:
.Lfunc_end32:
	.size	_ZNK20btPersistentManifold14getNumContactsEv, .Lfunc_end32-_ZNK20btPersistentManifold14getNumContactsEv
	.cfi_endproc
                                        # -- End function
	.section	.text._ZN11btTransformC2Ev,"axG",@progbits,_ZN11btTransformC2Ev,comdat
	.weak	_ZN11btTransformC2Ev    # -- Begin function _ZN11btTransformC2Ev
	.p2align	4, 0x90
	.type	_ZN11btTransformC2Ev,@function
_ZN11btTransformC2Ev:                   # @_ZN11btTransformC2Ev
.Lfunc_begin33:
	.loc	12 32 0 is_stmt 1       # /home/chris/test-suite/MultiSource/Benchmarks/Bullet/include/LinearMath/btTransform.h:32:0
	.cfi_startproc
# %bb.0:
	pushq	%rbx
	.cfi_def_cfa_offset 16
	.cfi_offset %rbx, -16
	movq	%rdi, %rbx
.Ltmp565:
	#DEBUG_VALUE: btTransform:this <- $rbx
	.loc	12 32 2 prologue_end    # /home/chris/test-suite/MultiSource/Benchmarks/Bullet/include/LinearMath/btTransform.h:32:2
	movq	%rbx, %rdi
	callq	_ZN11btMatrix3x3C2Ev
.Ltmp566:
	addq	$48, %rbx
.Ltmp567:
	movq	%rbx, %rdi
	callq	_ZN9btVector3C2Ev
.Ltmp568:
	.loc	12 32 17 is_stmt 0      # /home/chris/test-suite/MultiSource/Benchmarks/Bullet/include/LinearMath/btTransform.h:32:17
	popq	%rbx
	.cfi_def_cfa_offset 8
	retq
.Ltmp569:
.Lfunc_end33:
	.size	_ZN11btTransformC2Ev, .Lfunc_end33-_ZN11btTransformC2Ev
	.cfi_endproc
                                        # -- End function
	.section	.text._ZN12btQuaternionC2ERK9btVector3RKf,"axG",@progbits,_ZN12btQuaternionC2ERK9btVector3RKf,comdat
	.weak	_ZN12btQuaternionC2ERK9btVector3RKf # -- Begin function _ZN12btQuaternionC2ERK9btVector3RKf
	.p2align	4, 0x90
	.type	_ZN12btQuaternionC2ERK9btVector3RKf,@function
_ZN12btQuaternionC2ERK9btVector3RKf:    # @_ZN12btQuaternionC2ERK9btVector3RKf
.Lfunc_begin34:
	.loc	8 40 0 is_stmt 1        # /home/chris/test-suite/MultiSource/Benchmarks/Bullet/include/LinearMath/btQuaternion.h:40:0
	.cfi_startproc
# %bb.0:
	pushq	%r15
	.cfi_def_cfa_offset 16
	pushq	%r14
	.cfi_def_cfa_offset 24
	pushq	%rbx
	.cfi_def_cfa_offset 32
	.cfi_offset %rbx, -32
	.cfi_offset %r14, -24
	.cfi_offset %r15, -16
	movq	%rdx, %r14
	movq	%rsi, %r15
	movq	%rdi, %rbx
.Ltmp570:
	#DEBUG_VALUE: btQuaternion:angle <- $r14
	#DEBUG_VALUE: btQuaternion:axis <- $r15
	#DEBUG_VALUE: btQuaternion:this <- $rbx
	.loc	8 39 2 prologue_end     # /home/chris/test-suite/MultiSource/Benchmarks/Bullet/include/LinearMath/btQuaternion.h:39:2
	movq	%rbx, %rdi
	callq	_ZN10btQuadWordC2Ev
.Ltmp571:
	.loc	8 41 3                  # /home/chris/test-suite/MultiSource/Benchmarks/Bullet/include/LinearMath/btQuaternion.h:41:3
	movq	%rbx, %rdi
	movq	%r15, %rsi
	movq	%r14, %rdx
	callq	_ZN12btQuaternion11setRotationERK9btVector3RKf
.Ltmp572:
	.loc	8 42 2                  # /home/chris/test-suite/MultiSource/Benchmarks/Bullet/include/LinearMath/btQuaternion.h:42:2
	popq	%rbx
.Ltmp573:
	.cfi_def_cfa_offset 24
	popq	%r14
.Ltmp574:
	.cfi_def_cfa_offset 16
	popq	%r15
.Ltmp575:
	.cfi_def_cfa_offset 8
	retq
.Ltmp576:
.Lfunc_end34:
	.size	_ZN12btQuaternionC2ERK9btVector3RKf, .Lfunc_end34-_ZN12btQuaternionC2ERK9btVector3RKf
	.cfi_endproc
                                        # -- End function
	.section	.text._ZN11btTransform8setBasisERK11btMatrix3x3,"axG",@progbits,_ZN11btTransform8setBasisERK11btMatrix3x3,comdat
	.weak	_ZN11btTransform8setBasisERK11btMatrix3x3 # -- Begin function _ZN11btTransform8setBasisERK11btMatrix3x3
	.p2align	4, 0x90
	.type	_ZN11btTransform8setBasisERK11btMatrix3x3,@function
_ZN11btTransform8setBasisERK11btMatrix3x3: # @_ZN11btTransform8setBasisERK11btMatrix3x3
.Lfunc_begin35:
	.loc	12 150 0                # /home/chris/test-suite/MultiSource/Benchmarks/Bullet/include/LinearMath/btTransform.h:150:0
	.cfi_startproc
# %bb.0:
	#DEBUG_VALUE: setBasis:this <- $rdi
	#DEBUG_VALUE: setBasis:basis <- $rsi
	pushq	%rax
	.cfi_def_cfa_offset 16
.Ltmp577:
	.loc	12 151 11 prologue_end  # /home/chris/test-suite/MultiSource/Benchmarks/Bullet/include/LinearMath/btTransform.h:151:11
	callq	_ZN11btMatrix3x3aSERKS_
.Ltmp578:
	.loc	12 152 2                # /home/chris/test-suite/MultiSource/Benchmarks/Bullet/include/LinearMath/btTransform.h:152:2
	popq	%rax
	.cfi_def_cfa_offset 8
	retq
.Ltmp579:
.Lfunc_end35:
	.size	_ZN11btTransform8setBasisERK11btMatrix3x3, .Lfunc_end35-_ZN11btTransform8setBasisERK11btMatrix3x3
	.cfi_endproc
                                        # -- End function
	.section	.text._ZmlRK11btMatrix3x3S1_,"axG",@progbits,_ZmlRK11btMatrix3x3S1_,comdat
	.weak	_ZmlRK11btMatrix3x3S1_  # -- Begin function _ZmlRK11btMatrix3x3S1_
	.p2align	4, 0x90
	.type	_ZmlRK11btMatrix3x3S1_,@function
_ZmlRK11btMatrix3x3S1_:                 # @_ZmlRK11btMatrix3x3S1_
.Lfunc_begin36:
	.loc	6 587 0                 # /home/chris/test-suite/MultiSource/Benchmarks/Bullet/include/LinearMath/btMatrix3x3.h:587:0
	.cfi_startproc
# %bb.0:
	pushq	%r15
	.cfi_def_cfa_offset 16
	pushq	%r14
	.cfi_def_cfa_offset 24
	pushq	%rbx
	.cfi_def_cfa_offset 32
	subq	$80, %rsp
	.cfi_def_cfa_offset 112
	.cfi_offset %rbx, -32
	.cfi_offset %r14, -24
	.cfi_offset %r15, -16
	movq	%rdx, %r15
	movq	%rsi, %rbx
	movq	%rdi, %r14
.Ltmp580:
	#DEBUG_VALUE: operator*:m2 <- $r15
	#DEBUG_VALUE: operator*:m1 <- $rbx
	.loc	6 589 14 prologue_end   # /home/chris/test-suite/MultiSource/Benchmarks/Bullet/include/LinearMath/btMatrix3x3.h:589:14
	movq	%rbx, %rdi
	xorl	%esi, %esi
	callq	_ZNK11btMatrix3x3ixEi
.Ltmp581:
	.loc	6 589 7 is_stmt 0       # /home/chris/test-suite/MultiSource/Benchmarks/Bullet/include/LinearMath/btMatrix3x3.h:589:7
	movq	%r15, %rdi
	movq	%rax, %rsi
	callq	_ZNK11btMatrix3x35tdotxERK9btVector3
.Ltmp582:
	.loc	6 589 4                 # /home/chris/test-suite/MultiSource/Benchmarks/Bullet/include/LinearMath/btMatrix3x3.h:589:4
	movss	%xmm0, 76(%rsp)
	.loc	6 589 32                # /home/chris/test-suite/MultiSource/Benchmarks/Bullet/include/LinearMath/btMatrix3x3.h:589:32
	movq	%rbx, %rdi
	xorl	%esi, %esi
	callq	_ZNK11btMatrix3x3ixEi
.Ltmp583:
	.loc	6 589 25                # /home/chris/test-suite/MultiSource/Benchmarks/Bullet/include/LinearMath/btMatrix3x3.h:589:25
	movq	%r15, %rdi
	movq	%rax, %rsi
	callq	_ZNK11btMatrix3x35tdotyERK9btVector3
.Ltmp584:
	.loc	6 589 22                # /home/chris/test-suite/MultiSource/Benchmarks/Bullet/include/LinearMath/btMatrix3x3.h:589:22
	movss	%xmm0, 72(%rsp)
	.loc	6 589 50                # /home/chris/test-suite/MultiSource/Benchmarks/Bullet/include/LinearMath/btMatrix3x3.h:589:50
	movq	%rbx, %rdi
	xorl	%esi, %esi
	callq	_ZNK11btMatrix3x3ixEi
.Ltmp585:
	.loc	6 589 43                # /home/chris/test-suite/MultiSource/Benchmarks/Bullet/include/LinearMath/btMatrix3x3.h:589:43
	movq	%r15, %rdi
	movq	%rax, %rsi
	callq	_ZNK11btMatrix3x35tdotzERK9btVector3
.Ltmp586:
	.loc	6 589 40                # /home/chris/test-suite/MultiSource/Benchmarks/Bullet/include/LinearMath/btMatrix3x3.h:589:40
	movss	%xmm0, 68(%rsp)
	.loc	6 590 14 is_stmt 1      # /home/chris/test-suite/MultiSource/Benchmarks/Bullet/include/LinearMath/btMatrix3x3.h:590:14
	movq	%rbx, %rdi
	movl	$1, %esi
	callq	_ZNK11btMatrix3x3ixEi
.Ltmp587:
	.loc	6 590 7 is_stmt 0       # /home/chris/test-suite/MultiSource/Benchmarks/Bullet/include/LinearMath/btMatrix3x3.h:590:7
	movq	%r15, %rdi
	movq	%rax, %rsi
	callq	_ZNK11btMatrix3x35tdotxERK9btVector3
.Ltmp588:
	.loc	6 590 4                 # /home/chris/test-suite/MultiSource/Benchmarks/Bullet/include/LinearMath/btMatrix3x3.h:590:4
	movss	%xmm0, 64(%rsp)
	.loc	6 590 32                # /home/chris/test-suite/MultiSource/Benchmarks/Bullet/include/LinearMath/btMatrix3x3.h:590:32
	movq	%rbx, %rdi
	movl	$1, %esi
	callq	_ZNK11btMatrix3x3ixEi
.Ltmp589:
	.loc	6 590 25                # /home/chris/test-suite/MultiSource/Benchmarks/Bullet/include/LinearMath/btMatrix3x3.h:590:25
	movq	%r15, %rdi
	movq	%rax, %rsi
	callq	_ZNK11btMatrix3x35tdotyERK9btVector3
.Ltmp590:
	.loc	6 590 22                # /home/chris/test-suite/MultiSource/Benchmarks/Bullet/include/LinearMath/btMatrix3x3.h:590:22
	movss	%xmm0, 60(%rsp)
	.loc	6 590 50                # /home/chris/test-suite/MultiSource/Benchmarks/Bullet/include/LinearMath/btMatrix3x3.h:590:50
	movq	%rbx, %rdi
	movl	$1, %esi
	callq	_ZNK11btMatrix3x3ixEi
.Ltmp591:
	.loc	6 590 43                # /home/chris/test-suite/MultiSource/Benchmarks/Bullet/include/LinearMath/btMatrix3x3.h:590:43
	movq	%r15, %rdi
	movq	%rax, %rsi
	callq	_ZNK11btMatrix3x35tdotzERK9btVector3
.Ltmp592:
	.loc	6 590 40                # /home/chris/test-suite/MultiSource/Benchmarks/Bullet/include/LinearMath/btMatrix3x3.h:590:40
	movss	%xmm0, 56(%rsp)
	.loc	6 591 14 is_stmt 1      # /home/chris/test-suite/MultiSource/Benchmarks/Bullet/include/LinearMath/btMatrix3x3.h:591:14
	movq	%rbx, %rdi
	movl	$2, %esi
	callq	_ZNK11btMatrix3x3ixEi
.Ltmp593:
	.loc	6 591 7 is_stmt 0       # /home/chris/test-suite/MultiSource/Benchmarks/Bullet/include/LinearMath/btMatrix3x3.h:591:7
	movq	%r15, %rdi
	movq	%rax, %rsi
	callq	_ZNK11btMatrix3x35tdotxERK9btVector3
.Ltmp594:
	.loc	6 591 4                 # /home/chris/test-suite/MultiSource/Benchmarks/Bullet/include/LinearMath/btMatrix3x3.h:591:4
	movss	%xmm0, 52(%rsp)
	.loc	6 591 32                # /home/chris/test-suite/MultiSource/Benchmarks/Bullet/include/LinearMath/btMatrix3x3.h:591:32
	movq	%rbx, %rdi
	movl	$2, %esi
	callq	_ZNK11btMatrix3x3ixEi
.Ltmp595:
	.loc	6 591 25                # /home/chris/test-suite/MultiSource/Benchmarks/Bullet/include/LinearMath/btMatrix3x3.h:591:25
	movq	%r15, %rdi
	movq	%rax, %rsi
	callq	_ZNK11btMatrix3x35tdotyERK9btVector3
.Ltmp596:
	.loc	6 591 22                # /home/chris/test-suite/MultiSource/Benchmarks/Bullet/include/LinearMath/btMatrix3x3.h:591:22
	movss	%xmm0, 48(%rsp)
	.loc	6 591 50                # /home/chris/test-suite/MultiSource/Benchmarks/Bullet/include/LinearMath/btMatrix3x3.h:591:50
	movq	%rbx, %rdi
	movl	$2, %esi
	callq	_ZNK11btMatrix3x3ixEi
.Ltmp597:
	.loc	6 591 43                # /home/chris/test-suite/MultiSource/Benchmarks/Bullet/include/LinearMath/btMatrix3x3.h:591:43
	movq	%r15, %rdi
	movq	%rax, %rsi
	callq	_ZNK11btMatrix3x35tdotzERK9btVector3
.Ltmp598:
	.loc	6 591 40                # /home/chris/test-suite/MultiSource/Benchmarks/Bullet/include/LinearMath/btMatrix3x3.h:591:40
	movss	%xmm0, 44(%rsp)
	.loc	6 588 10 is_stmt 1      # /home/chris/test-suite/MultiSource/Benchmarks/Bullet/include/LinearMath/btMatrix3x3.h:588:10
	movq	%r14, %rdi
	leaq	76(%rsp), %rsi
	leaq	72(%rsp), %rdx
	leaq	68(%rsp), %rcx
	leaq	64(%rsp), %r8
	leaq	60(%rsp), %r9
	leaq	56(%rsp), %rax
	movq	%rax, (%rsp)
	leaq	52(%rsp), %rax
	movq	%rax, 8(%rsp)
	leaq	48(%rsp), %rax
	movq	%rax, 16(%rsp)
	leaq	44(%rsp), %rax
	movq	%rax, 24(%rsp)
	callq	_ZN11btMatrix3x3C2ERKfS1_S1_S1_S1_S1_S1_S1_S1_
.Ltmp599:
	.loc	6 588 3 is_stmt 0       # /home/chris/test-suite/MultiSource/Benchmarks/Bullet/include/LinearMath/btMatrix3x3.h:588:3
	movq	%r14, %rax
	addq	$80, %rsp
	.cfi_def_cfa_offset 32
	popq	%rbx
.Ltmp600:
	.cfi_def_cfa_offset 24
	popq	%r14
	.cfi_def_cfa_offset 16
	popq	%r15
.Ltmp601:
	.cfi_def_cfa_offset 8
	retq
.Ltmp602:
.Lfunc_end36:
	.size	_ZmlRK11btMatrix3x3S1_, .Lfunc_end36-_ZmlRK11btMatrix3x3S1_
	.cfi_endproc
                                        # -- End function
	.section	.text._ZmlRK12btQuaternionS1_,"axG",@progbits,_ZmlRK12btQuaternionS1_,comdat
	.weak	_ZmlRK12btQuaternionS1_ # -- Begin function _ZmlRK12btQuaternionS1_
	.p2align	4, 0x90
	.type	_ZmlRK12btQuaternionS1_,@function
_ZmlRK12btQuaternionS1_:                # @_ZmlRK12btQuaternionS1_
.Lfunc_begin37:
	.loc	8 322 0 is_stmt 1       # /home/chris/test-suite/MultiSource/Benchmarks/Bullet/include/LinearMath/btQuaternion.h:322:0
	.cfi_startproc
# %bb.0:
	pushq	%r14
	.cfi_def_cfa_offset 16
	pushq	%rbx
	.cfi_def_cfa_offset 24
	subq	$104, %rsp
	.cfi_def_cfa_offset 128
	.cfi_offset %rbx, -24
	.cfi_offset %r14, -16
	movq	%rsi, %r14
	movq	%rdi, %rbx
.Ltmp603:
	#DEBUG_VALUE: operator*:q2 <- $r14
	#DEBUG_VALUE: operator*:q1 <- $rbx
	.loc	8 323 25 prologue_end   # /home/chris/test-suite/MultiSource/Benchmarks/Bullet/include/LinearMath/btQuaternion.h:323:25
	movq	%rbx, %rdi
	callq	_ZNK10btQuadWord1wEv
.Ltmp604:
	movss	(%rax), %xmm0           # xmm0 = mem[0],zero,zero,zero
	movss	%xmm0, 20(%rsp)         # 4-byte Spill
	.loc	8 323 34 is_stmt 0      # /home/chris/test-suite/MultiSource/Benchmarks/Bullet/include/LinearMath/btQuaternion.h:323:34
	movq	%r14, %rdi
	callq	_ZNK10btQuadWord1xEv
.Ltmp605:
	movss	(%rax), %xmm0           # xmm0 = mem[0],zero,zero,zero
	movss	20(%rsp), %xmm1         # 4-byte Reload
                                        # xmm1 = mem[0],zero,zero,zero
	.loc	8 323 29                # /home/chris/test-suite/MultiSource/Benchmarks/Bullet/include/LinearMath/btQuaternion.h:323:29
	mulss	%xmm0, %xmm1
	movss	%xmm1, 20(%rsp)         # 4-byte Spill
	.loc	8 323 43                # /home/chris/test-suite/MultiSource/Benchmarks/Bullet/include/LinearMath/btQuaternion.h:323:43
	movq	%rbx, %rdi
	callq	_ZNK10btQuadWord1xEv
.Ltmp606:
	movss	(%rax), %xmm0           # xmm0 = mem[0],zero,zero,zero
	movss	%xmm0, 68(%rsp)         # 4-byte Spill
	.loc	8 323 52                # /home/chris/test-suite/MultiSource/Benchmarks/Bullet/include/LinearMath/btQuaternion.h:323:52
	movq	%r14, %rdi
	callq	_ZNK10btQuadWord1wEv
.Ltmp607:
	movss	(%rax), %xmm0           # xmm0 = mem[0],zero,zero,zero
	movss	68(%rsp), %xmm1         # 4-byte Reload
                                        # xmm1 = mem[0],zero,zero,zero
	.loc	8 323 47                # /home/chris/test-suite/MultiSource/Benchmarks/Bullet/include/LinearMath/btQuaternion.h:323:47
	mulss	%xmm0, %xmm1
	movss	20(%rsp), %xmm0         # 4-byte Reload
                                        # xmm0 = mem[0],zero,zero,zero
	.loc	8 323 38                # /home/chris/test-suite/MultiSource/Benchmarks/Bullet/include/LinearMath/btQuaternion.h:323:38
	addss	%xmm1, %xmm0
	movss	%xmm0, 20(%rsp)         # 4-byte Spill
	.loc	8 323 61                # /home/chris/test-suite/MultiSource/Benchmarks/Bullet/include/LinearMath/btQuaternion.h:323:61
	movq	%rbx, %rdi
	callq	_ZNK10btQuadWord1yEv
.Ltmp608:
	movss	(%rax), %xmm0           # xmm0 = mem[0],zero,zero,zero
	movss	%xmm0, 64(%rsp)         # 4-byte Spill
	.loc	8 323 70                # /home/chris/test-suite/MultiSource/Benchmarks/Bullet/include/LinearMath/btQuaternion.h:323:70
	movq	%r14, %rdi
	callq	_ZNK10btQuadWord1zEv
.Ltmp609:
	movss	(%rax), %xmm0           # xmm0 = mem[0],zero,zero,zero
	movss	64(%rsp), %xmm1         # 4-byte Reload
                                        # xmm1 = mem[0],zero,zero,zero
	.loc	8 323 65                # /home/chris/test-suite/MultiSource/Benchmarks/Bullet/include/LinearMath/btQuaternion.h:323:65
	mulss	%xmm0, %xmm1
	movss	20(%rsp), %xmm0         # 4-byte Reload
                                        # xmm0 = mem[0],zero,zero,zero
	.loc	8 323 56                # /home/chris/test-suite/MultiSource/Benchmarks/Bullet/include/LinearMath/btQuaternion.h:323:56
	addss	%xmm1, %xmm0
	movss	%xmm0, 20(%rsp)         # 4-byte Spill
	.loc	8 323 79                # /home/chris/test-suite/MultiSource/Benchmarks/Bullet/include/LinearMath/btQuaternion.h:323:79
	movq	%rbx, %rdi
	callq	_ZNK10btQuadWord1zEv
.Ltmp610:
	movss	(%rax), %xmm0           # xmm0 = mem[0],zero,zero,zero
	movss	%xmm0, 60(%rsp)         # 4-byte Spill
	.loc	8 323 88                # /home/chris/test-suite/MultiSource/Benchmarks/Bullet/include/LinearMath/btQuaternion.h:323:88
	movq	%r14, %rdi
	callq	_ZNK10btQuadWord1yEv
.Ltmp611:
	movss	(%rax), %xmm0           # xmm0 = mem[0],zero,zero,zero
	movss	60(%rsp), %xmm1         # 4-byte Reload
                                        # xmm1 = mem[0],zero,zero,zero
	.loc	8 323 83                # /home/chris/test-suite/MultiSource/Benchmarks/Bullet/include/LinearMath/btQuaternion.h:323:83
	mulss	%xmm0, %xmm1
	movss	20(%rsp), %xmm0         # 4-byte Reload
                                        # xmm0 = mem[0],zero,zero,zero
	.loc	8 323 74                # /home/chris/test-suite/MultiSource/Benchmarks/Bullet/include/LinearMath/btQuaternion.h:323:74
	subss	%xmm1, %xmm0
	.loc	8 323 22                # /home/chris/test-suite/MultiSource/Benchmarks/Bullet/include/LinearMath/btQuaternion.h:323:22
	movss	%xmm0, 84(%rsp)
	.loc	8 324 6 is_stmt 1       # /home/chris/test-suite/MultiSource/Benchmarks/Bullet/include/LinearMath/btQuaternion.h:324:6
	movq	%rbx, %rdi
	callq	_ZNK10btQuadWord1wEv
.Ltmp612:
	movss	(%rax), %xmm0           # xmm0 = mem[0],zero,zero,zero
	movss	%xmm0, 16(%rsp)         # 4-byte Spill
	.loc	8 324 15 is_stmt 0      # /home/chris/test-suite/MultiSource/Benchmarks/Bullet/include/LinearMath/btQuaternion.h:324:15
	movq	%r14, %rdi
	callq	_ZNK10btQuadWord1yEv
.Ltmp613:
	movss	(%rax), %xmm0           # xmm0 = mem[0],zero,zero,zero
	movss	16(%rsp), %xmm1         # 4-byte Reload
                                        # xmm1 = mem[0],zero,zero,zero
	.loc	8 324 10                # /home/chris/test-suite/MultiSource/Benchmarks/Bullet/include/LinearMath/btQuaternion.h:324:10
	mulss	%xmm0, %xmm1
	movss	%xmm1, 16(%rsp)         # 4-byte Spill
	.loc	8 324 24                # /home/chris/test-suite/MultiSource/Benchmarks/Bullet/include/LinearMath/btQuaternion.h:324:24
	movq	%rbx, %rdi
	callq	_ZNK10btQuadWord1yEv
.Ltmp614:
	movss	(%rax), %xmm0           # xmm0 = mem[0],zero,zero,zero
	movss	%xmm0, 56(%rsp)         # 4-byte Spill
	.loc	8 324 33                # /home/chris/test-suite/MultiSource/Benchmarks/Bullet/include/LinearMath/btQuaternion.h:324:33
	movq	%r14, %rdi
	callq	_ZNK10btQuadWord1wEv
.Ltmp615:
	movss	(%rax), %xmm0           # xmm0 = mem[0],zero,zero,zero
	movss	56(%rsp), %xmm1         # 4-byte Reload
                                        # xmm1 = mem[0],zero,zero,zero
	.loc	8 324 28                # /home/chris/test-suite/MultiSource/Benchmarks/Bullet/include/LinearMath/btQuaternion.h:324:28
	mulss	%xmm0, %xmm1
	movss	16(%rsp), %xmm0         # 4-byte Reload
                                        # xmm0 = mem[0],zero,zero,zero
	.loc	8 324 19                # /home/chris/test-suite/MultiSource/Benchmarks/Bullet/include/LinearMath/btQuaternion.h:324:19
	addss	%xmm1, %xmm0
	movss	%xmm0, 16(%rsp)         # 4-byte Spill
	.loc	8 324 42                # /home/chris/test-suite/MultiSource/Benchmarks/Bullet/include/LinearMath/btQuaternion.h:324:42
	movq	%rbx, %rdi
	callq	_ZNK10btQuadWord1zEv
.Ltmp616:
	movss	(%rax), %xmm0           # xmm0 = mem[0],zero,zero,zero
	movss	%xmm0, 52(%rsp)         # 4-byte Spill
	.loc	8 324 51                # /home/chris/test-suite/MultiSource/Benchmarks/Bullet/include/LinearMath/btQuaternion.h:324:51
	movq	%r14, %rdi
	callq	_ZNK10btQuadWord1xEv
.Ltmp617:
	movss	(%rax), %xmm0           # xmm0 = mem[0],zero,zero,zero
	movss	52(%rsp), %xmm1         # 4-byte Reload
                                        # xmm1 = mem[0],zero,zero,zero
	.loc	8 324 46                # /home/chris/test-suite/MultiSource/Benchmarks/Bullet/include/LinearMath/btQuaternion.h:324:46
	mulss	%xmm0, %xmm1
	movss	16(%rsp), %xmm0         # 4-byte Reload
                                        # xmm0 = mem[0],zero,zero,zero
	.loc	8 324 37                # /home/chris/test-suite/MultiSource/Benchmarks/Bullet/include/LinearMath/btQuaternion.h:324:37
	addss	%xmm1, %xmm0
	movss	%xmm0, 16(%rsp)         # 4-byte Spill
	.loc	8 324 60                # /home/chris/test-suite/MultiSource/Benchmarks/Bullet/include/LinearMath/btQuaternion.h:324:60
	movq	%rbx, %rdi
	callq	_ZNK10btQuadWord1xEv
.Ltmp618:
	movss	(%rax), %xmm0           # xmm0 = mem[0],zero,zero,zero
	movss	%xmm0, 48(%rsp)         # 4-byte Spill
	.loc	8 324 69                # /home/chris/test-suite/MultiSource/Benchmarks/Bullet/include/LinearMath/btQuaternion.h:324:69
	movq	%r14, %rdi
	callq	_ZNK10btQuadWord1zEv
.Ltmp619:
	movss	(%rax), %xmm0           # xmm0 = mem[0],zero,zero,zero
	movss	48(%rsp), %xmm1         # 4-byte Reload
                                        # xmm1 = mem[0],zero,zero,zero
	.loc	8 324 64                # /home/chris/test-suite/MultiSource/Benchmarks/Bullet/include/LinearMath/btQuaternion.h:324:64
	mulss	%xmm0, %xmm1
	movss	16(%rsp), %xmm0         # 4-byte Reload
                                        # xmm0 = mem[0],zero,zero,zero
	.loc	8 324 55                # /home/chris/test-suite/MultiSource/Benchmarks/Bullet/include/LinearMath/btQuaternion.h:324:55
	subss	%xmm1, %xmm0
	.loc	8 324 3                 # /home/chris/test-suite/MultiSource/Benchmarks/Bullet/include/LinearMath/btQuaternion.h:324:3
	movss	%xmm0, 80(%rsp)
	.loc	8 325 6 is_stmt 1       # /home/chris/test-suite/MultiSource/Benchmarks/Bullet/include/LinearMath/btQuaternion.h:325:6
	movq	%rbx, %rdi
	callq	_ZNK10btQuadWord1wEv
.Ltmp620:
	movss	(%rax), %xmm0           # xmm0 = mem[0],zero,zero,zero
	movss	%xmm0, 12(%rsp)         # 4-byte Spill
	.loc	8 325 15 is_stmt 0      # /home/chris/test-suite/MultiSource/Benchmarks/Bullet/include/LinearMath/btQuaternion.h:325:15
	movq	%r14, %rdi
	callq	_ZNK10btQuadWord1zEv
.Ltmp621:
	movss	(%rax), %xmm0           # xmm0 = mem[0],zero,zero,zero
	movss	12(%rsp), %xmm1         # 4-byte Reload
                                        # xmm1 = mem[0],zero,zero,zero
	.loc	8 325 10                # /home/chris/test-suite/MultiSource/Benchmarks/Bullet/include/LinearMath/btQuaternion.h:325:10
	mulss	%xmm0, %xmm1
	movss	%xmm1, 12(%rsp)         # 4-byte Spill
	.loc	8 325 24                # /home/chris/test-suite/MultiSource/Benchmarks/Bullet/include/LinearMath/btQuaternion.h:325:24
	movq	%rbx, %rdi
	callq	_ZNK10btQuadWord1zEv
.Ltmp622:
	movss	(%rax), %xmm0           # xmm0 = mem[0],zero,zero,zero
	movss	%xmm0, 44(%rsp)         # 4-byte Spill
	.loc	8 325 33                # /home/chris/test-suite/MultiSource/Benchmarks/Bullet/include/LinearMath/btQuaternion.h:325:33
	movq	%r14, %rdi
	callq	_ZNK10btQuadWord1wEv
.Ltmp623:
	movss	(%rax), %xmm0           # xmm0 = mem[0],zero,zero,zero
	movss	44(%rsp), %xmm1         # 4-byte Reload
                                        # xmm1 = mem[0],zero,zero,zero
	.loc	8 325 28                # /home/chris/test-suite/MultiSource/Benchmarks/Bullet/include/LinearMath/btQuaternion.h:325:28
	mulss	%xmm0, %xmm1
	movss	12(%rsp), %xmm0         # 4-byte Reload
                                        # xmm0 = mem[0],zero,zero,zero
	.loc	8 325 19                # /home/chris/test-suite/MultiSource/Benchmarks/Bullet/include/LinearMath/btQuaternion.h:325:19
	addss	%xmm1, %xmm0
	movss	%xmm0, 12(%rsp)         # 4-byte Spill
	.loc	8 325 42                # /home/chris/test-suite/MultiSource/Benchmarks/Bullet/include/LinearMath/btQuaternion.h:325:42
	movq	%rbx, %rdi
	callq	_ZNK10btQuadWord1xEv
.Ltmp624:
	movss	(%rax), %xmm0           # xmm0 = mem[0],zero,zero,zero
	movss	%xmm0, 40(%rsp)         # 4-byte Spill
	.loc	8 325 51                # /home/chris/test-suite/MultiSource/Benchmarks/Bullet/include/LinearMath/btQuaternion.h:325:51
	movq	%r14, %rdi
	callq	_ZNK10btQuadWord1yEv
.Ltmp625:
	movss	(%rax), %xmm0           # xmm0 = mem[0],zero,zero,zero
	movss	40(%rsp), %xmm1         # 4-byte Reload
                                        # xmm1 = mem[0],zero,zero,zero
	.loc	8 325 46                # /home/chris/test-suite/MultiSource/Benchmarks/Bullet/include/LinearMath/btQuaternion.h:325:46
	mulss	%xmm0, %xmm1
	movss	12(%rsp), %xmm0         # 4-byte Reload
                                        # xmm0 = mem[0],zero,zero,zero
	.loc	8 325 37                # /home/chris/test-suite/MultiSource/Benchmarks/Bullet/include/LinearMath/btQuaternion.h:325:37
	addss	%xmm1, %xmm0
	movss	%xmm0, 12(%rsp)         # 4-byte Spill
	.loc	8 325 60                # /home/chris/test-suite/MultiSource/Benchmarks/Bullet/include/LinearMath/btQuaternion.h:325:60
	movq	%rbx, %rdi
	callq	_ZNK10btQuadWord1yEv
.Ltmp626:
	movss	(%rax), %xmm0           # xmm0 = mem[0],zero,zero,zero
	movss	%xmm0, 36(%rsp)         # 4-byte Spill
	.loc	8 325 69                # /home/chris/test-suite/MultiSource/Benchmarks/Bullet/include/LinearMath/btQuaternion.h:325:69
	movq	%r14, %rdi
	callq	_ZNK10btQuadWord1xEv
.Ltmp627:
	movss	(%rax), %xmm0           # xmm0 = mem[0],zero,zero,zero
	movss	36(%rsp), %xmm1         # 4-byte Reload
                                        # xmm1 = mem[0],zero,zero,zero
	.loc	8 325 64                # /home/chris/test-suite/MultiSource/Benchmarks/Bullet/include/LinearMath/btQuaternion.h:325:64
	mulss	%xmm0, %xmm1
	movss	12(%rsp), %xmm0         # 4-byte Reload
                                        # xmm0 = mem[0],zero,zero,zero
	.loc	8 325 55                # /home/chris/test-suite/MultiSource/Benchmarks/Bullet/include/LinearMath/btQuaternion.h:325:55
	subss	%xmm1, %xmm0
	.loc	8 325 3                 # /home/chris/test-suite/MultiSource/Benchmarks/Bullet/include/LinearMath/btQuaternion.h:325:3
	movss	%xmm0, 76(%rsp)
	.loc	8 326 6 is_stmt 1       # /home/chris/test-suite/MultiSource/Benchmarks/Bullet/include/LinearMath/btQuaternion.h:326:6
	movq	%rbx, %rdi
	callq	_ZNK10btQuadWord1wEv
.Ltmp628:
	movss	(%rax), %xmm0           # xmm0 = mem[0],zero,zero,zero
	movss	%xmm0, 8(%rsp)          # 4-byte Spill
	.loc	8 326 15 is_stmt 0      # /home/chris/test-suite/MultiSource/Benchmarks/Bullet/include/LinearMath/btQuaternion.h:326:15
	movq	%r14, %rdi
	callq	_ZNK10btQuadWord1wEv
.Ltmp629:
	movss	(%rax), %xmm0           # xmm0 = mem[0],zero,zero,zero
	movss	8(%rsp), %xmm1          # 4-byte Reload
                                        # xmm1 = mem[0],zero,zero,zero
	.loc	8 326 10                # /home/chris/test-suite/MultiSource/Benchmarks/Bullet/include/LinearMath/btQuaternion.h:326:10
	mulss	%xmm0, %xmm1
	movss	%xmm1, 8(%rsp)          # 4-byte Spill
	.loc	8 326 24                # /home/chris/test-suite/MultiSource/Benchmarks/Bullet/include/LinearMath/btQuaternion.h:326:24
	movq	%rbx, %rdi
	callq	_ZNK10btQuadWord1xEv
.Ltmp630:
	movss	(%rax), %xmm0           # xmm0 = mem[0],zero,zero,zero
	movss	%xmm0, 32(%rsp)         # 4-byte Spill
	.loc	8 326 33                # /home/chris/test-suite/MultiSource/Benchmarks/Bullet/include/LinearMath/btQuaternion.h:326:33
	movq	%r14, %rdi
	callq	_ZNK10btQuadWord1xEv
.Ltmp631:
	movss	(%rax), %xmm0           # xmm0 = mem[0],zero,zero,zero
	movss	32(%rsp), %xmm1         # 4-byte Reload
                                        # xmm1 = mem[0],zero,zero,zero
	.loc	8 326 28                # /home/chris/test-suite/MultiSource/Benchmarks/Bullet/include/LinearMath/btQuaternion.h:326:28
	mulss	%xmm0, %xmm1
	movss	8(%rsp), %xmm0          # 4-byte Reload
                                        # xmm0 = mem[0],zero,zero,zero
	.loc	8 326 19                # /home/chris/test-suite/MultiSource/Benchmarks/Bullet/include/LinearMath/btQuaternion.h:326:19
	subss	%xmm1, %xmm0
	movss	%xmm0, 8(%rsp)          # 4-byte Spill
	.loc	8 326 42                # /home/chris/test-suite/MultiSource/Benchmarks/Bullet/include/LinearMath/btQuaternion.h:326:42
	movq	%rbx, %rdi
	callq	_ZNK10btQuadWord1yEv
.Ltmp632:
	movss	(%rax), %xmm0           # xmm0 = mem[0],zero,zero,zero
	movss	%xmm0, 28(%rsp)         # 4-byte Spill
	.loc	8 326 51                # /home/chris/test-suite/MultiSource/Benchmarks/Bullet/include/LinearMath/btQuaternion.h:326:51
	movq	%r14, %rdi
	callq	_ZNK10btQuadWord1yEv
.Ltmp633:
	movss	(%rax), %xmm0           # xmm0 = mem[0],zero,zero,zero
	movss	28(%rsp), %xmm1         # 4-byte Reload
                                        # xmm1 = mem[0],zero,zero,zero
	.loc	8 326 46                # /home/chris/test-suite/MultiSource/Benchmarks/Bullet/include/LinearMath/btQuaternion.h:326:46
	mulss	%xmm0, %xmm1
	movss	8(%rsp), %xmm0          # 4-byte Reload
                                        # xmm0 = mem[0],zero,zero,zero
	.loc	8 326 37                # /home/chris/test-suite/MultiSource/Benchmarks/Bullet/include/LinearMath/btQuaternion.h:326:37
	subss	%xmm1, %xmm0
	movss	%xmm0, 8(%rsp)          # 4-byte Spill
	.loc	8 326 60                # /home/chris/test-suite/MultiSource/Benchmarks/Bullet/include/LinearMath/btQuaternion.h:326:60
	movq	%rbx, %rdi
	callq	_ZNK10btQuadWord1zEv
.Ltmp634:
	movss	(%rax), %xmm0           # xmm0 = mem[0],zero,zero,zero
	movss	%xmm0, 24(%rsp)         # 4-byte Spill
	.loc	8 326 69                # /home/chris/test-suite/MultiSource/Benchmarks/Bullet/include/LinearMath/btQuaternion.h:326:69
	movq	%r14, %rdi
	callq	_ZNK10btQuadWord1zEv
.Ltmp635:
	movss	(%rax), %xmm0           # xmm0 = mem[0],zero,zero,zero
	movss	24(%rsp), %xmm1         # 4-byte Reload
                                        # xmm1 = mem[0],zero,zero,zero
	.loc	8 326 64                # /home/chris/test-suite/MultiSource/Benchmarks/Bullet/include/LinearMath/btQuaternion.h:326:64
	mulss	%xmm0, %xmm1
	movss	8(%rsp), %xmm0          # 4-byte Reload
                                        # xmm0 = mem[0],zero,zero,zero
	.loc	8 326 55                # /home/chris/test-suite/MultiSource/Benchmarks/Bullet/include/LinearMath/btQuaternion.h:326:55
	subss	%xmm1, %xmm0
	.loc	8 326 3                 # /home/chris/test-suite/MultiSource/Benchmarks/Bullet/include/LinearMath/btQuaternion.h:326:3
	movss	%xmm0, 72(%rsp)
	leaq	88(%rsp), %rdi
	leaq	84(%rsp), %rsi
	leaq	80(%rsp), %rdx
	leaq	76(%rsp), %rcx
	leaq	72(%rsp), %r8
	.loc	8 323 9 is_stmt 1       # /home/chris/test-suite/MultiSource/Benchmarks/Bullet/include/LinearMath/btQuaternion.h:323:9
	callq	_ZN12btQuaternionC2ERKfS1_S1_S1_
.Ltmp636:
	.loc	8 323 2 is_stmt 0       # /home/chris/test-suite/MultiSource/Benchmarks/Bullet/include/LinearMath/btQuaternion.h:323:2
	movsd	88(%rsp), %xmm0         # xmm0 = mem[0],zero
	movsd	96(%rsp), %xmm1         # xmm1 = mem[0],zero
	addq	$104, %rsp
	.cfi_def_cfa_offset 24
	popq	%rbx
.Ltmp637:
	.cfi_def_cfa_offset 16
	popq	%r14
.Ltmp638:
	.cfi_def_cfa_offset 8
	retq
.Ltmp639:
.Lfunc_end37:
	.size	_ZmlRK12btQuaternionS1_, .Lfunc_end37-_ZmlRK12btQuaternionS1_
	.cfi_endproc
                                        # -- End function
	.section	.rodata.cst16,"aM",@progbits,16
	.p2align	4               # -- Begin function _ZNK12btQuaternion7inverseEv
.LCPI38_0:
	.long	2147483648              # float -0
	.long	2147483648              # float -0
	.long	2147483648              # float -0
	.long	2147483648              # float -0
	.section	.text._ZNK12btQuaternion7inverseEv,"axG",@progbits,_ZNK12btQuaternion7inverseEv,comdat
	.weak	_ZNK12btQuaternion7inverseEv
	.p2align	4, 0x90
	.type	_ZNK12btQuaternion7inverseEv,@function
_ZNK12btQuaternion7inverseEv:           # @_ZNK12btQuaternion7inverseEv
.Lfunc_begin38:
	.loc	8 224 0 is_stmt 1       # /home/chris/test-suite/MultiSource/Benchmarks/Bullet/include/LinearMath/btQuaternion.h:224:0
	.cfi_startproc
# %bb.0:
	subq	$40, %rsp
	.cfi_def_cfa_offset 48
	movq	%rdi, %r8
.Ltmp640:
	#DEBUG_VALUE: inverse:this <- $r8
	.loc	8 225 23 prologue_end   # /home/chris/test-suite/MultiSource/Benchmarks/Bullet/include/LinearMath/btQuaternion.h:225:23
	movss	(%r8), %xmm0            # xmm0 = mem[0],zero,zero,zero
	movaps	.LCPI38_0(%rip), %xmm1  # xmm1 = [-0.0E+0,-0.0E+0,-0.0E+0,-0.0E+0]
	pxor	%xmm1, %xmm0
	movss	%xmm0, 20(%rsp)
	.loc	8 225 37 is_stmt 0      # /home/chris/test-suite/MultiSource/Benchmarks/Bullet/include/LinearMath/btQuaternion.h:225:37
	movss	4(%r8), %xmm0           # xmm0 = mem[0],zero,zero,zero
	pxor	%xmm1, %xmm0
	movss	%xmm0, 16(%rsp)
	.loc	8 225 51                # /home/chris/test-suite/MultiSource/Benchmarks/Bullet/include/LinearMath/btQuaternion.h:225:51
	movss	8(%r8), %xmm0           # xmm0 = mem[0],zero,zero,zero
	pxor	%xmm1, %xmm0
	movss	%xmm0, 12(%rsp)
	.loc	8 225 65                # /home/chris/test-suite/MultiSource/Benchmarks/Bullet/include/LinearMath/btQuaternion.h:225:65
	addq	$12, %r8
.Ltmp641:
	.loc	8 0 65                  # /home/chris/test-suite/MultiSource/Benchmarks/Bullet/include/LinearMath/btQuaternion.h:0:65
	leaq	24(%rsp), %rdi
	leaq	20(%rsp), %rsi
	leaq	16(%rsp), %rdx
	leaq	12(%rsp), %rcx
	.loc	8 225 10                # /home/chris/test-suite/MultiSource/Benchmarks/Bullet/include/LinearMath/btQuaternion.h:225:10
	callq	_ZN12btQuaternionC2ERKfS1_S1_S1_
.Ltmp642:
	.loc	8 225 3                 # /home/chris/test-suite/MultiSource/Benchmarks/Bullet/include/LinearMath/btQuaternion.h:225:3
	movsd	24(%rsp), %xmm0         # xmm0 = mem[0],zero
	movsd	32(%rsp), %xmm1         # xmm1 = mem[0],zero
	addq	$40, %rsp
	.cfi_def_cfa_offset 8
	retq
.Ltmp643:
.Lfunc_end38:
	.size	_ZNK12btQuaternion7inverseEv, .Lfunc_end38-_ZNK12btQuaternion7inverseEv
	.cfi_endproc
                                        # -- End function
	.section	.text._ZN11btMatrix3x3C2ERK12btQuaternion,"axG",@progbits,_ZN11btMatrix3x3C2ERK12btQuaternion,comdat
	.weak	_ZN11btMatrix3x3C2ERK12btQuaternion # -- Begin function _ZN11btMatrix3x3C2ERK12btQuaternion
	.p2align	4, 0x90
	.type	_ZN11btMatrix3x3C2ERK12btQuaternion,@function
_ZN11btMatrix3x3C2ERK12btQuaternion:    # @_ZN11btMatrix3x3C2ERK12btQuaternion
.Lfunc_begin39:
	.loc	6 36 0 is_stmt 1        # /home/chris/test-suite/MultiSource/Benchmarks/Bullet/include/LinearMath/btMatrix3x3.h:36:0
	.cfi_startproc
# %bb.0:
	pushq	%r15
	.cfi_def_cfa_offset 16
	pushq	%r14
	.cfi_def_cfa_offset 24
	pushq	%r12
	.cfi_def_cfa_offset 32
	pushq	%rbx
	.cfi_def_cfa_offset 40
	pushq	%rax
	.cfi_def_cfa_offset 48
	.cfi_offset %rbx, -40
	.cfi_offset %r12, -32
	.cfi_offset %r14, -24
	.cfi_offset %r15, -16
	movq	%rsi, %r14
	movq	%rdi, %r15
.Ltmp644:
	#DEBUG_VALUE: btMatrix3x3:q <- $r14
	#DEBUG_VALUE: btMatrix3x3:this <- $r15
	.loc	6 36 12 prologue_end    # /home/chris/test-suite/MultiSource/Benchmarks/Bullet/include/LinearMath/btMatrix3x3.h:36:12
	movq	%r15, %r12
	addq	$48, %r12
	movq	%r15, %rbx
.Ltmp645:
.LBB39_1:                               # =>This Inner Loop Header: Depth=1
	#DEBUG_VALUE: btMatrix3x3:this <- $r15
	#DEBUG_VALUE: btMatrix3x3:q <- $r14
	movq	%rbx, %rdi
	callq	_ZN9btVector3C2Ev
.Ltmp646:
	addq	$16, %rbx
	cmpq	%r12, %rbx
	jne	.LBB39_1
.Ltmp647:
# %bb.2:
	#DEBUG_VALUE: btMatrix3x3:this <- $r15
	#DEBUG_VALUE: btMatrix3x3:q <- $r14
	.loc	6 36 49 is_stmt 0       # /home/chris/test-suite/MultiSource/Benchmarks/Bullet/include/LinearMath/btMatrix3x3.h:36:49
	movq	%r15, %rdi
	movq	%r14, %rsi
	callq	_ZN11btMatrix3x311setRotationERK12btQuaternion
.Ltmp648:
	.loc	6 36 65                 # /home/chris/test-suite/MultiSource/Benchmarks/Bullet/include/LinearMath/btMatrix3x3.h:36:65
	addq	$8, %rsp
	.cfi_def_cfa_offset 40
	popq	%rbx
	.cfi_def_cfa_offset 32
	popq	%r12
	.cfi_def_cfa_offset 24
	popq	%r14
.Ltmp649:
	.cfi_def_cfa_offset 16
	popq	%r15
.Ltmp650:
	.cfi_def_cfa_offset 8
	retq
.Ltmp651:
.Lfunc_end39:
	.size	_ZN11btMatrix3x3C2ERK12btQuaternion, .Lfunc_end39-_ZN11btMatrix3x3C2ERK12btQuaternion
	.cfi_endproc
                                        # -- End function
	.section	.text._ZN11btTransform8getBasisEv,"axG",@progbits,_ZN11btTransform8getBasisEv,comdat
	.weak	_ZN11btTransform8getBasisEv # -- Begin function _ZN11btTransform8getBasisEv
	.p2align	4, 0x90
	.type	_ZN11btTransform8getBasisEv,@function
_ZN11btTransform8getBasisEv:            # @_ZN11btTransform8getBasisEv
.Lfunc_begin40:
	.loc	12 102 0 is_stmt 1      # /home/chris/test-suite/MultiSource/Benchmarks/Bullet/include/LinearMath/btTransform.h:102:0
	.cfi_startproc
# %bb.0:
	movq	%rdi, %rax
.Ltmp652:
	#DEBUG_VALUE: getBasis:this <- $rax
	.loc	12 102 61 prologue_end  # /home/chris/test-suite/MultiSource/Benchmarks/Bullet/include/LinearMath/btTransform.h:102:61
	retq
.Ltmp653:
.Lfunc_end40:
	.size	_ZN11btTransform8getBasisEv, .Lfunc_end40-_ZN11btTransform8getBasisEv
	.cfi_endproc
                                        # -- End function
	.section	.text._ZN24btPerturbedContactResultC2EP16btManifoldResultRK11btTransformS4_S4_bP12btIDebugDraw,"axG",@progbits,_ZN24btPerturbedContactResultC2EP16btManifoldResultRK11btTransformS4_S4_bP12btIDebugDraw,comdat
	.weak	_ZN24btPerturbedContactResultC2EP16btManifoldResultRK11btTransformS4_S4_bP12btIDebugDraw # -- Begin function _ZN24btPerturbedContactResultC2EP16btManifoldResultRK11btTransformS4_S4_bP12btIDebugDraw
	.p2align	4, 0x90
	.type	_ZN24btPerturbedContactResultC2EP16btManifoldResultRK11btTransformS4_S4_bP12btIDebugDraw,@function
_ZN24btPerturbedContactResultC2EP16btManifoldResultRK11btTransformS4_S4_bP12btIDebugDraw: # @_ZN24btPerturbedContactResultC2EP16btManifoldResultRK11btTransformS4_S4_bP12btIDebugDraw
.Lfunc_begin41:
	.loc	2 244 0                 # /home/chris/test-suite/MultiSource/Benchmarks/Bullet/btConvexConvexAlgorithm.cpp:244:0
	.cfi_startproc
	.cfi_personality 3, __gxx_personality_v0
	.cfi_lsda 3, .Lexception3
# %bb.0:
	#DEBUG_VALUE: btPerturbedContactResult:this <- $rdi
	#DEBUG_VALUE: btPerturbedContactResult:originalResult <- $rsi
	#DEBUG_VALUE: btPerturbedContactResult:transformA <- $rdx
	pushq	%rbp
	.cfi_def_cfa_offset 16
	pushq	%r15
	.cfi_def_cfa_offset 24
	pushq	%r14
	.cfi_def_cfa_offset 32
	pushq	%r13
	.cfi_def_cfa_offset 40
	pushq	%r12
	.cfi_def_cfa_offset 48
	pushq	%rbx
	.cfi_def_cfa_offset 56
	pushq	%rax
	.cfi_def_cfa_offset 64
	.cfi_offset %rbx, -56
	.cfi_offset %r12, -48
	.cfi_offset %r13, -40
	.cfi_offset %r14, -32
	.cfi_offset %r15, -24
	.cfi_offset %rbp, -16
	movl	%r9d, %r12d
	movq	%r8, %r14
	movq	%rcx, %r15
	movq	%rdx, %r13
.Ltmp661:
	#DEBUG_VALUE: btPerturbedContactResult:transformA <- $r13
	movq	%rsi, %rbp
.Ltmp662:
	#DEBUG_VALUE: btPerturbedContactResult:originalResult <- $rbp
	movq	%rdi, %rbx
.Ltmp663:
	#DEBUG_VALUE: btPerturbedContactResult:this <- $rbx
	andb	$1, %r12b
.Ltmp664:
	#DEBUG_VALUE: btPerturbedContactResult:perturbA <- $r12b
	.loc	2 237 2 prologue_end    # /home/chris/test-suite/MultiSource/Benchmarks/Bullet/btConvexConvexAlgorithm.cpp:237:2
	movq	%rbx, %rdi
	callq	_ZN16btManifoldResultC2Ev
.Ltmp665:
	.loc	2 244 2                 # /home/chris/test-suite/MultiSource/Benchmarks/Bullet/btConvexConvexAlgorithm.cpp:244:2
	movq	$_ZTV24btPerturbedContactResult+16, (%rbx)
	.loc	2 238 4                 # /home/chris/test-suite/MultiSource/Benchmarks/Bullet/btConvexConvexAlgorithm.cpp:238:4
	movq	%rbp, 176(%rbx)
	.loc	2 239 3                 # /home/chris/test-suite/MultiSource/Benchmarks/Bullet/btConvexConvexAlgorithm.cpp:239:3
	movq	%rbx, %rdi
	addq	$184, %rdi
.Ltmp654:
	movq	%r13, %rsi
.Ltmp666:
	#DEBUG_VALUE: btPerturbedContactResult:transformA <- $rsi
	callq	_ZN11btTransformC2ERKS_
.Ltmp667:
.Ltmp655:
	#DEBUG_VALUE: btPerturbedContactResult:debugDrawer <- undef
	#DEBUG_VALUE: btPerturbedContactResult:unPerturbedTransform <- undef
	#DEBUG_VALUE: btPerturbedContactResult:transformB <- undef
	jmp	.LBB41_1
.Ltmp668:
.LBB41_1:
	#DEBUG_VALUE: btPerturbedContactResult:perturbA <- $r12b
	#DEBUG_VALUE: btPerturbedContactResult:this <- $rbx
	#DEBUG_VALUE: btPerturbedContactResult:originalResult <- $rbp
	.loc	2 240 3                 # /home/chris/test-suite/MultiSource/Benchmarks/Bullet/btConvexConvexAlgorithm.cpp:240:3
	movq	%rbx, %rdi
	addq	$248, %rdi
.Ltmp656:
	movq	%r15, %rsi
	callq	_ZN11btTransformC2ERKS_
.Ltmp669:
.Ltmp657:
	jmp	.LBB41_2
.Ltmp670:
.LBB41_2:
	#DEBUG_VALUE: btPerturbedContactResult:perturbA <- $r12b
	#DEBUG_VALUE: btPerturbedContactResult:this <- $rbx
	#DEBUG_VALUE: btPerturbedContactResult:originalResult <- $rbp
	.loc	2 242 3                 # /home/chris/test-suite/MultiSource/Benchmarks/Bullet/btConvexConvexAlgorithm.cpp:242:3
	movq	%rbx, %rdi
	addq	$312, %rdi              # imm = 0x138
.Ltmp658:
	movq	%r14, %rsi
	callq	_ZN11btTransformC2ERKS_
.Ltmp671:
.Ltmp659:
	jmp	.LBB41_3
.Ltmp672:
.LBB41_3:
	#DEBUG_VALUE: btPerturbedContactResult:perturbA <- $r12b
	#DEBUG_VALUE: btPerturbedContactResult:this <- $rbx
	#DEBUG_VALUE: btPerturbedContactResult:originalResult <- $rbp
	.loc	2 241 3                 # /home/chris/test-suite/MultiSource/Benchmarks/Bullet/btConvexConvexAlgorithm.cpp:241:3
	movb	%r12b, 376(%rbx)
	.loc	2 243 3                 # /home/chris/test-suite/MultiSource/Benchmarks/Bullet/btConvexConvexAlgorithm.cpp:243:3
	movq	64(%rsp), %rax
	movq	%rax, 384(%rbx)
	.loc	2 245 2                 # /home/chris/test-suite/MultiSource/Benchmarks/Bullet/btConvexConvexAlgorithm.cpp:245:2
	addq	$8, %rsp
	.cfi_def_cfa_offset 56
	popq	%rbx
.Ltmp673:
	.cfi_def_cfa_offset 48
	popq	%r12
.Ltmp674:
	.cfi_def_cfa_offset 40
	popq	%r13
	.cfi_def_cfa_offset 32
	popq	%r14
	.cfi_def_cfa_offset 24
	popq	%r15
	.cfi_def_cfa_offset 16
	popq	%rbp
.Ltmp675:
	.cfi_def_cfa_offset 8
	retq
.LBB41_4:
	.cfi_def_cfa_offset 64
.Ltmp676:
	#DEBUG_VALUE: btPerturbedContactResult:perturbA <- $r12b
	#DEBUG_VALUE: btPerturbedContactResult:this <- $rbx
	#DEBUG_VALUE: btPerturbedContactResult:originalResult <- $rbp
.Ltmp660:
                                        # kill: killed $rdx
	.loc	2 0 2 is_stmt 0         # /home/chris/test-suite/MultiSource/Benchmarks/Bullet/btConvexConvexAlgorithm.cpp:0:2
	movq	%rax, %rbp
.Ltmp677:
	.loc	2 245 2                 # /home/chris/test-suite/MultiSource/Benchmarks/Bullet/btConvexConvexAlgorithm.cpp:245:2
	movq	%rbx, %rdi
	callq	_ZN36btDiscreteCollisionDetectorInterface6ResultD2Ev
.Ltmp678:
	.loc	2 0 2                   # /home/chris/test-suite/MultiSource/Benchmarks/Bullet/btConvexConvexAlgorithm.cpp:0:2
	movq	%rbp, %rdi
	callq	_Unwind_Resume
.Ltmp679:
.Lfunc_end41:
	.size	_ZN24btPerturbedContactResultC2EP16btManifoldResultRK11btTransformS4_S4_bP12btIDebugDraw, .Lfunc_end41-_ZN24btPerturbedContactResultC2EP16btManifoldResultRK11btTransformS4_S4_bP12btIDebugDraw
	.cfi_endproc
	.section	.gcc_except_table,"a",@progbits
	.p2align	2
GCC_except_table41:
.Lexception3:
	.byte	255                     # @LPStart Encoding = omit
	.byte	255                     # @TType Encoding = omit
	.byte	1                       # Call site Encoding = uleb128
	.uleb128 .Lcst_end3-.Lcst_begin3
.Lcst_begin3:
	.uleb128 .Lfunc_begin41-.Lfunc_begin41 # >> Call Site 1 <<
	.uleb128 .Ltmp654-.Lfunc_begin41 #   Call between .Lfunc_begin41 and .Ltmp654
	.byte	0                       #     has no landing pad
	.byte	0                       #   On action: cleanup
	.uleb128 .Ltmp654-.Lfunc_begin41 # >> Call Site 2 <<
	.uleb128 .Ltmp659-.Ltmp654      #   Call between .Ltmp654 and .Ltmp659
	.uleb128 .Ltmp660-.Lfunc_begin41 #     jumps to .Ltmp660
	.byte	0                       #   On action: cleanup
	.uleb128 .Ltmp659-.Lfunc_begin41 # >> Call Site 3 <<
	.uleb128 .Lfunc_end41-.Ltmp659  #   Call between .Ltmp659 and .Lfunc_end41
	.byte	0                       #     has no landing pad
	.byte	0                       #   On action: cleanup
.Lcst_end3:
	.p2align	2
                                        # -- End function
	.section	.text._ZN30btConvexSeparatingDistanceUtil22initSeparatingDistanceERK9btVector3fRK11btTransformS5_,"axG",@progbits,_ZN30btConvexSeparatingDistanceUtil22initSeparatingDistanceERK9btVector3fRK11btTransformS5_,comdat
	.weak	_ZN30btConvexSeparatingDistanceUtil22initSeparatingDistanceERK9btVector3fRK11btTransformS5_ # -- Begin function _ZN30btConvexSeparatingDistanceUtil22initSeparatingDistanceERK9btVector3fRK11btTransformS5_
	.p2align	4, 0x90
	.type	_ZN30btConvexSeparatingDistanceUtil22initSeparatingDistanceERK9btVector3fRK11btTransformS5_,@function
_ZN30btConvexSeparatingDistanceUtil22initSeparatingDistanceERK9btVector3fRK11btTransformS5_: # @_ZN30btConvexSeparatingDistanceUtil22initSeparatingDistanceERK9btVector3fRK11btTransformS5_
.Lfunc_begin42:
	.loc	25 208 0 is_stmt 1      # /home/chris/test-suite/MultiSource/Benchmarks/Bullet/include/LinearMath/btTransformUtil.h:208:0
	.cfi_startproc
# %bb.0:
	pushq	%r15
	.cfi_def_cfa_offset 16
	pushq	%r14
	.cfi_def_cfa_offset 24
	pushq	%r13
	.cfi_def_cfa_offset 32
	pushq	%r12
	.cfi_def_cfa_offset 40
	pushq	%rbx
	.cfi_def_cfa_offset 48
	subq	$32, %rsp
	.cfi_def_cfa_offset 80
	.cfi_offset %rbx, -48
	.cfi_offset %r12, -40
	.cfi_offset %r13, -32
	.cfi_offset %r14, -24
	.cfi_offset %r15, -16
	movq	%rcx, %r14
	movq	%rdx, %r15
	movq	%rdi, %rbx
.Ltmp680:
	#DEBUG_VALUE: initSeparatingDistance:transB <- $r14
	#DEBUG_VALUE: initSeparatingDistance:transA <- $r15
	#DEBUG_VALUE: initSeparatingDistance:separatingDistance <- $xmm0
	#DEBUG_VALUE: initSeparatingDistance:separatingVector <- $rsi
	#DEBUG_VALUE: initSeparatingDistance:this <- $rbx
	.loc	25 209 24 prologue_end  # /home/chris/test-suite/MultiSource/Benchmarks/Bullet/include/LinearMath/btTransformUtil.h:209:24
	movss	%xmm0, 88(%rbx)
.Ltmp681:
	.loc	25 211 27               # /home/chris/test-suite/MultiSource/Benchmarks/Bullet/include/LinearMath/btTransformUtil.h:211:27
	xorps	%xmm1, %xmm1
	ucomiss	%xmm1, %xmm0
.Ltmp682:
	.loc	25 211 7 is_stmt 0      # /home/chris/test-suite/MultiSource/Benchmarks/Bullet/include/LinearMath/btTransformUtil.h:211:7
	jbe	.LBB42_2
.Ltmp683:
# %bb.1:
	#DEBUG_VALUE: initSeparatingDistance:this <- $rbx
	#DEBUG_VALUE: initSeparatingDistance:separatingVector <- $rsi
	#DEBUG_VALUE: initSeparatingDistance:separatingDistance <- $xmm0
	#DEBUG_VALUE: initSeparatingDistance:transA <- $r15
	#DEBUG_VALUE: initSeparatingDistance:transB <- $r14
	.loc	25 213 23 is_stmt 1     # /home/chris/test-suite/MultiSource/Benchmarks/Bullet/include/LinearMath/btTransformUtil.h:213:23
	movups	(%rsi), %xmm0
.Ltmp684:
	movups	%xmm0, 64(%rbx)
	.loc	25 215 37               # /home/chris/test-suite/MultiSource/Benchmarks/Bullet/include/LinearMath/btTransformUtil.h:215:37
	movq	%r15, %rdi
	callq	_ZNK11btTransform9getOriginEv
.Ltmp685:
	movq	%rax, %r12
.Ltmp686:
	#DEBUG_VALUE: toPosA <- $r12
	.loc	25 216 37               # /home/chris/test-suite/MultiSource/Benchmarks/Bullet/include/LinearMath/btTransformUtil.h:216:37
	movq	%r14, %rdi
	callq	_ZNK11btTransform9getOriginEv
.Ltmp687:
	movq	%rax, %r13
.Ltmp688:
	#DEBUG_VALUE: toPosB <- $r13
	.loc	25 217 33               # /home/chris/test-suite/MultiSource/Benchmarks/Bullet/include/LinearMath/btTransformUtil.h:217:33
	movq	%r15, %rdi
	callq	_ZNK11btTransform11getRotationEv
.Ltmp689:
	.loc	25 0 33 is_stmt 0       # /home/chris/test-suite/MultiSource/Benchmarks/Bullet/include/LinearMath/btTransformUtil.h:0:33
	movaps	%xmm0, 16(%rsp)         # 16-byte Spill
	movaps	%xmm1, (%rsp)           # 16-byte Spill
.Ltmp690:
	#DEBUG_VALUE: toOrnA <- [DW_OP_LLVM_fragment 64 64] undef
	#DEBUG_VALUE: toOrnA <- [DW_OP_LLVM_fragment 0 64] undef
	.loc	25 218 33 is_stmt 1     # /home/chris/test-suite/MultiSource/Benchmarks/Bullet/include/LinearMath/btTransformUtil.h:218:33
	movq	%r14, %rdi
	callq	_ZNK11btTransform11getRotationEv
.Ltmp691:
	#DEBUG_VALUE: toOrnB <- [DW_OP_LLVM_fragment 64 64] undef
	#DEBUG_VALUE: toOrnB <- [DW_OP_LLVM_fragment 0 64] undef
	.loc	25 219 11               # /home/chris/test-suite/MultiSource/Benchmarks/Bullet/include/LinearMath/btTransformUtil.h:219:11
	movups	(%r12), %xmm2
	movups	%xmm2, 32(%rbx)
	.loc	25 220 11               # /home/chris/test-suite/MultiSource/Benchmarks/Bullet/include/LinearMath/btTransformUtil.h:220:11
	movups	(%r13), %xmm2
	movups	%xmm2, 48(%rbx)
	movaps	16(%rsp), %xmm2         # 16-byte Reload
	.loc	25 221 11               # /home/chris/test-suite/MultiSource/Benchmarks/Bullet/include/LinearMath/btTransformUtil.h:221:11
	movlpd	%xmm2, (%rbx)
	movaps	(%rsp), %xmm2           # 16-byte Reload
	movlpd	%xmm2, 8(%rbx)
	.loc	25 222 11               # /home/chris/test-suite/MultiSource/Benchmarks/Bullet/include/LinearMath/btTransformUtil.h:222:11
	movlpd	%xmm0, 16(%rbx)
	movlpd	%xmm1, 24(%rbx)
.Ltmp692:
.LBB42_2:
	#DEBUG_VALUE: initSeparatingDistance:this <- $rbx
	#DEBUG_VALUE: initSeparatingDistance:transA <- $r15
	#DEBUG_VALUE: initSeparatingDistance:transB <- $r14
	.loc	25 224 2                # /home/chris/test-suite/MultiSource/Benchmarks/Bullet/include/LinearMath/btTransformUtil.h:224:2
	addq	$32, %rsp
	.cfi_def_cfa_offset 48
	popq	%rbx
.Ltmp693:
	.cfi_def_cfa_offset 40
	popq	%r12
	.cfi_def_cfa_offset 32
	popq	%r13
	.cfi_def_cfa_offset 24
	popq	%r14
.Ltmp694:
	.cfi_def_cfa_offset 16
	popq	%r15
.Ltmp695:
	.cfi_def_cfa_offset 8
	retq
.Ltmp696:
.Lfunc_end42:
	.size	_ZN30btConvexSeparatingDistanceUtil22initSeparatingDistanceERK9btVector3fRK11btTransformS5_, .Lfunc_end42-_ZN30btConvexSeparatingDistanceUtil22initSeparatingDistanceERK9btVector3fRK11btTransformS5_
	.cfi_endproc
                                        # -- End function
	.section	.text._ZN36btDiscreteCollisionDetectorInterfaceD2Ev,"axG",@progbits,_ZN36btDiscreteCollisionDetectorInterfaceD2Ev,comdat
	.weak	_ZN36btDiscreteCollisionDetectorInterfaceD2Ev # -- Begin function _ZN36btDiscreteCollisionDetectorInterfaceD2Ev
	.p2align	4, 0x90
	.type	_ZN36btDiscreteCollisionDetectorInterfaceD2Ev,@function
_ZN36btDiscreteCollisionDetectorInterfaceD2Ev: # @_ZN36btDiscreteCollisionDetectorInterfaceD2Ev
.Lfunc_begin43:
	.loc	36 56 0                 # /home/chris/test-suite/MultiSource/Benchmarks/Bullet/include/BulletCollision/NarrowPhaseCollision/btDiscreteCollisionDetectorInterface.h:56:0
	.cfi_startproc
# %bb.0:
                                        # kill: killed $rdi
	#DEBUG_VALUE: ~btDiscreteCollisionDetectorInterface:this <- undef
	.loc	36 56 51 prologue_end   # /home/chris/test-suite/MultiSource/Benchmarks/Bullet/include/BulletCollision/NarrowPhaseCollision/btDiscreteCollisionDetectorInterface.h:56:51
	retq
.Ltmp697:
.Lfunc_end43:
	.size	_ZN36btDiscreteCollisionDetectorInterfaceD2Ev, .Lfunc_end43-_ZN36btDiscreteCollisionDetectorInterfaceD2Ev
	.cfi_endproc
                                        # -- End function
	.section	.rodata.cst4,"aM",@progbits,4
	.p2align	2               # -- Begin function _ZN23btConvexConvexAlgorithm21calculateTimeOfImpactEP17btCollisionObjectS1_RK16btDispatcherInfoP16btManifoldResult
.LCPI44_0:
	.long	1065353216              # float 1
	.text
	.globl	_ZN23btConvexConvexAlgorithm21calculateTimeOfImpactEP17btCollisionObjectS1_RK16btDispatcherInfoP16btManifoldResult
	.p2align	4, 0x90
	.type	_ZN23btConvexConvexAlgorithm21calculateTimeOfImpactEP17btCollisionObjectS1_RK16btDispatcherInfoP16btManifoldResult,@function
_ZN23btConvexConvexAlgorithm21calculateTimeOfImpactEP17btCollisionObjectS1_RK16btDispatcherInfoP16btManifoldResult: # @_ZN23btConvexConvexAlgorithm21calculateTimeOfImpactEP17btCollisionObjectS1_RK16btDispatcherInfoP16btManifoldResult
.Lfunc_begin44:
	.loc	2 472 0                 # /home/chris/test-suite/MultiSource/Benchmarks/Bullet/btConvexConvexAlgorithm.cpp:472:0
	.cfi_startproc
	.cfi_personality 3, __gxx_personality_v0
	.cfi_lsda 3, .Lexception4
# %bb.0:
	pushq	%r15
	.cfi_def_cfa_offset 16
	pushq	%r14
	.cfi_def_cfa_offset 24
	pushq	%r13
	.cfi_def_cfa_offset 32
	pushq	%r12
	.cfi_def_cfa_offset 40
	pushq	%rbx
	.cfi_def_cfa_offset 48
	subq	$1344, %rsp             # imm = 0x540
	.cfi_def_cfa_offset 1392
	.cfi_offset %rbx, -48
	.cfi_offset %r12, -40
	.cfi_offset %r13, -32
	.cfi_offset %r14, -24
	.cfi_offset %r15, -16
                                        # kill: killed $r8
                                        # kill: killed $rcx
	movq	%rdx, %r14
	movq	%rsi, %r12
                                        # kill: killed $rdi
.Ltmp722:
	#DEBUG_VALUE: calculateTimeOfImpact:col1 <- $r14
	#DEBUG_VALUE: calculateTimeOfImpact:col0 <- $r12
	#DEBUG_VALUE: calculateTimeOfImpact:resultFraction <- 1.000000e+00
	#DEBUG_VALUE: calculateTimeOfImpact:resultOut <- undef
	#DEBUG_VALUE: calculateTimeOfImpact:dispatchInfo <- undef
	#DEBUG_VALUE: calculateTimeOfImpact:this <- undef
	.loc	2 482 31 prologue_end   # /home/chris/test-suite/MultiSource/Benchmarks/Bullet/btConvexConvexAlgorithm.cpp:482:31
	movq	%r12, %rdi
	callq	_ZN17btCollisionObject30getInterpolationWorldTransformEv
.Ltmp723:
	.loc	2 482 64 is_stmt 0      # /home/chris/test-suite/MultiSource/Benchmarks/Bullet/btConvexConvexAlgorithm.cpp:482:64
	movq	%rax, %rdi
	callq	_ZN11btTransform9getOriginEv
.Ltmp724:
	movq	%rax, %rbx
	.loc	2 482 84                # /home/chris/test-suite/MultiSource/Benchmarks/Bullet/btConvexConvexAlgorithm.cpp:482:84
	movq	%r12, %rdi
	callq	_ZN17btCollisionObject17getWorldTransformEv
.Ltmp725:
	.loc	2 482 104               # /home/chris/test-suite/MultiSource/Benchmarks/Bullet/btConvexConvexAlgorithm.cpp:482:104
	movq	%rax, %rdi
	callq	_ZN11btTransform9getOriginEv
.Ltmp726:
	.loc	2 482 76                # /home/chris/test-suite/MultiSource/Benchmarks/Bullet/btConvexConvexAlgorithm.cpp:482:76
	movq	%rbx, %rdi
	movq	%rax, %rsi
	callq	_ZmiRK9btVector3S1_
.Ltmp727:
	movlpd	%xmm0, 32(%rsp)
	movlpd	%xmm1, 40(%rsp)
	leaq	32(%rsp), %rdi
	.loc	2 482 117               # /home/chris/test-suite/MultiSource/Benchmarks/Bullet/btConvexConvexAlgorithm.cpp:482:117
	callq	_ZNK9btVector37length2Ev
.Ltmp728:
	.loc	2 0 117                 # /home/chris/test-suite/MultiSource/Benchmarks/Bullet/btConvexConvexAlgorithm.cpp:0:117
	movss	%xmm0, 12(%rsp)         # 4-byte Spill
.Ltmp729:
	#DEBUG_VALUE: calculateTimeOfImpact:squareMot0 <- [DW_OP_plus_uconst 12] [$rsp+0]
	.loc	2 483 31 is_stmt 1      # /home/chris/test-suite/MultiSource/Benchmarks/Bullet/btConvexConvexAlgorithm.cpp:483:31
	movq	%r14, %rdi
	callq	_ZN17btCollisionObject30getInterpolationWorldTransformEv
.Ltmp730:
	.loc	2 483 64 is_stmt 0      # /home/chris/test-suite/MultiSource/Benchmarks/Bullet/btConvexConvexAlgorithm.cpp:483:64
	movq	%rax, %rdi
	callq	_ZN11btTransform9getOriginEv
.Ltmp731:
	movq	%rax, %rbx
	.loc	2 483 84                # /home/chris/test-suite/MultiSource/Benchmarks/Bullet/btConvexConvexAlgorithm.cpp:483:84
	movq	%r14, %rdi
	callq	_ZN17btCollisionObject17getWorldTransformEv
.Ltmp732:
	.loc	2 483 104               # /home/chris/test-suite/MultiSource/Benchmarks/Bullet/btConvexConvexAlgorithm.cpp:483:104
	movq	%rax, %rdi
	callq	_ZN11btTransform9getOriginEv
.Ltmp733:
	.loc	2 483 76                # /home/chris/test-suite/MultiSource/Benchmarks/Bullet/btConvexConvexAlgorithm.cpp:483:76
	movq	%rbx, %rdi
	movq	%rax, %rsi
	callq	_ZmiRK9btVector3S1_
.Ltmp734:
	movlpd	%xmm0, 16(%rsp)
	movlpd	%xmm1, 24(%rsp)
	.loc	2 483 117               # /home/chris/test-suite/MultiSource/Benchmarks/Bullet/btConvexConvexAlgorithm.cpp:483:117
	leaq	16(%rsp), %rdi
	callq	_ZNK9btVector37length2Ev
.Ltmp735:
	.loc	2 0 117                 # /home/chris/test-suite/MultiSource/Benchmarks/Bullet/btConvexConvexAlgorithm.cpp:0:117
	movss	%xmm0, 8(%rsp)          # 4-byte Spill
.Ltmp736:
	#DEBUG_VALUE: calculateTimeOfImpact:squareMot1 <- [DW_OP_plus_uconst 8] [$rsp+0]
	.loc	2 485 25 is_stmt 1      # /home/chris/test-suite/MultiSource/Benchmarks/Bullet/btConvexConvexAlgorithm.cpp:485:25
	movq	%r12, %rdi
	callq	_ZNK17btCollisionObject27getCcdSquareMotionThresholdEv
.Ltmp737:
	.loc	2 485 17 is_stmt 0      # /home/chris/test-suite/MultiSource/Benchmarks/Bullet/btConvexConvexAlgorithm.cpp:485:17
	ucomiss	12(%rsp), %xmm0         # 4-byte Folded Reload
	.loc	2 485 55                # /home/chris/test-suite/MultiSource/Benchmarks/Bullet/btConvexConvexAlgorithm.cpp:485:55
	jbe	.LBB44_3
.Ltmp738:
# %bb.1:
	#DEBUG_VALUE: calculateTimeOfImpact:squareMot1 <- [DW_OP_plus_uconst 8] [$rsp+0]
	#DEBUG_VALUE: calculateTimeOfImpact:squareMot0 <- [DW_OP_plus_uconst 12] [$rsp+0]
	#DEBUG_VALUE: calculateTimeOfImpact:resultFraction <- 1.000000e+00
	#DEBUG_VALUE: calculateTimeOfImpact:col0 <- $r12
	#DEBUG_VALUE: calculateTimeOfImpact:col1 <- $r14
	.loc	2 486 22 is_stmt 1      # /home/chris/test-suite/MultiSource/Benchmarks/Bullet/btConvexConvexAlgorithm.cpp:486:22
	movq	%r14, %rdi
	callq	_ZNK17btCollisionObject27getCcdSquareMotionThresholdEv
.Ltmp739:
	.loc	2 486 14 is_stmt 0      # /home/chris/test-suite/MultiSource/Benchmarks/Bullet/btConvexConvexAlgorithm.cpp:486:14
	ucomiss	8(%rsp), %xmm0          # 4-byte Folded Reload
.Ltmp740:
	.loc	2 485 6 is_stmt 1       # /home/chris/test-suite/MultiSource/Benchmarks/Bullet/btConvexConvexAlgorithm.cpp:485:6
	jbe	.LBB44_3
.Ltmp741:
# %bb.2:
	#DEBUG_VALUE: calculateTimeOfImpact:squareMot1 <- [DW_OP_plus_uconst 8] [$rsp+0]
	#DEBUG_VALUE: calculateTimeOfImpact:squareMot0 <- [DW_OP_plus_uconst 12] [$rsp+0]
	#DEBUG_VALUE: calculateTimeOfImpact:resultFraction <- 1.000000e+00
	#DEBUG_VALUE: calculateTimeOfImpact:col0 <- $r12
	#DEBUG_VALUE: calculateTimeOfImpact:col1 <- $r14
	.loc	2 0 6 is_stmt 0         # /home/chris/test-suite/MultiSource/Benchmarks/Bullet/btConvexConvexAlgorithm.cpp:0:6
	movss	.LCPI44_0(%rip), %xmm0  # xmm0 = mem[0],zero,zero,zero
.Ltmp742:
	.loc	2 487 3 is_stmt 1       # /home/chris/test-suite/MultiSource/Benchmarks/Bullet/btConvexConvexAlgorithm.cpp:487:3
	jmp	.LBB44_42
.Ltmp743:
.LBB44_3:
	#DEBUG_VALUE: calculateTimeOfImpact:squareMot1 <- [DW_OP_plus_uconst 8] [$rsp+0]
	#DEBUG_VALUE: calculateTimeOfImpact:squareMot0 <- [DW_OP_plus_uconst 12] [$rsp+0]
	#DEBUG_VALUE: calculateTimeOfImpact:resultFraction <- 1.000000e+00
	#DEBUG_VALUE: calculateTimeOfImpact:col0 <- $r12
	#DEBUG_VALUE: calculateTimeOfImpact:col1 <- $r14
	.loc	2 489 6                 # /home/chris/test-suite/MultiSource/Benchmarks/Bullet/btConvexConvexAlgorithm.cpp:489:6
	testb	$1, disableCcd
	je	.LBB44_5
.Ltmp744:
# %bb.4:
	#DEBUG_VALUE: calculateTimeOfImpact:squareMot1 <- [DW_OP_plus_uconst 8] [$rsp+0]
	#DEBUG_VALUE: calculateTimeOfImpact:squareMot0 <- [DW_OP_plus_uconst 12] [$rsp+0]
	#DEBUG_VALUE: calculateTimeOfImpact:resultFraction <- 1.000000e+00
	#DEBUG_VALUE: calculateTimeOfImpact:col0 <- $r12
	#DEBUG_VALUE: calculateTimeOfImpact:col1 <- $r14
	.loc	2 0 6 is_stmt 0         # /home/chris/test-suite/MultiSource/Benchmarks/Bullet/btConvexConvexAlgorithm.cpp:0:6
	movss	.LCPI44_0(%rip), %xmm0  # xmm0 = mem[0],zero,zero,zero
.Ltmp745:
	.loc	2 490 3 is_stmt 1       # /home/chris/test-suite/MultiSource/Benchmarks/Bullet/btConvexConvexAlgorithm.cpp:490:3
	jmp	.LBB44_42
.Ltmp746:
.LBB44_5:
	#DEBUG_VALUE: calculateTimeOfImpact:squareMot1 <- [DW_OP_plus_uconst 8] [$rsp+0]
	#DEBUG_VALUE: calculateTimeOfImpact:squareMot0 <- [DW_OP_plus_uconst 12] [$rsp+0]
	#DEBUG_VALUE: calculateTimeOfImpact:resultFraction <- 1.000000e+00
	#DEBUG_VALUE: calculateTimeOfImpact:col0 <- $r12
	#DEBUG_VALUE: calculateTimeOfImpact:col1 <- $r14
	.loc	2 502 62                # /home/chris/test-suite/MultiSource/Benchmarks/Bullet/btConvexConvexAlgorithm.cpp:502:62
	movq	%r12, %rdi
	callq	_ZN17btCollisionObject17getCollisionShapeEv
.Ltmp747:
	movq	%rax, %r15
.Ltmp748:
	#DEBUG_VALUE: convex0 <- $r15
	.loc	2 0 62 is_stmt 0        # /home/chris/test-suite/MultiSource/Benchmarks/Bullet/btConvexConvexAlgorithm.cpp:0:62
	leaq	176(%rsp), %rbx
	.loc	2 504 31 is_stmt 1      # /home/chris/test-suite/MultiSource/Benchmarks/Bullet/btConvexConvexAlgorithm.cpp:504:31
	movq	%r14, %rdi
	callq	_ZNK17btCollisionObject23getCcdSweptSphereRadiusEv
.Ltmp749:
	.loc	2 504 17 is_stmt 0      # /home/chris/test-suite/MultiSource/Benchmarks/Bullet/btConvexConvexAlgorithm.cpp:504:17
	movq	%rbx, %rdi
	callq	_ZN13btSphereShapeC2Ef
.Ltmp750:
	.loc	2 0 17                  # /home/chris/test-suite/MultiSource/Benchmarks/Bullet/btConvexConvexAlgorithm.cpp:0:17
	leaq	432(%rsp), %rdi
.Ltmp698:
	.loc	2 505 28 is_stmt 1      # /home/chris/test-suite/MultiSource/Benchmarks/Bullet/btConvexConvexAlgorithm.cpp:505:28
	callq	_ZN12btConvexCast10CastResultC2Ev
.Ltmp751:
.Ltmp699:
	jmp	.LBB44_6
.Ltmp752:
.LBB44_6:
	#DEBUG_VALUE: convex0 <- $r15
	#DEBUG_VALUE: calculateTimeOfImpact:squareMot1 <- [DW_OP_plus_uconst 8] [$rsp+0]
	#DEBUG_VALUE: calculateTimeOfImpact:squareMot0 <- [DW_OP_plus_uconst 12] [$rsp+0]
	#DEBUG_VALUE: calculateTimeOfImpact:resultFraction <- 1.000000e+00
	#DEBUG_VALUE: calculateTimeOfImpact:col0 <- $r12
	#DEBUG_VALUE: calculateTimeOfImpact:col1 <- $r14
	.loc	2 0 28 is_stmt 0        # /home/chris/test-suite/MultiSource/Benchmarks/Bullet/btConvexConvexAlgorithm.cpp:0:28
	leaq	984(%rsp), %rdi
.Ltmp701:
	.loc	2 506 26 is_stmt 1      # /home/chris/test-suite/MultiSource/Benchmarks/Bullet/btConvexConvexAlgorithm.cpp:506:26
	callq	_ZN22btVoronoiSimplexSolverC2Ev
.Ltmp753:
.Ltmp702:
	jmp	.LBB44_7
.Ltmp754:
.LBB44_7:
	#DEBUG_VALUE: convex0 <- $r15
	#DEBUG_VALUE: calculateTimeOfImpact:squareMot1 <- [DW_OP_plus_uconst 8] [$rsp+0]
	#DEBUG_VALUE: calculateTimeOfImpact:squareMot0 <- [DW_OP_plus_uconst 12] [$rsp+0]
	#DEBUG_VALUE: calculateTimeOfImpact:resultFraction <- 1.000000e+00
	#DEBUG_VALUE: calculateTimeOfImpact:col0 <- $r12
	#DEBUG_VALUE: calculateTimeOfImpact:col1 <- $r14
	.loc	2 0 26 is_stmt 0        # /home/chris/test-suite/MultiSource/Benchmarks/Bullet/btConvexConvexAlgorithm.cpp:0:26
	leaq	80(%rsp), %rdi
.Ltmp704:
	leaq	176(%rsp), %rdx
	leaq	984(%rsp), %rcx
	.loc	2 509 19 is_stmt 1      # /home/chris/test-suite/MultiSource/Benchmarks/Bullet/btConvexConvexAlgorithm.cpp:509:19
	movq	%r15, %rsi
	callq	_ZN15btGjkConvexCastC1EPK13btConvexShapeS2_P22btVoronoiSimplexSolver
.Ltmp755:
.Ltmp705:
	jmp	.LBB44_8
.Ltmp756:
.LBB44_8:
	#DEBUG_VALUE: convex0 <- $r15
	#DEBUG_VALUE: calculateTimeOfImpact:squareMot1 <- [DW_OP_plus_uconst 8] [$rsp+0]
	#DEBUG_VALUE: calculateTimeOfImpact:squareMot0 <- [DW_OP_plus_uconst 12] [$rsp+0]
	#DEBUG_VALUE: calculateTimeOfImpact:resultFraction <- 1.000000e+00
	#DEBUG_VALUE: calculateTimeOfImpact:col0 <- $r12
	#DEBUG_VALUE: calculateTimeOfImpact:col1 <- $r14
	.loc	2 511 35                # /home/chris/test-suite/MultiSource/Benchmarks/Bullet/btConvexConvexAlgorithm.cpp:511:35
	movq	%r12, %rdi
	callq	_ZN17btCollisionObject17getWorldTransformEv
.Ltmp757:
	movq	%rax, %r15
.Ltmp758:
	.loc	2 511 61 is_stmt 0      # /home/chris/test-suite/MultiSource/Benchmarks/Bullet/btConvexConvexAlgorithm.cpp:511:61
	movq	%r12, %rdi
	callq	_ZN17btCollisionObject30getInterpolationWorldTransformEv
.Ltmp759:
	movq	%rax, %r13
	.loc	2 512 10 is_stmt 1      # /home/chris/test-suite/MultiSource/Benchmarks/Bullet/btConvexConvexAlgorithm.cpp:512:10
	movq	%r14, %rdi
	callq	_ZN17btCollisionObject17getWorldTransformEv
.Ltmp760:
	movq	%rax, %rbx
	.loc	2 512 36 is_stmt 0      # /home/chris/test-suite/MultiSource/Benchmarks/Bullet/btConvexConvexAlgorithm.cpp:512:36
	movq	%r14, %rdi
	callq	_ZN17btCollisionObject30getInterpolationWorldTransformEv
.Ltmp761:
.Ltmp707:
	.loc	2 0 36                  # /home/chris/test-suite/MultiSource/Benchmarks/Bullet/btConvexConvexAlgorithm.cpp:0:36
	leaq	80(%rsp), %rdi
	leaq	432(%rsp), %r9
	.loc	2 511 12 is_stmt 1      # /home/chris/test-suite/MultiSource/Benchmarks/Bullet/btConvexConvexAlgorithm.cpp:511:12
	movq	%r15, %rsi
	movq	%r13, %rdx
	movq	%rbx, %rcx
	movq	%rax, %r8
	callq	_ZN15btGjkConvexCast16calcTimeOfImpactERK11btTransformS2_S2_S2_RN12btConvexCast10CastResultE
.Ltmp762:
.Ltmp708:
	jmp	.LBB44_9
.Ltmp763:
.LBB44_9:
	#DEBUG_VALUE: calculateTimeOfImpact:squareMot1 <- [DW_OP_plus_uconst 8] [$rsp+0]
	#DEBUG_VALUE: calculateTimeOfImpact:squareMot0 <- [DW_OP_plus_uconst 12] [$rsp+0]
	#DEBUG_VALUE: calculateTimeOfImpact:resultFraction <- 1.000000e+00
	#DEBUG_VALUE: calculateTimeOfImpact:col0 <- $r12
	#DEBUG_VALUE: calculateTimeOfImpact:col1 <- $r14
	.loc	2 0 12 is_stmt 0        # /home/chris/test-suite/MultiSource/Benchmarks/Bullet/btConvexConvexAlgorithm.cpp:0:12
	movss	.LCPI44_0(%rip), %xmm1  # xmm1 = mem[0],zero,zero,zero
	.loc	2 511 7                 # /home/chris/test-suite/MultiSource/Benchmarks/Bullet/btConvexConvexAlgorithm.cpp:511:7
	testb	$1, %al
	jne	.LBB44_10
	jmp	.LBB44_20
.Ltmp764:
.LBB44_10:
	#DEBUG_VALUE: calculateTimeOfImpact:squareMot1 <- [DW_OP_plus_uconst 8] [$rsp+0]
	#DEBUG_VALUE: calculateTimeOfImpact:squareMot0 <- [DW_OP_plus_uconst 12] [$rsp+0]
	#DEBUG_VALUE: calculateTimeOfImpact:resultFraction <- 1.000000e+00
	#DEBUG_VALUE: calculateTimeOfImpact:col0 <- $r12
	#DEBUG_VALUE: calculateTimeOfImpact:col1 <- $r14
	.loc	2 517 14 is_stmt 1      # /home/chris/test-suite/MultiSource/Benchmarks/Bullet/btConvexConvexAlgorithm.cpp:517:14
	movq	%r12, %rdi
	callq	_ZNK17btCollisionObject14getHitFractionEv
.Ltmp765:
	movaps	%xmm0, %xmm1
	.loc	2 517 39 is_stmt 0      # /home/chris/test-suite/MultiSource/Benchmarks/Bullet/btConvexConvexAlgorithm.cpp:517:39
	leaq	432(%rsp), %rbx
	addq	$168, %rbx
	movss	600(%rsp), %xmm0        # xmm0 = mem[0],zero,zero,zero
	.loc	2 517 30                # /home/chris/test-suite/MultiSource/Benchmarks/Bullet/btConvexConvexAlgorithm.cpp:517:30
	ucomiss	%xmm0, %xmm1
.Ltmp766:
	.loc	2 517 8                 # /home/chris/test-suite/MultiSource/Benchmarks/Bullet/btConvexConvexAlgorithm.cpp:517:8
	jbe	.LBB44_16
.Ltmp767:
# %bb.11:
	#DEBUG_VALUE: calculateTimeOfImpact:squareMot1 <- [DW_OP_plus_uconst 8] [$rsp+0]
	#DEBUG_VALUE: calculateTimeOfImpact:squareMot0 <- [DW_OP_plus_uconst 12] [$rsp+0]
	#DEBUG_VALUE: calculateTimeOfImpact:resultFraction <- 1.000000e+00
	#DEBUG_VALUE: calculateTimeOfImpact:col0 <- $r12
	#DEBUG_VALUE: calculateTimeOfImpact:col1 <- $r14
	.loc	2 518 11 is_stmt 1      # /home/chris/test-suite/MultiSource/Benchmarks/Bullet/btConvexConvexAlgorithm.cpp:518:11
	movq	%r12, %rdi
	callq	_ZN17btCollisionObject14setHitFractionEf
.Ltmp768:
	.loc	2 518 5 is_stmt 0       # /home/chris/test-suite/MultiSource/Benchmarks/Bullet/btConvexConvexAlgorithm.cpp:518:5
	jmp	.LBB44_16
.Ltmp769:
.LBB44_12:
	#DEBUG_VALUE: convex0 <- $r15
	#DEBUG_VALUE: calculateTimeOfImpact:squareMot1 <- [DW_OP_plus_uconst 8] [$rsp+0]
	#DEBUG_VALUE: calculateTimeOfImpact:squareMot0 <- [DW_OP_plus_uconst 12] [$rsp+0]
	#DEBUG_VALUE: calculateTimeOfImpact:resultFraction <- 1.000000e+00
	#DEBUG_VALUE: calculateTimeOfImpact:col0 <- $r12
	#DEBUG_VALUE: calculateTimeOfImpact:col1 <- $r14
.Ltmp700:
                                        # kill: killed $rdx
	.loc	2 0 5                   # /home/chris/test-suite/MultiSource/Benchmarks/Bullet/btConvexConvexAlgorithm.cpp:0:5
	movq	%rax, %rbx
	.loc	2 564 1 is_stmt 1       # /home/chris/test-suite/MultiSource/Benchmarks/Bullet/btConvexConvexAlgorithm.cpp:564:1
	jmp	.LBB44_29
.Ltmp770:
.LBB44_13:
	#DEBUG_VALUE: convex0 <- $r15
	#DEBUG_VALUE: calculateTimeOfImpact:squareMot1 <- [DW_OP_plus_uconst 8] [$rsp+0]
	#DEBUG_VALUE: calculateTimeOfImpact:squareMot0 <- [DW_OP_plus_uconst 12] [$rsp+0]
	#DEBUG_VALUE: calculateTimeOfImpact:resultFraction <- 1.000000e+00
	#DEBUG_VALUE: calculateTimeOfImpact:col0 <- $r12
	#DEBUG_VALUE: calculateTimeOfImpact:col1 <- $r14
.Ltmp703:
                                        # kill: killed $rdx
	.loc	2 0 1 is_stmt 0         # /home/chris/test-suite/MultiSource/Benchmarks/Bullet/btConvexConvexAlgorithm.cpp:0:1
	movq	%rax, %rbx
