	.text
	.file	"btConvexConvexAlgorithm.cpp"
	.file	1 "/home/chris/test-suite/MultiSource/Benchmarks/Bullet/include/LinearMath/btAlignedAllocator.h"
	.file	2 "/home/chris/test-suite/MultiSource/Benchmarks/Bullet/btConvexConvexAlgorithm.cpp"
	.file	3 "/home/chris/test-suite/MultiSource/Benchmarks/Bullet/include/BulletCollision/BroadphaseCollision/btBroadphaseProxy.h"
	.file	4 "/home/chris/test-suite/MultiSource/Benchmarks/Bullet/include/LinearMath/btScalar.h"
	.file	5 "/home/chris/test-suite/MultiSource/Benchmarks/Bullet/include/LinearMath/btVector3.h"
	.file	6 "/home/chris/test-suite/MultiSource/Benchmarks/Bullet/include/LinearMath/btMatrix3x3.h"
	.file	7 "/home/chris/test-suite/MultiSource/Benchmarks/Bullet/include/LinearMath/btQuadWord.h"
	.file	8 "/home/chris/test-suite/MultiSource/Benchmarks/Bullet/include/LinearMath/btQuaternion.h"
	.file	9 "/home/chris/test-suite/MultiSource/Benchmarks/Bullet/include/BulletCollision/NarrowPhaseCollision/btManifoldPoint.h"
	.file	10 "/home/chris/test-suite/MultiSource/Benchmarks/Bullet/include/BulletCollision/NarrowPhaseCollision/btPersistentManifold.h"
	.file	11 "/data/proj/compiler/llvm/llvm-project/build/lib/clang/10.0.0/include/stddef.h"
	.file	12 "/home/chris/test-suite/MultiSource/Benchmarks/Bullet/include/LinearMath/btTransform.h"
	.file	13 "/usr/include/stdlib.h"
	.file	14 "/usr/lib/gcc/x86_64-linux-gnu/7.4.0/../../../../include/c++/7.4.0/bits/std_abs.h"
	.file	15 "/usr/include/x86_64-linux-gnu/bits/mathcalls.h"
	.file	16 "/usr/lib/gcc/x86_64-linux-gnu/7.4.0/../../../../include/c++/7.4.0/cmath"
	.file	17 "/usr/include/math.h"
	.file	18 "/usr/lib/gcc/x86_64-linux-gnu/7.4.0/../../../../include/c++/7.4.0/math.h"
	.file	19 "/usr/lib/gcc/x86_64-linux-gnu/7.4.0/../../../../include/c++/7.4.0/cstdlib"
	.file	20 "/usr/include/x86_64-linux-gnu/bits/stdlib-float.h"
	.file	21 "/usr/include/x86_64-linux-gnu/bits/stdlib-bsearch.h"
	.file	22 "/usr/lib/gcc/x86_64-linux-gnu/7.4.0/../../../../include/c++/7.4.0/stdlib.h"
	.file	23 "/usr/lib/gcc/x86_64-linux-gnu/7.4.0/../../../../include/c++/7.4.0/bits/exception_ptr.h"
	.file	24 "/usr/lib/gcc/x86_64-linux-gnu/7.4.0/../../../../include/x86_64-linux-gnu/c++/7.4.0/bits/c++config.h"
	.globl	_ZN23btConvexConvexAlgorithm10CreateFuncC2EP22btVoronoiSimplexSolverP30btConvexPenetrationDepthSolver # -- Begin function _ZN23btConvexConvexAlgorithm10CreateFuncC2EP22btVoronoiSimplexSolverP30btConvexPenetrationDepthSolver
	.p2align	4, 0x90
	.type	_ZN23btConvexConvexAlgorithm10CreateFuncC2EP22btVoronoiSimplexSolverP30btConvexPenetrationDepthSolver,@function
_ZN23btConvexConvexAlgorithm10CreateFuncC2EP22btVoronoiSimplexSolverP30btConvexPenetrationDepthSolver: # @_ZN23btConvexConvexAlgorithm10CreateFuncC2EP22btVoronoiSimplexSolverP30btConvexPenetrationDepthSolver
.Lfunc_begin0:
	.loc	2 180 0                 # /home/chris/test-suite/MultiSource/Benchmarks/Bullet/btConvexConvexAlgorithm.cpp:180:0
	.cfi_startproc
# %bb.0:
	#DEBUG_VALUE: CreateFunc:this <- $rdi
	#DEBUG_VALUE: CreateFunc:simplexSolver <- $rsi
	#DEBUG_VALUE: CreateFunc:pdSolver <- $rdx
	subq	$24, %rsp
	.cfi_def_cfa_offset 32
.Ltmp0:
	.loc	2 180 1 prologue_end    # /home/chris/test-suite/MultiSource/Benchmarks/Bullet/btConvexConvexAlgorithm.cpp:180:1
	movq	%rdi, %rax
	movq	%rdi, 16(%rsp)          # 8-byte Spill
.Ltmp1:
	#DEBUG_VALUE: CreateFunc:this <- [DW_OP_plus_uconst 16] [$rsp+0]
	#DEBUG_VALUE: CreateFunc:this <- [DW_OP_plus_uconst 16] [$rsp+0]
	.loc	2 179 38                # /home/chris/test-suite/MultiSource/Benchmarks/Bullet/btConvexConvexAlgorithm.cpp:179:38
	movq	%rax, %rdi
	movq	%rsi, 8(%rsp)           # 8-byte Spill
.Ltmp2:
	#DEBUG_VALUE: CreateFunc:simplexSolver <- [DW_OP_plus_uconst 8] [$rsp+0]
	#DEBUG_VALUE: CreateFunc:simplexSolver <- [DW_OP_plus_uconst 8] [$rsp+0]
	.loc	2 0 38 is_stmt 0        # /home/chris/test-suite/MultiSource/Benchmarks/Bullet/btConvexConvexAlgorithm.cpp:0:38
	movq	%rdx, (%rsp)            # 8-byte Spill
.Ltmp3:
	#DEBUG_VALUE: CreateFunc:pdSolver <- [$rsp+0]
	#DEBUG_VALUE: CreateFunc:pdSolver <- [$rsp+0]
	.loc	2 179 38                # /home/chris/test-suite/MultiSource/Benchmarks/Bullet/btConvexConvexAlgorithm.cpp:179:38
	callq	_ZN30btCollisionAlgorithmCreateFuncC2Ev
.Ltmp4:
	.loc	2 0 38                  # /home/chris/test-suite/MultiSource/Benchmarks/Bullet/btConvexConvexAlgorithm.cpp:0:38
	movabsq	$_ZTVN23btConvexConvexAlgorithm10CreateFuncE, %rax
	addq	$16, %rax
	movq	16(%rsp), %rcx          # 8-byte Reload
	.loc	2 180 1 is_stmt 1       # /home/chris/test-suite/MultiSource/Benchmarks/Bullet/btConvexConvexAlgorithm.cpp:180:1
	movq	%rax, (%rcx)
.Ltmp5:
	.loc	2 181 30                # /home/chris/test-suite/MultiSource/Benchmarks/Bullet/btConvexConvexAlgorithm.cpp:181:30
	movl	$0, 32(%rcx)
	.loc	2 182 39                # /home/chris/test-suite/MultiSource/Benchmarks/Bullet/btConvexConvexAlgorithm.cpp:182:39
	movl	$3, 36(%rcx)
	movq	8(%rsp), %rax           # 8-byte Reload
	.loc	2 183 18                # /home/chris/test-suite/MultiSource/Benchmarks/Bullet/btConvexConvexAlgorithm.cpp:183:18
	movq	%rax, 24(%rcx)
	movq	(%rsp), %rdx            # 8-byte Reload
	.loc	2 184 13                # /home/chris/test-suite/MultiSource/Benchmarks/Bullet/btConvexConvexAlgorithm.cpp:184:13
	movq	%rdx, 16(%rcx)
.Ltmp6:
	.loc	2 185 1                 # /home/chris/test-suite/MultiSource/Benchmarks/Bullet/btConvexConvexAlgorithm.cpp:185:1
	addq	$24, %rsp
	.cfi_def_cfa_offset 8
	retq
.Ltmp7:
.Lfunc_end0:
	.size	_ZN23btConvexConvexAlgorithm10CreateFuncC2EP22btVoronoiSimplexSolverP30btConvexPenetrationDepthSolver, .Lfunc_end0-_ZN23btConvexConvexAlgorithm10CreateFuncC2EP22btVoronoiSimplexSolverP30btConvexPenetrationDepthSolver
	.cfi_endproc
	.file	25 "/home/chris/test-suite/MultiSource/Benchmarks/Bullet/include/LinearMath/btTransformUtil.h"
	.file	26 "/home/chris/test-suite/MultiSource/Benchmarks/Bullet/include/BulletCollision/CollisionDispatch/btConvexConvexAlgorithm.h"
	.file	27 "/home/chris/test-suite/MultiSource/Benchmarks/Bullet/include/BulletCollision/NarrowPhaseCollision/btVoronoiSimplexSolver.h"
	.file	28 "/home/chris/test-suite/MultiSource/Benchmarks/Bullet/include/BulletCollision/BroadphaseCollision/btCollisionAlgorithm.h"
	.file	29 "/home/chris/test-suite/MultiSource/Benchmarks/Bullet/include/BulletCollision/BroadphaseCollision/btDispatcher.h"
	.file	30 "/home/chris/test-suite/MultiSource/Benchmarks/Bullet/include/LinearMath/btAlignedObjectArray.h"
	.file	31 "/home/chris/test-suite/MultiSource/Benchmarks/Bullet/include/BulletCollision/CollisionDispatch/btCollisionCreateFunc.h"
                                        # -- End function
	.section	.text._ZN30btCollisionAlgorithmCreateFuncC2Ev,"axG",@progbits,_ZN30btCollisionAlgorithmCreateFuncC2Ev,comdat
	.weak	_ZN30btCollisionAlgorithmCreateFuncC2Ev # -- Begin function _ZN30btCollisionAlgorithmCreateFuncC2Ev
	.p2align	4, 0x90
	.type	_ZN30btCollisionAlgorithmCreateFuncC2Ev,@function
_ZN30btCollisionAlgorithmCreateFuncC2Ev: # @_ZN30btCollisionAlgorithmCreateFuncC2Ev
.Lfunc_begin1:
	.loc	31 32 0                 # /home/chris/test-suite/MultiSource/Benchmarks/Bullet/include/BulletCollision/CollisionDispatch/btCollisionCreateFunc.h:32:0
	.cfi_startproc
# %bb.0:
	movabsq	$_ZTV30btCollisionAlgorithmCreateFunc, %rax
	addq	$16, %rax
.Ltmp8:
	#DEBUG_VALUE: btCollisionAlgorithmCreateFunc:this <- $rdi
	.loc	31 32 2 prologue_end    # /home/chris/test-suite/MultiSource/Benchmarks/Bullet/include/BulletCollision/CollisionDispatch/btCollisionCreateFunc.h:32:2
	movq	%rax, (%rdi)
	.loc	31 31 4                 # /home/chris/test-suite/MultiSource/Benchmarks/Bullet/include/BulletCollision/CollisionDispatch/btCollisionCreateFunc.h:31:4
	movb	$0, 8(%rdi)
	.loc	31 33 2                 # /home/chris/test-suite/MultiSource/Benchmarks/Bullet/include/BulletCollision/CollisionDispatch/btCollisionCreateFunc.h:33:2
	retq
.Ltmp9:
.Lfunc_end1:
	.size	_ZN30btCollisionAlgorithmCreateFuncC2Ev, .Lfunc_end1-_ZN30btCollisionAlgorithmCreateFuncC2Ev
	.cfi_endproc
                                        # -- End function
	.text
	.globl	_ZN23btConvexConvexAlgorithm10CreateFuncD2Ev # -- Begin function _ZN23btConvexConvexAlgorithm10CreateFuncD2Ev
	.p2align	4, 0x90
	.type	_ZN23btConvexConvexAlgorithm10CreateFuncD2Ev,@function
_ZN23btConvexConvexAlgorithm10CreateFuncD2Ev: # @_ZN23btConvexConvexAlgorithm10CreateFuncD2Ev
.Lfunc_begin2:
	.loc	2 188 0                 # /home/chris/test-suite/MultiSource/Benchmarks/Bullet/btConvexConvexAlgorithm.cpp:188:0
	.cfi_startproc
# %bb.0:
	#DEBUG_VALUE: ~CreateFunc:this <- $rdi
	pushq	%rax
	.cfi_def_cfa_offset 16
.Ltmp10:
	.loc	2 189 1 prologue_end    # /home/chris/test-suite/MultiSource/Benchmarks/Bullet/btConvexConvexAlgorithm.cpp:189:1
	callq	_ZN30btCollisionAlgorithmCreateFuncD2Ev
.Ltmp11:
	.loc	2 189 1 is_stmt 0       # /home/chris/test-suite/MultiSource/Benchmarks/Bullet/btConvexConvexAlgorithm.cpp:189:1
	popq	%rax
	.cfi_def_cfa_offset 8
	retq
.Ltmp12:
.Lfunc_end2:
	.size	_ZN23btConvexConvexAlgorithm10CreateFuncD2Ev, .Lfunc_end2-_ZN23btConvexConvexAlgorithm10CreateFuncD2Ev
	.cfi_endproc
                                        # -- End function
	.globl	_ZN23btConvexConvexAlgorithm10CreateFuncD0Ev # -- Begin function _ZN23btConvexConvexAlgorithm10CreateFuncD0Ev
	.p2align	4, 0x90
	.type	_ZN23btConvexConvexAlgorithm10CreateFuncD0Ev,@function
_ZN23btConvexConvexAlgorithm10CreateFuncD0Ev: # @_ZN23btConvexConvexAlgorithm10CreateFuncD0Ev
.Lfunc_begin3:
	.loc	2 188 0 is_stmt 1       # /home/chris/test-suite/MultiSource/Benchmarks/Bullet/btConvexConvexAlgorithm.cpp:188:0
	.cfi_startproc
# %bb.0:
	#DEBUG_VALUE: ~CreateFunc:this <- $rdi
	pushq	%rax
	.cfi_def_cfa_offset 16
	movq	%rdi, (%rsp)            # 8-byte Spill
.Ltmp13:
	#DEBUG_VALUE: ~CreateFunc:this <- [$rsp+0]
	.loc	2 188 1 prologue_end    # /home/chris/test-suite/MultiSource/Benchmarks/Bullet/btConvexConvexAlgorithm.cpp:188:1
	callq	_ZN23btConvexConvexAlgorithm10CreateFuncD2Ev
.Ltmp14:
	.loc	2 0 1 is_stmt 0         # /home/chris/test-suite/MultiSource/Benchmarks/Bullet/btConvexConvexAlgorithm.cpp:0:1
	movq	(%rsp), %rax            # 8-byte Reload
	.loc	2 188 1                 # /home/chris/test-suite/MultiSource/Benchmarks/Bullet/btConvexConvexAlgorithm.cpp:188:1
	movq	%rax, %rdi
	callq	_ZdlPv
.Ltmp15:
	.loc	2 189 1 is_stmt 1       # /home/chris/test-suite/MultiSource/Benchmarks/Bullet/btConvexConvexAlgorithm.cpp:189:1
	popq	%rax
	.cfi_def_cfa_offset 8
	retq
.Ltmp16:
.Lfunc_end3:
	.size	_ZN23btConvexConvexAlgorithm10CreateFuncD0Ev, .Lfunc_end3-_ZN23btConvexConvexAlgorithm10CreateFuncD0Ev
	.cfi_endproc
                                        # -- End function
	.globl	_ZN23btConvexConvexAlgorithmC2EP20btPersistentManifoldRK36btCollisionAlgorithmConstructionInfoP17btCollisionObjectS6_P22btVoronoiSimplexSolverP30btConvexPenetrationDepthSolverii # -- Begin function _ZN23btConvexConvexAlgorithmC2EP20btPersistentManifoldRK36btCollisionAlgorithmConstructionInfoP17btCollisionObjectS6_P22btVoronoiSimplexSolverP30btConvexPenetrationDepthSolverii
	.p2align	4, 0x90
	.type	_ZN23btConvexConvexAlgorithmC2EP20btPersistentManifoldRK36btCollisionAlgorithmConstructionInfoP17btCollisionObjectS6_P22btVoronoiSimplexSolverP30btConvexPenetrationDepthSolverii,@function
_ZN23btConvexConvexAlgorithmC2EP20btPersistentManifoldRK36btCollisionAlgorithmConstructionInfoP17btCollisionObjectS6_P22btVoronoiSimplexSolverP30btConvexPenetrationDepthSolverii: # @_ZN23btConvexConvexAlgorithmC2EP20btPersistentManifoldRK36btCollisionAlgorithmConstructionInfoP17btCollisionObjectS6_P22btVoronoiSimplexSolverP30btConvexPenetrationDepthSolverii
.Lfunc_begin4:
	.loc	2 204 0                 # /home/chris/test-suite/MultiSource/Benchmarks/Bullet/btConvexConvexAlgorithm.cpp:204:0
	.cfi_startproc
	.cfi_personality 3, __gxx_personality_v0
	.cfi_lsda 3, .Lexception0
# %bb.0:
	#DEBUG_VALUE: btConvexConvexAlgorithm:this <- $rdi
	#DEBUG_VALUE: btConvexConvexAlgorithm:ci <- $rdx
	#DEBUG_VALUE: btConvexConvexAlgorithm:body0 <- $rcx
	#DEBUG_VALUE: btConvexConvexAlgorithm:body1 <- $r8
	#DEBUG_VALUE: btConvexConvexAlgorithm:body1 <- $r8
	#DEBUG_VALUE: btConvexConvexAlgorithm:body0 <- $rcx
	#DEBUG_VALUE: btConvexConvexAlgorithm:ci <- $rdx
	#DEBUG_VALUE: btConvexConvexAlgorithm:this <- $rdi
	pushq	%rbx
	.cfi_def_cfa_offset 16
	subq	$96, %rsp
	.cfi_def_cfa_offset 112
	.cfi_offset %rbx, -16
	movl	128(%rsp), %eax
	movl	120(%rsp), %r10d
	movq	112(%rsp), %r11
.Ltmp24:
	.loc	2 204 1 prologue_end    # /home/chris/test-suite/MultiSource/Benchmarks/Bullet/btConvexConvexAlgorithm.cpp:204:1
	movq	%rdi, %rbx
	movq	%rdi, 88(%rsp)          # 8-byte Spill
.Ltmp25:
	#DEBUG_VALUE: btConvexConvexAlgorithm:this <- [DW_OP_plus_uconst 88] [$rsp+0]
	.loc	2 0 1 is_stmt 0         # /home/chris/test-suite/MultiSource/Benchmarks/Bullet/btConvexConvexAlgorithm.cpp:0:1
	movq	%rsi, 80(%rsp)          # 8-byte Spill
	.loc	2 192 3 is_stmt 1       # /home/chris/test-suite/MultiSource/Benchmarks/Bullet/btConvexConvexAlgorithm.cpp:192:3
	movq	%rdx, %rsi
.Ltmp26:
	#DEBUG_VALUE: btConvexConvexAlgorithm:ci <- $rsi
	movq	%rcx, %rdx
	movq	%rcx, 72(%rsp)          # 8-byte Spill
.Ltmp27:
	#DEBUG_VALUE: btConvexConvexAlgorithm:body0 <- [DW_OP_plus_uconst 72] [$rsp+0]
	#DEBUG_VALUE: btConvexConvexAlgorithm:body0 <- [DW_OP_plus_uconst 72] [$rsp+0]
	movq	%r8, %rcx
	movq	%r9, 64(%rsp)           # 8-byte Spill
	movq	%r8, 56(%rsp)           # 8-byte Spill
.Ltmp28:
	#DEBUG_VALUE: btConvexConvexAlgorithm:body1 <- [DW_OP_plus_uconst 56] [$rsp+0]
	#DEBUG_VALUE: btConvexConvexAlgorithm:body1 <- [DW_OP_plus_uconst 56] [$rsp+0]
	.loc	2 0 3 is_stmt 0         # /home/chris/test-suite/MultiSource/Benchmarks/Bullet/btConvexConvexAlgorithm.cpp:0:3
	movl	%eax, 52(%rsp)          # 4-byte Spill
	movl	%r10d, 48(%rsp)         # 4-byte Spill
	movq	%r11, 40(%rsp)          # 8-byte Spill
	movq	%rbx, 32(%rsp)          # 8-byte Spill
	.loc	2 192 3                 # /home/chris/test-suite/MultiSource/Benchmarks/Bullet/btConvexConvexAlgorithm.cpp:192:3
	callq	_ZN30btActivatingCollisionAlgorithmC2ERK36btCollisionAlgorithmConstructionInfoP17btCollisionObjectS4_
.Ltmp29:
	.loc	2 0 3                   # /home/chris/test-suite/MultiSource/Benchmarks/Bullet/btConvexConvexAlgorithm.cpp:0:3
	movq	88(%rsp), %rcx          # 8-byte Reload
	.loc	2 204 1 is_stmt 1       # /home/chris/test-suite/MultiSource/Benchmarks/Bullet/btConvexConvexAlgorithm.cpp:204:1
	movq	$_ZTV23btConvexConvexAlgorithm+16, (%rcx)
	.loc	2 199 1                 # /home/chris/test-suite/MultiSource/Benchmarks/Bullet/btConvexConvexAlgorithm.cpp:199:1
	addq	$16, %rcx
	movq	72(%rsp), %rdi          # 8-byte Reload
	movq	%rcx, 24(%rsp)          # 8-byte Spill
	.loc	2 199 51 is_stmt 0      # /home/chris/test-suite/MultiSource/Benchmarks/Bullet/btConvexConvexAlgorithm.cpp:199:51
	callq	_ZN17btCollisionObject17getCollisionShapeEv
.Ltmp30:
	.loc	2 199 74                # /home/chris/test-suite/MultiSource/Benchmarks/Bullet/btConvexConvexAlgorithm.cpp:199:74
	movq	(%rax), %rcx
	movq	32(%rcx), %rcx
.Ltmp17:
	movq	%rax, %rdi
	callq	*%rcx
.Ltmp31:
.Ltmp18:
	#DEBUG_VALUE: btConvexConvexAlgorithm:mf <- undef
	#DEBUG_VALUE: btConvexConvexAlgorithm:simplexSolver <- undef
	#DEBUG_VALUE: btConvexConvexAlgorithm:pdSolver <- undef
	#DEBUG_VALUE: btConvexConvexAlgorithm:numPerturbationIterations <- undef
	#DEBUG_VALUE: btConvexConvexAlgorithm:minimumPointsPerturbationThreshold <- undef
	.loc	2 0 74                  # /home/chris/test-suite/MultiSource/Benchmarks/Bullet/btConvexConvexAlgorithm.cpp:0:74
	movss	%xmm0, 20(%rsp)         # 4-byte Spill
	.loc	2 199 74                # /home/chris/test-suite/MultiSource/Benchmarks/Bullet/btConvexConvexAlgorithm.cpp:199:74
	jmp	.LBB4_1
.Ltmp32:
.LBB4_1:
	#DEBUG_VALUE: btConvexConvexAlgorithm:body1 <- [DW_OP_plus_uconst 56] [$rsp+0]
	#DEBUG_VALUE: btConvexConvexAlgorithm:body0 <- [DW_OP_plus_uconst 72] [$rsp+0]
	#DEBUG_VALUE: btConvexConvexAlgorithm:this <- [DW_OP_plus_uconst 88] [$rsp+0]
	.loc	2 0 74                  # /home/chris/test-suite/MultiSource/Benchmarks/Bullet/btConvexConvexAlgorithm.cpp:0:74
	movq	56(%rsp), %rdi          # 8-byte Reload
	.loc	2 200 42 is_stmt 1      # /home/chris/test-suite/MultiSource/Benchmarks/Bullet/btConvexConvexAlgorithm.cpp:200:42
	callq	_ZN17btCollisionObject17getCollisionShapeEv
.Ltmp33:
	.loc	2 200 65 is_stmt 0      # /home/chris/test-suite/MultiSource/Benchmarks/Bullet/btConvexConvexAlgorithm.cpp:200:65
	movq	(%rax), %rcx
	movq	32(%rcx), %rcx
.Ltmp19:
	movq	%rax, %rdi
	callq	*%rcx
.Ltmp34:
.Ltmp20:
	.loc	2 0 65                  # /home/chris/test-suite/MultiSource/Benchmarks/Bullet/btConvexConvexAlgorithm.cpp:0:65
	movss	%xmm0, 16(%rsp)         # 4-byte Spill
	.loc	2 200 65                # /home/chris/test-suite/MultiSource/Benchmarks/Bullet/btConvexConvexAlgorithm.cpp:200:65
	jmp	.LBB4_2
.Ltmp35:
.LBB4_2:
	#DEBUG_VALUE: btConvexConvexAlgorithm:body1 <- [DW_OP_plus_uconst 56] [$rsp+0]
	#DEBUG_VALUE: btConvexConvexAlgorithm:body0 <- [DW_OP_plus_uconst 72] [$rsp+0]
	#DEBUG_VALUE: btConvexConvexAlgorithm:this <- [DW_OP_plus_uconst 88] [$rsp+0]
.Ltmp21:
	.loc	2 0 65                  # /home/chris/test-suite/MultiSource/Benchmarks/Bullet/btConvexConvexAlgorithm.cpp:0:65
	movq	24(%rsp), %rdi          # 8-byte Reload
	movss	20(%rsp), %xmm0         # 4-byte Reload
                                        # xmm0 = mem[0],zero,zero,zero
	movss	16(%rsp), %xmm1         # 4-byte Reload
                                        # xmm1 = mem[0],zero,zero,zero
	.loc	2 199 1 is_stmt 1       # /home/chris/test-suite/MultiSource/Benchmarks/Bullet/btConvexConvexAlgorithm.cpp:199:1
	callq	_ZN30btConvexSeparatingDistanceUtilC2Eff
.Ltmp36:
.Ltmp22:
	jmp	.LBB4_3
.Ltmp37:
.LBB4_3:
	#DEBUG_VALUE: btConvexConvexAlgorithm:body1 <- [DW_OP_plus_uconst 56] [$rsp+0]
	#DEBUG_VALUE: btConvexConvexAlgorithm:body0 <- [DW_OP_plus_uconst 72] [$rsp+0]
	#DEBUG_VALUE: btConvexConvexAlgorithm:this <- [DW_OP_plus_uconst 88] [$rsp+0]
	.loc	2 0 1 is_stmt 0         # /home/chris/test-suite/MultiSource/Benchmarks/Bullet/btConvexConvexAlgorithm.cpp:0:1
	movq	88(%rsp), %rax          # 8-byte Reload
	movq	64(%rsp), %rcx          # 8-byte Reload
	.loc	2 193 1 is_stmt 1       # /home/chris/test-suite/MultiSource/Benchmarks/Bullet/btConvexConvexAlgorithm.cpp:193:1
	movq	%rcx, 112(%rax)
	movq	40(%rsp), %rdx          # 8-byte Reload
	.loc	2 194 1                 # /home/chris/test-suite/MultiSource/Benchmarks/Bullet/btConvexConvexAlgorithm.cpp:194:1
	movq	%rdx, 120(%rax)
	.loc	2 195 1                 # /home/chris/test-suite/MultiSource/Benchmarks/Bullet/btConvexConvexAlgorithm.cpp:195:1
	movb	$0, 128(%rax)
	movq	80(%rsp), %rsi          # 8-byte Reload
	.loc	2 196 1                 # /home/chris/test-suite/MultiSource/Benchmarks/Bullet/btConvexConvexAlgorithm.cpp:196:1
	movq	%rsi, 136(%rax)
	.loc	2 197 1                 # /home/chris/test-suite/MultiSource/Benchmarks/Bullet/btConvexConvexAlgorithm.cpp:197:1
	movb	$0, 144(%rax)
	movl	48(%rsp), %edi          # 4-byte Reload
	.loc	2 202 1                 # /home/chris/test-suite/MultiSource/Benchmarks/Bullet/btConvexConvexAlgorithm.cpp:202:1
	movl	%edi, 148(%rax)
	movl	52(%rsp), %r8d          # 4-byte Reload
	.loc	2 203 1                 # /home/chris/test-suite/MultiSource/Benchmarks/Bullet/btConvexConvexAlgorithm.cpp:203:1
	movl	%r8d, 152(%rax)
	.loc	2 207 1                 # /home/chris/test-suite/MultiSource/Benchmarks/Bullet/btConvexConvexAlgorithm.cpp:207:1
	addq	$96, %rsp
	.cfi_def_cfa_offset 16
	popq	%rbx
	.cfi_def_cfa_offset 8
	retq
.Ltmp38:
.LBB4_4:
	.cfi_def_cfa_offset 112
	#DEBUG_VALUE: btConvexConvexAlgorithm:body1 <- [DW_OP_plus_uconst 56] [$rsp+0]
	#DEBUG_VALUE: btConvexConvexAlgorithm:body0 <- [DW_OP_plus_uconst 72] [$rsp+0]
	#DEBUG_VALUE: btConvexConvexAlgorithm:this <- [DW_OP_plus_uconst 88] [$rsp+0]
.Ltmp23:
                                        # kill: def $edx killed $edx killed $rdx
	.loc	2 0 1 is_stmt 0         # /home/chris/test-suite/MultiSource/Benchmarks/Bullet/btConvexConvexAlgorithm.cpp:0:1
	movq	32(%rsp), %rdi          # 8-byte Reload
	movl	%edx, 12(%rsp)          # 4-byte Spill
	movq	%rax, (%rsp)            # 8-byte Spill
.Ltmp39:
	.loc	2 207 1                 # /home/chris/test-suite/MultiSource/Benchmarks/Bullet/btConvexConvexAlgorithm.cpp:207:1
	callq	_ZN30btActivatingCollisionAlgorithmD2Ev
.Ltmp40:
	.loc	2 0 1                   # /home/chris/test-suite/MultiSource/Benchmarks/Bullet/btConvexConvexAlgorithm.cpp:0:1
	movq	(%rsp), %rdi            # 8-byte Reload
	callq	_Unwind_Resume
.Ltmp41:
.Lfunc_end4:
	.size	_ZN23btConvexConvexAlgorithmC2EP20btPersistentManifoldRK36btCollisionAlgorithmConstructionInfoP17btCollisionObjectS6_P22btVoronoiSimplexSolverP30btConvexPenetrationDepthSolverii, .Lfunc_end4-_ZN23btConvexConvexAlgorithmC2EP20btPersistentManifoldRK36btCollisionAlgorithmConstructionInfoP17btCollisionObjectS6_P22btVoronoiSimplexSolverP30btConvexPenetrationDepthSolverii
	.cfi_endproc
	.file	32 "/home/chris/test-suite/MultiSource/Benchmarks/Bullet/include/BulletCollision/CollisionDispatch/btCollisionObject.h"
	.section	.gcc_except_table,"a",@progbits
	.p2align	2
GCC_except_table4:
.Lexception0:
	.byte	255                     # @LPStart Encoding = omit
	.byte	255                     # @TType Encoding = omit
	.byte	1                       # Call site Encoding = uleb128
	.uleb128 .Lcst_end0-.Lcst_begin0
.Lcst_begin0:
	.uleb128 .Lfunc_begin4-.Lfunc_begin4 # >> Call Site 1 <<
	.uleb128 .Ltmp17-.Lfunc_begin4  #   Call between .Lfunc_begin4 and .Ltmp17
	.byte	0                       #     has no landing pad
	.byte	0                       #   On action: cleanup
	.uleb128 .Ltmp17-.Lfunc_begin4  # >> Call Site 2 <<
	.uleb128 .Ltmp22-.Ltmp17        #   Call between .Ltmp17 and .Ltmp22
	.uleb128 .Ltmp23-.Lfunc_begin4  #     jumps to .Ltmp23
	.byte	0                       #   On action: cleanup
	.uleb128 .Ltmp22-.Lfunc_begin4  # >> Call Site 3 <<
	.uleb128 .Lfunc_end4-.Ltmp22    #   Call between .Ltmp22 and .Lfunc_end4
	.byte	0                       #     has no landing pad
	.byte	0                       #   On action: cleanup
.Lcst_end0:
	.p2align	2
                                        # -- End function
	.section	.text._ZN17btCollisionObject17getCollisionShapeEv,"axG",@progbits,_ZN17btCollisionObject17getCollisionShapeEv,comdat
	.weak	_ZN17btCollisionObject17getCollisionShapeEv # -- Begin function _ZN17btCollisionObject17getCollisionShapeEv
	.p2align	4, 0x90
	.type	_ZN17btCollisionObject17getCollisionShapeEv,@function
_ZN17btCollisionObject17getCollisionShapeEv: # @_ZN17btCollisionObject17getCollisionShapeEv
.Lfunc_begin5:
	.loc	32 195 0 is_stmt 1      # /home/chris/test-suite/MultiSource/Benchmarks/Bullet/include/BulletCollision/CollisionDispatch/btCollisionObject.h:195:0
	.cfi_startproc
# %bb.0:
	#DEBUG_VALUE: getCollisionShape:this <- $rdi
	.loc	32 196 10 prologue_end  # /home/chris/test-suite/MultiSource/Benchmarks/Bullet/include/BulletCollision/CollisionDispatch/btCollisionObject.h:196:10
	movq	200(%rdi), %rax
	.loc	32 196 3 is_stmt 0      # /home/chris/test-suite/MultiSource/Benchmarks/Bullet/include/BulletCollision/CollisionDispatch/btCollisionObject.h:196:3
	retq
.Ltmp42:
.Lfunc_end5:
	.size	_ZN17btCollisionObject17getCollisionShapeEv, .Lfunc_end5-_ZN17btCollisionObject17getCollisionShapeEv
	.cfi_endproc
                                        # -- End function
	.section	.text._ZN30btConvexSeparatingDistanceUtilC2Eff,"axG",@progbits,_ZN30btConvexSeparatingDistanceUtilC2Eff,comdat
	.weak	_ZN30btConvexSeparatingDistanceUtilC2Eff # -- Begin function _ZN30btConvexSeparatingDistanceUtilC2Eff
	.p2align	4, 0x90
	.type	_ZN30btConvexSeparatingDistanceUtilC2Eff,@function
_ZN30btConvexSeparatingDistanceUtilC2Eff: # @_ZN30btConvexSeparatingDistanceUtilC2Eff
.Lfunc_begin6:
	.loc	25 167 0 is_stmt 1      # /home/chris/test-suite/MultiSource/Benchmarks/Bullet/include/LinearMath/btTransformUtil.h:167:0
	.cfi_startproc
# %bb.0:
	#DEBUG_VALUE: btConvexSeparatingDistanceUtil:this <- $rdi
	#DEBUG_VALUE: btConvexSeparatingDistanceUtil:boundingRadiusA <- $xmm0
	#DEBUG_VALUE: btConvexSeparatingDistanceUtil:boundingRadiusB <- $xmm1
	subq	$24, %rsp
	.cfi_def_cfa_offset 32
	movq	%rdi, 16(%rsp)          # 8-byte Spill
.Ltmp43:
	#DEBUG_VALUE: btConvexSeparatingDistanceUtil:this <- [DW_OP_plus_uconst 16] [$rsp+0]
	movss	%xmm0, 12(%rsp)         # 4-byte Spill
.Ltmp44:
	#DEBUG_VALUE: btConvexSeparatingDistanceUtil:boundingRadiusA <- [DW_OP_plus_uconst 12] [$rsp+0]
	#DEBUG_VALUE: btConvexSeparatingDistanceUtil:boundingRadiusA <- [DW_OP_plus_uconst 12] [$rsp+0]
	movss	%xmm1, 8(%rsp)          # 4-byte Spill
.Ltmp45:
	#DEBUG_VALUE: btConvexSeparatingDistanceUtil:boundingRadiusB <- [DW_OP_plus_uconst 8] [$rsp+0]
	#DEBUG_VALUE: btConvexSeparatingDistanceUtil:boundingRadiusB <- [DW_OP_plus_uconst 8] [$rsp+0]
	.loc	25 163 2 prologue_end   # /home/chris/test-suite/MultiSource/Benchmarks/Bullet/include/LinearMath/btTransformUtil.h:163:2
	callq	_ZN12btQuaternionC2Ev
.Ltmp46:
	.loc	25 0 2 is_stmt 0        # /home/chris/test-suite/MultiSource/Benchmarks/Bullet/include/LinearMath/btTransformUtil.h:0:2
	movq	16(%rsp), %rax          # 8-byte Reload
	.loc	25 163 2                # /home/chris/test-suite/MultiSource/Benchmarks/Bullet/include/LinearMath/btTransformUtil.h:163:2
	addq	$16, %rax
	movq	%rax, %rdi
	callq	_ZN12btQuaternionC2Ev
.Ltmp47:
	.loc	25 0 2                  # /home/chris/test-suite/MultiSource/Benchmarks/Bullet/include/LinearMath/btTransformUtil.h:0:2
	movq	16(%rsp), %rax          # 8-byte Reload
	.loc	25 163 2                # /home/chris/test-suite/MultiSource/Benchmarks/Bullet/include/LinearMath/btTransformUtil.h:163:2
	addq	$32, %rax
	movq	%rax, %rdi
	callq	_ZN9btVector3C2Ev
.Ltmp48:
	.loc	25 0 2                  # /home/chris/test-suite/MultiSource/Benchmarks/Bullet/include/LinearMath/btTransformUtil.h:0:2
	movq	16(%rsp), %rax          # 8-byte Reload
	.loc	25 163 2                # /home/chris/test-suite/MultiSource/Benchmarks/Bullet/include/LinearMath/btTransformUtil.h:163:2
	addq	$48, %rax
	movq	%rax, %rdi
	callq	_ZN9btVector3C2Ev
.Ltmp49:
	.loc	25 0 2                  # /home/chris/test-suite/MultiSource/Benchmarks/Bullet/include/LinearMath/btTransformUtil.h:0:2
	movq	16(%rsp), %rax          # 8-byte Reload
	.loc	25 163 2                # /home/chris/test-suite/MultiSource/Benchmarks/Bullet/include/LinearMath/btTransformUtil.h:163:2
	addq	$64, %rax
	movq	%rax, %rdi
	callq	_ZN9btVector3C2Ev
.Ltmp50:
	.loc	25 0 2                  # /home/chris/test-suite/MultiSource/Benchmarks/Bullet/include/LinearMath/btTransformUtil.h:0:2
	movq	16(%rsp), %rax          # 8-byte Reload
	movss	12(%rsp), %xmm0         # 4-byte Reload
                                        # xmm0 = mem[0],zero,zero,zero
	.loc	25 164 4 is_stmt 1      # /home/chris/test-suite/MultiSource/Benchmarks/Bullet/include/LinearMath/btTransformUtil.h:164:4
	movss	%xmm0, 80(%rax)
	movss	8(%rsp), %xmm1          # 4-byte Reload
                                        # xmm1 = mem[0],zero,zero,zero
	.loc	25 165 3                # /home/chris/test-suite/MultiSource/Benchmarks/Bullet/include/LinearMath/btTransformUtil.h:165:3
	movss	%xmm1, 84(%rax)
	.loc	25 166 3                # /home/chris/test-suite/MultiSource/Benchmarks/Bullet/include/LinearMath/btTransformUtil.h:166:3
	xorps	%xmm2, %xmm2
	movss	%xmm2, 88(%rax)
	.loc	25 168 2                # /home/chris/test-suite/MultiSource/Benchmarks/Bullet/include/LinearMath/btTransformUtil.h:168:2
	addq	$24, %rsp
	.cfi_def_cfa_offset 8
	retq
.Ltmp51:
.Lfunc_end6:
	.size	_ZN30btConvexSeparatingDistanceUtilC2Eff, .Lfunc_end6-_ZN30btConvexSeparatingDistanceUtilC2Eff
	.cfi_endproc
                                        # -- End function
	.text
	.globl	_ZN23btConvexConvexAlgorithmD2Ev # -- Begin function _ZN23btConvexConvexAlgorithmD2Ev
	.p2align	4, 0x90
	.type	_ZN23btConvexConvexAlgorithmD2Ev,@function
_ZN23btConvexConvexAlgorithmD2Ev:       # @_ZN23btConvexConvexAlgorithmD2Ev
.Lfunc_begin7:
	.loc	2 213 0                 # /home/chris/test-suite/MultiSource/Benchmarks/Bullet/btConvexConvexAlgorithm.cpp:213:0
	.cfi_startproc
	.cfi_personality 3, __gxx_personality_v0
	.cfi_lsda 3, .Lexception1
# %bb.0:
	subq	$40, %rsp
	.cfi_def_cfa_offset 48
	movabsq	$_ZTV23btConvexConvexAlgorithm, %rax
	addq	$16, %rax
.Ltmp55:
	#DEBUG_VALUE: ~btConvexConvexAlgorithm:this <- $rdi
	.loc	2 213 1 prologue_end    # /home/chris/test-suite/MultiSource/Benchmarks/Bullet/btConvexConvexAlgorithm.cpp:213:1
	movq	%rax, (%rdi)
.Ltmp56:
	.loc	2 214 6                 # /home/chris/test-suite/MultiSource/Benchmarks/Bullet/btConvexConvexAlgorithm.cpp:214:6
	cmpb	$0, 128(%rdi)
	movq	%rdi, 32(%rsp)          # 8-byte Spill
.Ltmp57:
	#DEBUG_VALUE: ~btConvexConvexAlgorithm:this <- [DW_OP_plus_uconst 32] [$rsp+0]
	#DEBUG_VALUE: ~btConvexConvexAlgorithm:this <- [DW_OP_plus_uconst 32] [$rsp+0]
	.loc	2 214 6 is_stmt 0       # /home/chris/test-suite/MultiSource/Benchmarks/Bullet/btConvexConvexAlgorithm.cpp:214:6
	je	.LBB7_4
.Ltmp58:
# %bb.1:
	#DEBUG_VALUE: ~btConvexConvexAlgorithm:this <- [DW_OP_plus_uconst 32] [$rsp+0]
	.loc	2 0 6                   # /home/chris/test-suite/MultiSource/Benchmarks/Bullet/btConvexConvexAlgorithm.cpp:0:6
	movq	32(%rsp), %rax          # 8-byte Reload
.Ltmp59:
	.loc	2 216 7 is_stmt 1       # /home/chris/test-suite/MultiSource/Benchmarks/Bullet/btConvexConvexAlgorithm.cpp:216:7
	movq	136(%rax), %rcx
	cmpq	$0, %rcx
	movq	%rcx, 24(%rsp)          # 8-byte Spill
.Ltmp60:
	.loc	2 216 7 is_stmt 0       # /home/chris/test-suite/MultiSource/Benchmarks/Bullet/btConvexConvexAlgorithm.cpp:216:7
	je	.LBB7_4
.Ltmp61:
# %bb.2:
	#DEBUG_VALUE: ~btConvexConvexAlgorithm:this <- [DW_OP_plus_uconst 32] [$rsp+0]
	.loc	2 0 7                   # /home/chris/test-suite/MultiSource/Benchmarks/Bullet/btConvexConvexAlgorithm.cpp:0:7
	movq	32(%rsp), %rax          # 8-byte Reload
.Ltmp62:
	.loc	2 217 4 is_stmt 1       # /home/chris/test-suite/MultiSource/Benchmarks/Bullet/btConvexConvexAlgorithm.cpp:217:4
	movq	8(%rax), %rcx
	.loc	2 217 18 is_stmt 0      # /home/chris/test-suite/MultiSource/Benchmarks/Bullet/btConvexConvexAlgorithm.cpp:217:18
	movq	(%rcx), %rdx
	movq	32(%rdx), %rdx
.Ltmp52:
	movq	%rcx, %rdi
	movq	24(%rsp), %rsi          # 8-byte Reload
	callq	*%rdx
.Ltmp63:
.Ltmp53:
	jmp	.LBB7_4
.Ltmp64:
.LBB7_3:
	#DEBUG_VALUE: ~btConvexConvexAlgorithm:this <- [DW_OP_plus_uconst 32] [$rsp+0]
.Ltmp54:
                                        # kill: def $edx killed $edx killed $rdx
	.loc	2 0 18                  # /home/chris/test-suite/MultiSource/Benchmarks/Bullet/btConvexConvexAlgorithm.cpp:0:18
	movq	32(%rsp), %rdi          # 8-byte Reload
	movl	%edx, 20(%rsp)          # 4-byte Spill
	movq	%rax, 8(%rsp)           # 8-byte Spill
	.loc	2 219 1 is_stmt 1       # /home/chris/test-suite/MultiSource/Benchmarks/Bullet/btConvexConvexAlgorithm.cpp:219:1
	callq	_ZN30btActivatingCollisionAlgorithmD2Ev
.Ltmp65:
	.loc	2 0 1 is_stmt 0         # /home/chris/test-suite/MultiSource/Benchmarks/Bullet/btConvexConvexAlgorithm.cpp:0:1
	movq	8(%rsp), %rdi           # 8-byte Reload
	.loc	2 219 1                 # /home/chris/test-suite/MultiSource/Benchmarks/Bullet/btConvexConvexAlgorithm.cpp:219:1
	callq	__clang_call_terminate
.Ltmp66:
.LBB7_4:
	#DEBUG_VALUE: ~btConvexConvexAlgorithm:this <- [DW_OP_plus_uconst 32] [$rsp+0]
	.loc	2 0 1                   # /home/chris/test-suite/MultiSource/Benchmarks/Bullet/btConvexConvexAlgorithm.cpp:0:1
	movq	32(%rsp), %rdi          # 8-byte Reload
	.loc	2 219 1                 # /home/chris/test-suite/MultiSource/Benchmarks/Bullet/btConvexConvexAlgorithm.cpp:219:1
	callq	_ZN30btActivatingCollisionAlgorithmD2Ev
.Ltmp67:
	.loc	2 219 1                 # /home/chris/test-suite/MultiSource/Benchmarks/Bullet/btConvexConvexAlgorithm.cpp:219:1
	addq	$40, %rsp
	.cfi_def_cfa_offset 8
	retq
.Ltmp68:
.Lfunc_end7:
	.size	_ZN23btConvexConvexAlgorithmD2Ev, .Lfunc_end7-_ZN23btConvexConvexAlgorithmD2Ev
	.cfi_endproc
	.section	.gcc_except_table,"a",@progbits
	.p2align	2
GCC_except_table7:
.Lexception1:
	.byte	255                     # @LPStart Encoding = omit
	.byte	3                       # @TType Encoding = udata4
	.uleb128 .Lttbase0-.Lttbaseref0
.Lttbaseref0:
	.byte	1                       # Call site Encoding = uleb128
	.uleb128 .Lcst_end1-.Lcst_begin1
.Lcst_begin1:
	.uleb128 .Ltmp52-.Lfunc_begin7  # >> Call Site 1 <<
	.uleb128 .Ltmp53-.Ltmp52        #   Call between .Ltmp52 and .Ltmp53
	.uleb128 .Ltmp54-.Lfunc_begin7  #     jumps to .Ltmp54
	.byte	1                       #   On action: 1
.Lcst_end1:
	.byte	1                       # >> Action Record 1 <<
                                        #   Catch TypeInfo 1
	.byte	0                       #   No further actions
	.p2align	2
                                        # >> Catch TypeInfos <<
	.long	0                       # TypeInfo 1
.Lttbase0:
	.p2align	2
                                        # -- End function
	.section	.text.__clang_call_terminate,"axG",@progbits,__clang_call_terminate,comdat
	.hidden	__clang_call_terminate  # -- Begin function __clang_call_terminate
	.weak	__clang_call_terminate
	.p2align	4, 0x90
	.type	__clang_call_terminate,@function
__clang_call_terminate:                 # @__clang_call_terminate
.Lfunc_begin8:
	.cfi_startproc
# %bb.0:
	pushq	%rax
	.cfi_def_cfa_offset 16
	callq	__cxa_begin_catch
	movq	%rax, (%rsp)            # 8-byte Spill
	callq	_ZSt9terminatev
.Lfunc_end8:
	.size	__clang_call_terminate, .Lfunc_end8-__clang_call_terminate
	.cfi_endproc
                                        # -- End function
	.text
	.globl	_ZN23btConvexConvexAlgorithmD0Ev # -- Begin function _ZN23btConvexConvexAlgorithmD0Ev
	.p2align	4, 0x90
	.type	_ZN23btConvexConvexAlgorithmD0Ev,@function
_ZN23btConvexConvexAlgorithmD0Ev:       # @_ZN23btConvexConvexAlgorithmD0Ev
.Lfunc_begin9:
	.loc	2 213 0 is_stmt 1       # /home/chris/test-suite/MultiSource/Benchmarks/Bullet/btConvexConvexAlgorithm.cpp:213:0
	.cfi_startproc
# %bb.0:
	#DEBUG_VALUE: ~btConvexConvexAlgorithm:this <- $rdi
	pushq	%rax
	.cfi_def_cfa_offset 16
	movq	%rdi, (%rsp)            # 8-byte Spill
.Ltmp69:
	#DEBUG_VALUE: ~btConvexConvexAlgorithm:this <- [$rsp+0]
	.loc	2 213 1 prologue_end    # /home/chris/test-suite/MultiSource/Benchmarks/Bullet/btConvexConvexAlgorithm.cpp:213:1
	callq	_ZN23btConvexConvexAlgorithmD2Ev
.Ltmp70:
	.loc	2 0 1 is_stmt 0         # /home/chris/test-suite/MultiSource/Benchmarks/Bullet/btConvexConvexAlgorithm.cpp:0:1
	movq	(%rsp), %rax            # 8-byte Reload
	.loc	2 213 1                 # /home/chris/test-suite/MultiSource/Benchmarks/Bullet/btConvexConvexAlgorithm.cpp:213:1
	movq	%rax, %rdi
	callq	_ZdlPv
.Ltmp71:
	.loc	2 219 1 is_stmt 1       # /home/chris/test-suite/MultiSource/Benchmarks/Bullet/btConvexConvexAlgorithm.cpp:219:1
	popq	%rax
	.cfi_def_cfa_offset 8
	retq
.Ltmp72:
.Lfunc_end9:
	.size	_ZN23btConvexConvexAlgorithmD0Ev, .Lfunc_end9-_ZN23btConvexConvexAlgorithmD0Ev
	.cfi_endproc
                                        # -- End function
	.globl	_ZN23btConvexConvexAlgorithm19setLowLevelOfDetailEb # -- Begin function _ZN23btConvexConvexAlgorithm19setLowLevelOfDetailEb
	.p2align	4, 0x90
	.type	_ZN23btConvexConvexAlgorithm19setLowLevelOfDetailEb,@function
_ZN23btConvexConvexAlgorithm19setLowLevelOfDetailEb: # @_ZN23btConvexConvexAlgorithm19setLowLevelOfDetailEb
.Lfunc_begin10:
	.loc	2 222 0                 # /home/chris/test-suite/MultiSource/Benchmarks/Bullet/btConvexConvexAlgorithm.cpp:222:0
	.cfi_startproc
# %bb.0:
                                        # kill: def $sil killed $sil killed $esi
	#DEBUG_VALUE: setLowLevelOfDetail:this <- $rdi
	andb	$1, %sil
.Ltmp73:
	#DEBUG_VALUE: setLowLevelOfDetail:useLowLevel <- $sil
	.loc	2 223 21 prologue_end   # /home/chris/test-suite/MultiSource/Benchmarks/Bullet/btConvexConvexAlgorithm.cpp:223:21
	movb	%sil, 144(%rdi)
	.loc	2 224 1                 # /home/chris/test-suite/MultiSource/Benchmarks/Bullet/btConvexConvexAlgorithm.cpp:224:1
	retq
.Ltmp74:
.Lfunc_end10:
	.size	_ZN23btConvexConvexAlgorithm19setLowLevelOfDetailEb, .Lfunc_end10-_ZN23btConvexConvexAlgorithm19setLowLevelOfDetailEb
	.cfi_endproc
                                        # -- End function
	.section	.rodata.cst4,"aM",@progbits,4
	.p2align	2               # -- Begin function _ZN23btConvexConvexAlgorithm16processCollisionEP17btCollisionObjectS1_RK16btDispatcherInfoP16btManifoldResult
.LCPI11_0:
	.long	1566444395              # float 9.99999984E+17
.LCPI11_1:
	.long	872415232               # float 1.1920929E-7
.LCPI11_2:
	.long	1053364187              # float 0.392699093
.LCPI11_3:
	.long	1086918619              # float 6.28318548
	.text
	.globl	_ZN23btConvexConvexAlgorithm16processCollisionEP17btCollisionObjectS1_RK16btDispatcherInfoP16btManifoldResult
	.p2align	4, 0x90
	.type	_ZN23btConvexConvexAlgorithm16processCollisionEP17btCollisionObjectS1_RK16btDispatcherInfoP16btManifoldResult,@function
_ZN23btConvexConvexAlgorithm16processCollisionEP17btCollisionObjectS1_RK16btDispatcherInfoP16btManifoldResult: # @_ZN23btConvexConvexAlgorithm16processCollisionEP17btCollisionObjectS1_RK16btDispatcherInfoP16btManifoldResult
.Lfunc_begin11:
	.loc	2 290 0                 # /home/chris/test-suite/MultiSource/Benchmarks/Bullet/btConvexConvexAlgorithm.cpp:290:0
	.cfi_startproc
	.cfi_personality 3, __gxx_personality_v0
	.cfi_lsda 3, .Lexception2
# %bb.0:
	pushq	%r15
	.cfi_def_cfa_offset 16
	pushq	%r14
	.cfi_def_cfa_offset 24
	pushq	%r13
	.cfi_def_cfa_offset 32
	pushq	%r12
	.cfi_def_cfa_offset 40
	pushq	%rbx
	.cfi_def_cfa_offset 48
	subq	$2368, %rsp             # imm = 0x940
	.cfi_def_cfa_offset 2416
	.cfi_offset %rbx, -48
	.cfi_offset %r12, -40
	.cfi_offset %r13, -32
	.cfi_offset %r14, -24
	.cfi_offset %r15, -16
	leaq	1824(%rsp), %rax
	leaq	1808(%rsp), %r9
	leaq	1792(%rsp), %r10
	leaq	1680(%rsp), %r11
	leaq	1664(%rsp), %rbx
	leaq	1648(%rsp), %r14
.Ltmp147:
	#DEBUG_VALUE: processCollision:this <- $rdi
	#DEBUG_VALUE: processCollision:body0 <- $rsi
	#DEBUG_VALUE: processCollision:body1 <- $rdx
	#DEBUG_VALUE: processCollision:dispatchInfo <- $rcx
	#DEBUG_VALUE: processCollision:resultOut <- $r8
	.loc	2 292 7 prologue_end    # /home/chris/test-suite/MultiSource/Benchmarks/Bullet/btConvexConvexAlgorithm.cpp:292:7
	movq	%rdi, %r15
	addq	$136, %r15
	cmpq	$0, 136(%rdi)
	movq	%rdi, 1248(%rsp)        # 8-byte Spill
.Ltmp148:
	#DEBUG_VALUE: processCollision:this <- [DW_OP_plus_uconst 1248] [$rsp+0]
	#DEBUG_VALUE: processCollision:this <- [DW_OP_plus_uconst 1248] [$rsp+0]
	.loc	2 0 7 is_stmt 0         # /home/chris/test-suite/MultiSource/Benchmarks/Bullet/btConvexConvexAlgorithm.cpp:0:7
	movq	%rsi, 1240(%rsp)        # 8-byte Spill
.Ltmp149:
	#DEBUG_VALUE: processCollision:body0 <- [DW_OP_plus_uconst 1240] [$rsp+0]
	#DEBUG_VALUE: processCollision:body0 <- [DW_OP_plus_uconst 1240] [$rsp+0]
	movq	%rdx, 1232(%rsp)        # 8-byte Spill
.Ltmp150:
	#DEBUG_VALUE: processCollision:body1 <- [DW_OP_plus_uconst 1232] [$rsp+0]
	#DEBUG_VALUE: processCollision:body1 <- [DW_OP_plus_uconst 1232] [$rsp+0]
	movq	%rcx, 1224(%rsp)        # 8-byte Spill
.Ltmp151:
	#DEBUG_VALUE: processCollision:dispatchInfo <- [DW_OP_plus_uconst 1224] [$rsp+0]
	#DEBUG_VALUE: processCollision:dispatchInfo <- [DW_OP_plus_uconst 1224] [$rsp+0]
	movq	%r8, 1216(%rsp)         # 8-byte Spill
.Ltmp152:
	#DEBUG_VALUE: processCollision:resultOut <- [DW_OP_plus_uconst 1216] [$rsp+0]
	#DEBUG_VALUE: processCollision:resultOut <- [DW_OP_plus_uconst 1216] [$rsp+0]
	movq	%rax, 1208(%rsp)        # 8-byte Spill
	movq	%r9, 1200(%rsp)         # 8-byte Spill
	movq	%r10, 1192(%rsp)        # 8-byte Spill
	movq	%r11, 1184(%rsp)        # 8-byte Spill
	movq	%rbx, 1176(%rsp)        # 8-byte Spill
	movq	%r14, 1168(%rsp)        # 8-byte Spill
	movq	%r15, 1160(%rsp)        # 8-byte Spill
.Ltmp153:
	.loc	2 292 6                 # /home/chris/test-suite/MultiSource/Benchmarks/Bullet/btConvexConvexAlgorithm.cpp:292:6
	jne	.LBB11_2
.Ltmp154:
# %bb.1:
	#DEBUG_VALUE: processCollision:resultOut <- [DW_OP_plus_uconst 1216] [$rsp+0]
	#DEBUG_VALUE: processCollision:dispatchInfo <- [DW_OP_plus_uconst 1224] [$rsp+0]
	#DEBUG_VALUE: processCollision:body1 <- [DW_OP_plus_uconst 1232] [$rsp+0]
	#DEBUG_VALUE: processCollision:body0 <- [DW_OP_plus_uconst 1240] [$rsp+0]
	#DEBUG_VALUE: processCollision:this <- [DW_OP_plus_uconst 1248] [$rsp+0]
	.loc	2 0 6                   # /home/chris/test-suite/MultiSource/Benchmarks/Bullet/btConvexConvexAlgorithm.cpp:0:6
	movq	1248(%rsp), %rax        # 8-byte Reload
.Ltmp155:
	.loc	2 295 19 is_stmt 1      # /home/chris/test-suite/MultiSource/Benchmarks/Bullet/btConvexConvexAlgorithm.cpp:295:19
	movq	8(%rax), %rcx
	movq	1240(%rsp), %rdx        # 8-byte Reload
	movq	1232(%rsp), %rsi        # 8-byte Reload
	.loc	2 295 33 is_stmt 0      # /home/chris/test-suite/MultiSource/Benchmarks/Bullet/btConvexConvexAlgorithm.cpp:295:33
	movq	(%rcx), %rdi
	movq	%rdi, 1152(%rsp)        # 8-byte Spill
	movq	%rcx, %rdi
	movq	%rsi, 1144(%rsp)        # 8-byte Spill
	movq	%rdx, %rsi
	movq	1144(%rsp), %rdx        # 8-byte Reload
	movq	1152(%rsp), %rcx        # 8-byte Reload
	callq	*24(%rcx)
.Ltmp156:
	.loc	2 0 33                  # /home/chris/test-suite/MultiSource/Benchmarks/Bullet/btConvexConvexAlgorithm.cpp:0:33
	movq	1160(%rsp), %rcx        # 8-byte Reload
	.loc	2 295 17                # /home/chris/test-suite/MultiSource/Benchmarks/Bullet/btConvexConvexAlgorithm.cpp:295:17
	movq	%rax, (%rcx)
	movq	1248(%rsp), %rax        # 8-byte Reload
	.loc	2 296 17 is_stmt 1      # /home/chris/test-suite/MultiSource/Benchmarks/Bullet/btConvexConvexAlgorithm.cpp:296:17
	movb	$1, 128(%rax)
.Ltmp157:
.LBB11_2:
	#DEBUG_VALUE: processCollision:resultOut <- [DW_OP_plus_uconst 1216] [$rsp+0]
	#DEBUG_VALUE: processCollision:dispatchInfo <- [DW_OP_plus_uconst 1224] [$rsp+0]
	#DEBUG_VALUE: processCollision:body1 <- [DW_OP_plus_uconst 1232] [$rsp+0]
	#DEBUG_VALUE: processCollision:body0 <- [DW_OP_plus_uconst 1240] [$rsp+0]
	#DEBUG_VALUE: processCollision:this <- [DW_OP_plus_uconst 1248] [$rsp+0]
	.loc	2 0 17 is_stmt 0        # /home/chris/test-suite/MultiSource/Benchmarks/Bullet/btConvexConvexAlgorithm.cpp:0:17
	movq	1160(%rsp), %rax        # 8-byte Reload
	.loc	2 298 35 is_stmt 1      # /home/chris/test-suite/MultiSource/Benchmarks/Bullet/btConvexConvexAlgorithm.cpp:298:35
	movq	(%rax), %rsi
	movq	1216(%rsp), %rdi        # 8-byte Reload
	.loc	2 298 13 is_stmt 0      # /home/chris/test-suite/MultiSource/Benchmarks/Bullet/btConvexConvexAlgorithm.cpp:298:13
	callq	_ZN16btManifoldResult21setPersistentManifoldEP20btPersistentManifold
.Ltmp158:
	.loc	2 0 13                  # /home/chris/test-suite/MultiSource/Benchmarks/Bullet/btConvexConvexAlgorithm.cpp:0:13
	movq	1240(%rsp), %rdi        # 8-byte Reload
	.loc	2 304 59 is_stmt 1      # /home/chris/test-suite/MultiSource/Benchmarks/Bullet/btConvexConvexAlgorithm.cpp:304:59
	callq	_ZN17btCollisionObject17getCollisionShapeEv
.Ltmp159:
	.loc	2 304 24 is_stmt 0      # /home/chris/test-suite/MultiSource/Benchmarks/Bullet/btConvexConvexAlgorithm.cpp:304:24
	movq	%rax, %rcx
.Ltmp160:
	#DEBUG_VALUE: processCollision:min0 <- $rcx
	.loc	2 0 24                  # /home/chris/test-suite/MultiSource/Benchmarks/Bullet/btConvexConvexAlgorithm.cpp:0:24
	movq	1232(%rsp), %rdi        # 8-byte Reload
	movq	%rax, 1136(%rsp)        # 8-byte Spill
	movq	%rcx, 1128(%rsp)        # 8-byte Spill
.Ltmp161:
	#DEBUG_VALUE: processCollision:min0 <- [DW_OP_plus_uconst 1128] [$rsp+0]
	#DEBUG_VALUE: processCollision:min0 <- [DW_OP_plus_uconst 1128] [$rsp+0]
	.loc	2 305 59 is_stmt 1      # /home/chris/test-suite/MultiSource/Benchmarks/Bullet/btConvexConvexAlgorithm.cpp:305:59
	callq	_ZN17btCollisionObject17getCollisionShapeEv
.Ltmp162:
	.loc	2 305 24 is_stmt 0      # /home/chris/test-suite/MultiSource/Benchmarks/Bullet/btConvexConvexAlgorithm.cpp:305:24
	movq	%rax, %rcx
.Ltmp163:
	#DEBUG_VALUE: processCollision:min1 <- $rcx
	.loc	2 307 2 is_stmt 1       # /home/chris/test-suite/MultiSource/Benchmarks/Bullet/btConvexConvexAlgorithm.cpp:307:2
	leaq	2352(%rsp), %rdx
	movq	%rdx, %rsi
.Ltmp164:
	#DEBUG_VALUE: processCollision:normalOnB <- [DW_OP_deref] $rdx
	.loc	2 307 13 is_stmt 0      # /home/chris/test-suite/MultiSource/Benchmarks/Bullet/btConvexConvexAlgorithm.cpp:307:13
	movq	%rdx, %rdi
	movq	%rax, 1120(%rsp)        # 8-byte Spill
	movq	%rcx, 1112(%rsp)        # 8-byte Spill
.Ltmp165:
	#DEBUG_VALUE: processCollision:min1 <- [DW_OP_plus_uconst 1112] [$rsp+0]
	#DEBUG_VALUE: processCollision:min1 <- [DW_OP_plus_uconst 1112] [$rsp+0]
	.loc	2 0 13                  # /home/chris/test-suite/MultiSource/Benchmarks/Bullet/btConvexConvexAlgorithm.cpp:0:13
	movq	%rsi, 1104(%rsp)        # 8-byte Spill
	.loc	2 307 13                # /home/chris/test-suite/MultiSource/Benchmarks/Bullet/btConvexConvexAlgorithm.cpp:307:13
	callq	_ZN9btVector3C2Ev
.Ltmp166:
	.loc	2 308 3 is_stmt 1       # /home/chris/test-suite/MultiSource/Benchmarks/Bullet/btConvexConvexAlgorithm.cpp:308:3
	leaq	2336(%rsp), %rax
	movq	%rax, %rcx
.Ltmp167:
	#DEBUG_VALUE: processCollision:pointOnBWorld <- [DW_OP_deref] $rax
	.loc	2 308 14 is_stmt 0      # /home/chris/test-suite/MultiSource/Benchmarks/Bullet/btConvexConvexAlgorithm.cpp:308:14
	movq	%rax, %rdi
	movq	%rcx, 1096(%rsp)        # 8-byte Spill
	callq	_ZN9btVector3C2Ev
.Ltmp168:
	.loc	2 0 14                  # /home/chris/test-suite/MultiSource/Benchmarks/Bullet/btConvexConvexAlgorithm.cpp:0:14
	movq	1136(%rsp), %rdi        # 8-byte Reload
.Ltmp169:
	.loc	2 310 13 is_stmt 1      # /home/chris/test-suite/MultiSource/Benchmarks/Bullet/btConvexConvexAlgorithm.cpp:310:13
	callq	_ZNK16btCollisionShape12getShapeTypeEv
.Ltmp170:
	.loc	2 310 28 is_stmt 0      # /home/chris/test-suite/MultiSource/Benchmarks/Bullet/btConvexConvexAlgorithm.cpp:310:28
	cmpl	$10, %eax
	.loc	2 310 56                # /home/chris/test-suite/MultiSource/Benchmarks/Bullet/btConvexConvexAlgorithm.cpp:310:56
	jne	.LBB11_7
.Ltmp171:
# %bb.3:
	#DEBUG_VALUE: processCollision:min1 <- [DW_OP_plus_uconst 1112] [$rsp+0]
	#DEBUG_VALUE: processCollision:min0 <- [DW_OP_plus_uconst 1128] [$rsp+0]
	#DEBUG_VALUE: processCollision:resultOut <- [DW_OP_plus_uconst 1216] [$rsp+0]
	#DEBUG_VALUE: processCollision:dispatchInfo <- [DW_OP_plus_uconst 1224] [$rsp+0]
	#DEBUG_VALUE: processCollision:body1 <- [DW_OP_plus_uconst 1232] [$rsp+0]
	#DEBUG_VALUE: processCollision:body0 <- [DW_OP_plus_uconst 1240] [$rsp+0]
	#DEBUG_VALUE: processCollision:this <- [DW_OP_plus_uconst 1248] [$rsp+0]
	.loc	2 0 56                  # /home/chris/test-suite/MultiSource/Benchmarks/Bullet/btConvexConvexAlgorithm.cpp:0:56
	movq	1120(%rsp), %rdi        # 8-byte Reload
	.loc	2 310 66                # /home/chris/test-suite/MultiSource/Benchmarks/Bullet/btConvexConvexAlgorithm.cpp:310:66
	callq	_ZNK16btCollisionShape12getShapeTypeEv
.Ltmp172:
	.loc	2 310 81                # /home/chris/test-suite/MultiSource/Benchmarks/Bullet/btConvexConvexAlgorithm.cpp:310:81
	cmpl	$10, %eax
.Ltmp173:
	.loc	2 310 6                 # /home/chris/test-suite/MultiSource/Benchmarks/Bullet/btConvexConvexAlgorithm.cpp:310:6
	jne	.LBB11_7
.Ltmp174:
# %bb.4:
	#DEBUG_VALUE: processCollision:min1 <- [DW_OP_plus_uconst 1112] [$rsp+0]
	#DEBUG_VALUE: processCollision:min0 <- [DW_OP_plus_uconst 1128] [$rsp+0]
	#DEBUG_VALUE: processCollision:resultOut <- [DW_OP_plus_uconst 1216] [$rsp+0]
	#DEBUG_VALUE: processCollision:dispatchInfo <- [DW_OP_plus_uconst 1224] [$rsp+0]
	#DEBUG_VALUE: processCollision:body1 <- [DW_OP_plus_uconst 1232] [$rsp+0]
	#DEBUG_VALUE: processCollision:body0 <- [DW_OP_plus_uconst 1240] [$rsp+0]
	#DEBUG_VALUE: processCollision:this <- [DW_OP_plus_uconst 1248] [$rsp+0]
	.loc	2 0 6                   # /home/chris/test-suite/MultiSource/Benchmarks/Bullet/btConvexConvexAlgorithm.cpp:0:6
	movq	1136(%rsp), %rax        # 8-byte Reload
.Ltmp175:
	#DEBUG_VALUE: capsuleA <- $rax
	movq	1120(%rsp), %rcx        # 8-byte Reload
.Ltmp176:
	#DEBUG_VALUE: capsuleB <- $rcx
	movq	1136(%rsp), %rdx        # 8-byte Reload
	movq	1136(%rsp), %rsi        # 8-byte Reload
.Ltmp177:
	.loc	2 314 39 is_stmt 1      # /home/chris/test-suite/MultiSource/Benchmarks/Bullet/btConvexConvexAlgorithm.cpp:314:39
	movq	(%rsi), %rdi
	movq	%rdi, 1088(%rsp)        # 8-byte Spill
	movq	%rdx, %rdi
	movq	1088(%rsp), %rdx        # 8-byte Reload
	movq	%rax, 1080(%rsp)        # 8-byte Spill
.Ltmp178:
	#DEBUG_VALUE: capsuleA <- [DW_OP_plus_uconst 1080] [$rsp+0]
	#DEBUG_VALUE: capsuleA <- [DW_OP_plus_uconst 1080] [$rsp+0]
	.loc	2 0 39 is_stmt 0        # /home/chris/test-suite/MultiSource/Benchmarks/Bullet/btConvexConvexAlgorithm.cpp:0:39
	movq	%rcx, 1072(%rsp)        # 8-byte Spill
.Ltmp179:
	#DEBUG_VALUE: capsuleB <- [DW_OP_plus_uconst 1072] [$rsp+0]
	#DEBUG_VALUE: capsuleB <- [DW_OP_plus_uconst 1072] [$rsp+0]
	.loc	2 314 39                # /home/chris/test-suite/MultiSource/Benchmarks/Bullet/btConvexConvexAlgorithm.cpp:314:39
	callq	*56(%rdx)
.Ltmp180:
	.loc	2 0 39                  # /home/chris/test-suite/MultiSource/Benchmarks/Bullet/btConvexConvexAlgorithm.cpp:0:39
	movq	1120(%rsp), %rcx        # 8-byte Reload
	movq	1120(%rsp), %rdx        # 8-byte Reload
	.loc	2 315 39 is_stmt 1      # /home/chris/test-suite/MultiSource/Benchmarks/Bullet/btConvexConvexAlgorithm.cpp:315:39
	movq	(%rdx), %rsi
	movq	%rcx, %rdi
	movq	%rax, 1064(%rsp)        # 8-byte Spill
	callq	*56(%rsi)
.Ltmp181:
	.loc	2 0 39 is_stmt 0        # /home/chris/test-suite/MultiSource/Benchmarks/Bullet/btConvexConvexAlgorithm.cpp:0:39
	movq	1160(%rsp), %rcx        # 8-byte Reload
	.loc	2 317 24 is_stmt 1      # /home/chris/test-suite/MultiSource/Benchmarks/Bullet/btConvexConvexAlgorithm.cpp:317:24
	movq	(%rcx), %rdi
	movq	%rax, 1056(%rsp)        # 8-byte Spill
	.loc	2 317 39 is_stmt 0      # /home/chris/test-suite/MultiSource/Benchmarks/Bullet/btConvexConvexAlgorithm.cpp:317:39
	callq	_ZNK20btPersistentManifold27getContactBreakingThresholdEv
.Ltmp182:
	#DEBUG_VALUE: threshold <- $xmm0
	.loc	2 0 39                  # /home/chris/test-suite/MultiSource/Benchmarks/Bullet/btConvexConvexAlgorithm.cpp:0:39
	movq	1080(%rsp), %rdi        # 8-byte Reload
	movss	%xmm0, 1052(%rsp)       # 4-byte Spill
.Ltmp183:
	#DEBUG_VALUE: threshold <- [DW_OP_plus_uconst 1052] [$rsp+0]
	#DEBUG_VALUE: threshold <- [DW_OP_plus_uconst 1052] [$rsp+0]
	.loc	2 319 77 is_stmt 1      # /home/chris/test-suite/MultiSource/Benchmarks/Bullet/btConvexConvexAlgorithm.cpp:319:77
	callq	_ZNK14btCapsuleShape13getHalfHeightEv
.Ltmp184:
	.loc	2 0 77 is_stmt 0        # /home/chris/test-suite/MultiSource/Benchmarks/Bullet/btConvexConvexAlgorithm.cpp:0:77
	movq	1080(%rsp), %rdi        # 8-byte Reload
	movss	%xmm0, 1048(%rsp)       # 4-byte Spill
	.loc	2 319 103               # /home/chris/test-suite/MultiSource/Benchmarks/Bullet/btConvexConvexAlgorithm.cpp:319:103
	callq	_ZNK14btCapsuleShape9getRadiusEv
.Ltmp185:
	.loc	2 0 103                 # /home/chris/test-suite/MultiSource/Benchmarks/Bullet/btConvexConvexAlgorithm.cpp:0:103
	movq	1072(%rsp), %rdi        # 8-byte Reload
	movss	%xmm0, 1044(%rsp)       # 4-byte Spill
	.loc	2 320 14 is_stmt 1      # /home/chris/test-suite/MultiSource/Benchmarks/Bullet/btConvexConvexAlgorithm.cpp:320:14
	callq	_ZNK14btCapsuleShape13getHalfHeightEv
.Ltmp186:
	.loc	2 0 14 is_stmt 0        # /home/chris/test-suite/MultiSource/Benchmarks/Bullet/btConvexConvexAlgorithm.cpp:0:14
	movq	1072(%rsp), %rdi        # 8-byte Reload
	movss	%xmm0, 1040(%rsp)       # 4-byte Spill
	.loc	2 320 40                # /home/chris/test-suite/MultiSource/Benchmarks/Bullet/btConvexConvexAlgorithm.cpp:320:40
	callq	_ZNK14btCapsuleShape9getRadiusEv
.Ltmp187:
	.loc	2 0 40                  # /home/chris/test-suite/MultiSource/Benchmarks/Bullet/btConvexConvexAlgorithm.cpp:0:40
	movq	1080(%rsp), %rdi        # 8-byte Reload
	movss	%xmm0, 1036(%rsp)       # 4-byte Spill
	.loc	2 320 62                # /home/chris/test-suite/MultiSource/Benchmarks/Bullet/btConvexConvexAlgorithm.cpp:320:62
	callq	_ZNK14btCapsuleShape9getUpAxisEv
.Ltmp188:
	.loc	2 0 62                  # /home/chris/test-suite/MultiSource/Benchmarks/Bullet/btConvexConvexAlgorithm.cpp:0:62
	movq	1072(%rsp), %rdi        # 8-byte Reload
	movl	%eax, 1032(%rsp)        # 4-byte Spill
	.loc	2 320 84                # /home/chris/test-suite/MultiSource/Benchmarks/Bullet/btConvexConvexAlgorithm.cpp:320:84
	callq	_ZNK14btCapsuleShape9getUpAxisEv
.Ltmp189:
	.loc	2 0 84                  # /home/chris/test-suite/MultiSource/Benchmarks/Bullet/btConvexConvexAlgorithm.cpp:0:84
	movq	1240(%rsp), %rdi        # 8-byte Reload
	movl	%eax, 1028(%rsp)        # 4-byte Spill
	.loc	2 321 11 is_stmt 1      # /home/chris/test-suite/MultiSource/Benchmarks/Bullet/btConvexConvexAlgorithm.cpp:321:11
	callq	_ZN17btCollisionObject17getWorldTransformEv
.Ltmp190:
	.loc	2 0 11 is_stmt 0        # /home/chris/test-suite/MultiSource/Benchmarks/Bullet/btConvexConvexAlgorithm.cpp:0:11
	movq	1232(%rsp), %rdi        # 8-byte Reload
	movq	%rax, 1016(%rsp)        # 8-byte Spill
	.loc	2 321 38                # /home/chris/test-suite/MultiSource/Benchmarks/Bullet/btConvexConvexAlgorithm.cpp:321:38
	callq	_ZN17btCollisionObject17getWorldTransformEv
.Ltmp191:
	.loc	2 319 19 is_stmt 1      # /home/chris/test-suite/MultiSource/Benchmarks/Bullet/btConvexConvexAlgorithm.cpp:319:19
	leaq	2352(%rsp), %rdi
	leaq	2336(%rsp), %rsi
	movss	1048(%rsp), %xmm0       # 4-byte Reload
                                        # xmm0 = mem[0],zero,zero,zero
	movss	1044(%rsp), %xmm1       # 4-byte Reload
                                        # xmm1 = mem[0],zero,zero,zero
	movss	1040(%rsp), %xmm2       # 4-byte Reload
                                        # xmm2 = mem[0],zero,zero,zero
	movss	1036(%rsp), %xmm3       # 4-byte Reload
                                        # xmm3 = mem[0],zero,zero,zero
	movl	1032(%rsp), %edx        # 4-byte Reload
	movl	1028(%rsp), %ecx        # 4-byte Reload
	movq	1016(%rsp), %r8         # 8-byte Reload
	movq	%rax, %r9
	movss	1052(%rsp), %xmm4       # 4-byte Reload
                                        # xmm4 = mem[0],zero,zero,zero
	callq	_ZL22capsuleCapsuleDistanceR9btVector3S0_ffffiiRK11btTransformS3_f
.Ltmp192:
	#DEBUG_VALUE: dist <- $xmm0
	.loc	2 0 19 is_stmt 0        # /home/chris/test-suite/MultiSource/Benchmarks/Bullet/btConvexConvexAlgorithm.cpp:0:19
	movss	1052(%rsp), %xmm1       # 4-byte Reload
                                        # xmm1 = mem[0],zero,zero,zero
.Ltmp193:
	.loc	2 323 11 is_stmt 1      # /home/chris/test-suite/MultiSource/Benchmarks/Bullet/btConvexConvexAlgorithm.cpp:323:11
	ucomiss	%xmm0, %xmm1
	movss	%xmm0, 1012(%rsp)       # 4-byte Spill
.Ltmp194:
	#DEBUG_VALUE: dist <- [DW_OP_plus_uconst 1012] [$rsp+0]
	#DEBUG_VALUE: dist <- [DW_OP_plus_uconst 1012] [$rsp+0]
	.loc	2 323 7 is_stmt 0       # /home/chris/test-suite/MultiSource/Benchmarks/Bullet/btConvexConvexAlgorithm.cpp:323:7
	jbe	.LBB11_6
.Ltmp195:
# %bb.5:
	#DEBUG_VALUE: dist <- [DW_OP_plus_uconst 1012] [$rsp+0]
	#DEBUG_VALUE: threshold <- [DW_OP_plus_uconst 1052] [$rsp+0]
	#DEBUG_VALUE: capsuleB <- [DW_OP_plus_uconst 1072] [$rsp+0]
	#DEBUG_VALUE: capsuleA <- [DW_OP_plus_uconst 1080] [$rsp+0]
	#DEBUG_VALUE: processCollision:min1 <- [DW_OP_plus_uconst 1112] [$rsp+0]
	#DEBUG_VALUE: processCollision:min0 <- [DW_OP_plus_uconst 1128] [$rsp+0]
	#DEBUG_VALUE: processCollision:resultOut <- [DW_OP_plus_uconst 1216] [$rsp+0]
	#DEBUG_VALUE: processCollision:dispatchInfo <- [DW_OP_plus_uconst 1224] [$rsp+0]
	#DEBUG_VALUE: processCollision:body1 <- [DW_OP_plus_uconst 1232] [$rsp+0]
	#DEBUG_VALUE: processCollision:body0 <- [DW_OP_plus_uconst 1240] [$rsp+0]
	#DEBUG_VALUE: processCollision:this <- [DW_OP_plus_uconst 1248] [$rsp+0]
	.loc	2 0 7                   # /home/chris/test-suite/MultiSource/Benchmarks/Bullet/btConvexConvexAlgorithm.cpp:0:7
	movq	1216(%rsp), %rax        # 8-byte Reload
.Ltmp196:
	.loc	2 326 15 is_stmt 1      # /home/chris/test-suite/MultiSource/Benchmarks/Bullet/btConvexConvexAlgorithm.cpp:326:15
	movq	(%rax), %rcx
	movq	%rax, %rdi
	leaq	2352(%rsp), %rsi
	leaq	2336(%rsp), %rdx
	movss	1012(%rsp), %xmm0       # 4-byte Reload
                                        # xmm0 = mem[0],zero,zero,zero
	callq	*32(%rcx)
.Ltmp197:
.LBB11_6:
	#DEBUG_VALUE: dist <- [DW_OP_plus_uconst 1012] [$rsp+0]
	#DEBUG_VALUE: threshold <- [DW_OP_plus_uconst 1052] [$rsp+0]
	#DEBUG_VALUE: capsuleB <- [DW_OP_plus_uconst 1072] [$rsp+0]
	#DEBUG_VALUE: capsuleA <- [DW_OP_plus_uconst 1080] [$rsp+0]
	#DEBUG_VALUE: processCollision:min1 <- [DW_OP_plus_uconst 1112] [$rsp+0]
	#DEBUG_VALUE: processCollision:min0 <- [DW_OP_plus_uconst 1128] [$rsp+0]
	#DEBUG_VALUE: processCollision:resultOut <- [DW_OP_plus_uconst 1216] [$rsp+0]
	#DEBUG_VALUE: processCollision:dispatchInfo <- [DW_OP_plus_uconst 1224] [$rsp+0]
	#DEBUG_VALUE: processCollision:body1 <- [DW_OP_plus_uconst 1232] [$rsp+0]
	#DEBUG_VALUE: processCollision:body0 <- [DW_OP_plus_uconst 1240] [$rsp+0]
	#DEBUG_VALUE: processCollision:this <- [DW_OP_plus_uconst 1248] [$rsp+0]
	.loc	2 0 15 is_stmt 0        # /home/chris/test-suite/MultiSource/Benchmarks/Bullet/btConvexConvexAlgorithm.cpp:0:15
	movq	1216(%rsp), %rdi        # 8-byte Reload
	.loc	2 328 14 is_stmt 1      # /home/chris/test-suite/MultiSource/Benchmarks/Bullet/btConvexConvexAlgorithm.cpp:328:14
	callq	_ZN16btManifoldResult20refreshContactPointsEv
.Ltmp198:
	.loc	2 0 14 is_stmt 0        # /home/chris/test-suite/MultiSource/Benchmarks/Bullet/btConvexConvexAlgorithm.cpp:0:14
	jmp	.LBB11_75
.Ltmp199:
.LBB11_7:
	#DEBUG_VALUE: processCollision:min1 <- [DW_OP_plus_uconst 1112] [$rsp+0]
	#DEBUG_VALUE: processCollision:min0 <- [DW_OP_plus_uconst 1128] [$rsp+0]
	#DEBUG_VALUE: processCollision:resultOut <- [DW_OP_plus_uconst 1216] [$rsp+0]
	#DEBUG_VALUE: processCollision:dispatchInfo <- [DW_OP_plus_uconst 1224] [$rsp+0]
	#DEBUG_VALUE: processCollision:body1 <- [DW_OP_plus_uconst 1232] [$rsp+0]
	#DEBUG_VALUE: processCollision:body0 <- [DW_OP_plus_uconst 1240] [$rsp+0]
	#DEBUG_VALUE: processCollision:this <- [DW_OP_plus_uconst 1248] [$rsp+0]
	movq	1248(%rsp), %rax        # 8-byte Reload
	.loc	2 335 2 is_stmt 1       # /home/chris/test-suite/MultiSource/Benchmarks/Bullet/btConvexConvexAlgorithm.cpp:335:2
	addq	$16, %rax
	movq	1240(%rsp), %rdi        # 8-byte Reload
	movq	%rax, 1000(%rsp)        # 8-byte Spill
	.loc	2 335 48 is_stmt 0      # /home/chris/test-suite/MultiSource/Benchmarks/Bullet/btConvexConvexAlgorithm.cpp:335:48
	callq	_ZN17btCollisionObject17getWorldTransformEv
.Ltmp200:
	.loc	2 0 48                  # /home/chris/test-suite/MultiSource/Benchmarks/Bullet/btConvexConvexAlgorithm.cpp:0:48
	movq	1232(%rsp), %rdi        # 8-byte Reload
	movq	%rax, 992(%rsp)         # 8-byte Spill
	.loc	2 335 75                # /home/chris/test-suite/MultiSource/Benchmarks/Bullet/btConvexConvexAlgorithm.cpp:335:75
	callq	_ZN17btCollisionObject17getWorldTransformEv
.Ltmp201:
	.loc	2 0 75                  # /home/chris/test-suite/MultiSource/Benchmarks/Bullet/btConvexConvexAlgorithm.cpp:0:75
	movq	1000(%rsp), %rdi        # 8-byte Reload
	movq	992(%rsp), %rsi         # 8-byte Reload
	.loc	2 335 16                # /home/chris/test-suite/MultiSource/Benchmarks/Bullet/btConvexConvexAlgorithm.cpp:335:16
	movq	%rax, %rdx
	callq	_ZN30btConvexSeparatingDistanceUtil24updateSeparatingDistanceERK11btTransformS2_
.Ltmp202:
	.loc	2 0 16                  # /home/chris/test-suite/MultiSource/Benchmarks/Bullet/btConvexConvexAlgorithm.cpp:0:16
	movq	1224(%rsp), %rax        # 8-byte Reload
.Ltmp203:
	.loc	2 336 20 is_stmt 1      # /home/chris/test-suite/MultiSource/Benchmarks/Bullet/btConvexConvexAlgorithm.cpp:336:20
	addq	$40, %rax
	movq	1224(%rsp), %rcx        # 8-byte Reload
	cmpb	$0, 40(%rcx)
	movq	%rax, 984(%rsp)         # 8-byte Spill
	.loc	2 336 56 is_stmt 0      # /home/chris/test-suite/MultiSource/Benchmarks/Bullet/btConvexConvexAlgorithm.cpp:336:56
	je	.LBB11_9
.Ltmp204:
# %bb.8:
	#DEBUG_VALUE: processCollision:min1 <- [DW_OP_plus_uconst 1112] [$rsp+0]
	#DEBUG_VALUE: processCollision:min0 <- [DW_OP_plus_uconst 1128] [$rsp+0]
	#DEBUG_VALUE: processCollision:resultOut <- [DW_OP_plus_uconst 1216] [$rsp+0]
	#DEBUG_VALUE: processCollision:dispatchInfo <- [DW_OP_plus_uconst 1224] [$rsp+0]
	#DEBUG_VALUE: processCollision:body1 <- [DW_OP_plus_uconst 1232] [$rsp+0]
	#DEBUG_VALUE: processCollision:body0 <- [DW_OP_plus_uconst 1240] [$rsp+0]
	#DEBUG_VALUE: processCollision:this <- [DW_OP_plus_uconst 1248] [$rsp+0]
	.loc	2 0 56                  # /home/chris/test-suite/MultiSource/Benchmarks/Bullet/btConvexConvexAlgorithm.cpp:0:56
	movq	1000(%rsp), %rdi        # 8-byte Reload
	.loc	2 336 73                # /home/chris/test-suite/MultiSource/Benchmarks/Bullet/btConvexConvexAlgorithm.cpp:336:73
	callq	_ZN30btConvexSeparatingDistanceUtil33getConservativeSeparatingDistanceEv
.Ltmp205:
	.loc	2 336 108               # /home/chris/test-suite/MultiSource/Benchmarks/Bullet/btConvexConvexAlgorithm.cpp:336:108
	xorps	%xmm1, %xmm1
	ucomiss	%xmm0, %xmm1
.Ltmp206:
	.loc	2 336 6                 # /home/chris/test-suite/MultiSource/Benchmarks/Bullet/btConvexConvexAlgorithm.cpp:336:6
	jb	.LBB11_73
.Ltmp207:
.LBB11_9:
	#DEBUG_VALUE: processCollision:min1 <- [DW_OP_plus_uconst 1112] [$rsp+0]
	#DEBUG_VALUE: processCollision:min0 <- [DW_OP_plus_uconst 1128] [$rsp+0]
	#DEBUG_VALUE: processCollision:resultOut <- [DW_OP_plus_uconst 1216] [$rsp+0]
	#DEBUG_VALUE: processCollision:dispatchInfo <- [DW_OP_plus_uconst 1224] [$rsp+0]
	#DEBUG_VALUE: processCollision:body1 <- [DW_OP_plus_uconst 1232] [$rsp+0]
	#DEBUG_VALUE: processCollision:body0 <- [DW_OP_plus_uconst 1240] [$rsp+0]
	#DEBUG_VALUE: processCollision:this <- [DW_OP_plus_uconst 1248] [$rsp+0]
	.loc	2 342 2 is_stmt 1       # /home/chris/test-suite/MultiSource/Benchmarks/Bullet/btConvexConvexAlgorithm.cpp:342:2
	leaq	2192(%rsp), %rax
	movq	%rax, %rcx
.Ltmp208:
	#DEBUG_VALUE: input <- [DW_OP_deref] $rax
	.loc	2 342 39 is_stmt 0      # /home/chris/test-suite/MultiSource/Benchmarks/Bullet/btConvexConvexAlgorithm.cpp:342:39
	movq	%rax, %rdi
	movq	%rcx, 976(%rsp)         # 8-byte Spill
	callq	_ZN36btDiscreteCollisionDetectorInterface17ClosestPointInputC2Ev
.Ltmp209:
	.loc	2 344 2 is_stmt 1       # /home/chris/test-suite/MultiSource/Benchmarks/Bullet/btConvexConvexAlgorithm.cpp:344:2
	leaq	2096(%rsp), %rax
	movq	%rax, %rcx
.Ltmp210:
	#DEBUG_VALUE: gjkPairDetector <- [DW_OP_deref] $rax
	.loc	2 0 2 is_stmt 0         # /home/chris/test-suite/MultiSource/Benchmarks/Bullet/btConvexConvexAlgorithm.cpp:0:2
	movq	1248(%rsp), %rdx        # 8-byte Reload
	.loc	2 344 46                # /home/chris/test-suite/MultiSource/Benchmarks/Bullet/btConvexConvexAlgorithm.cpp:344:46
	movq	112(%rdx), %rsi
	.loc	2 344 62                # /home/chris/test-suite/MultiSource/Benchmarks/Bullet/btConvexConvexAlgorithm.cpp:344:62
	movq	120(%rdx), %r8
	.loc	2 344 20                # /home/chris/test-suite/MultiSource/Benchmarks/Bullet/btConvexConvexAlgorithm.cpp:344:20
	movq	%rax, %rdi
	movq	1128(%rsp), %rax        # 8-byte Reload
.Ltmp211:
	.loc	2 0 20                  # /home/chris/test-suite/MultiSource/Benchmarks/Bullet/btConvexConvexAlgorithm.cpp:0:20
	movq	%rsi, 968(%rsp)         # 8-byte Spill
	.loc	2 344 20                # /home/chris/test-suite/MultiSource/Benchmarks/Bullet/btConvexConvexAlgorithm.cpp:344:20
	movq	%rax, %rsi
	movq	1112(%rsp), %rdx        # 8-byte Reload
	movq	968(%rsp), %r9          # 8-byte Reload
	movq	%rcx, 960(%rsp)         # 8-byte Spill
	movq	%r9, %rcx
	callq	_ZN17btGjkPairDetectorC1EPK13btConvexShapeS2_P22btVoronoiSimplexSolverP30btConvexPenetrationDepthSolver
.Ltmp212:
	.loc	2 346 18 is_stmt 1      # /home/chris/test-suite/MultiSource/Benchmarks/Bullet/btConvexConvexAlgorithm.cpp:346:18
	leaq	2096(%rsp), %rdi
	movq	1128(%rsp), %rsi        # 8-byte Reload
	callq	_ZN17btGjkPairDetector13setMinkowskiAEP13btConvexShape
.Ltmp213:
	.loc	2 347 18                # /home/chris/test-suite/MultiSource/Benchmarks/Bullet/btConvexConvexAlgorithm.cpp:347:18
	leaq	2096(%rsp), %rdi
	movq	1112(%rsp), %rsi        # 8-byte Reload
	callq	_ZN17btGjkPairDetector13setMinkowskiBEP13btConvexShape
.Ltmp214:
	.loc	2 0 18 is_stmt 0        # /home/chris/test-suite/MultiSource/Benchmarks/Bullet/btConvexConvexAlgorithm.cpp:0:18
	movq	984(%rsp), %rax         # 8-byte Reload
.Ltmp215:
	.loc	2 350 19 is_stmt 1      # /home/chris/test-suite/MultiSource/Benchmarks/Bullet/btConvexConvexAlgorithm.cpp:350:19
	cmpb	$0, (%rax)
.Ltmp216:
	.loc	2 350 6 is_stmt 0       # /home/chris/test-suite/MultiSource/Benchmarks/Bullet/btConvexConvexAlgorithm.cpp:350:6
	je	.LBB11_12
.Ltmp217:
# %bb.10:
	#DEBUG_VALUE: processCollision:min1 <- [DW_OP_plus_uconst 1112] [$rsp+0]
	#DEBUG_VALUE: processCollision:min0 <- [DW_OP_plus_uconst 1128] [$rsp+0]
	#DEBUG_VALUE: processCollision:resultOut <- [DW_OP_plus_uconst 1216] [$rsp+0]
	#DEBUG_VALUE: processCollision:dispatchInfo <- [DW_OP_plus_uconst 1224] [$rsp+0]
	#DEBUG_VALUE: processCollision:body1 <- [DW_OP_plus_uconst 1232] [$rsp+0]
	#DEBUG_VALUE: processCollision:body0 <- [DW_OP_plus_uconst 1240] [$rsp+0]
	#DEBUG_VALUE: processCollision:this <- [DW_OP_plus_uconst 1248] [$rsp+0]
	.loc	2 0 6                   # /home/chris/test-suite/MultiSource/Benchmarks/Bullet/btConvexConvexAlgorithm.cpp:0:6
	movss	.LCPI11_0(%rip), %xmm0  # xmm0 = mem[0],zero,zero,zero
.Ltmp218:
	.loc	2 352 34 is_stmt 1      # /home/chris/test-suite/MultiSource/Benchmarks/Bullet/btConvexConvexAlgorithm.cpp:352:34
	movss	%xmm0, 2320(%rsp)
	.loc	2 353 2                 # /home/chris/test-suite/MultiSource/Benchmarks/Bullet/btConvexConvexAlgorithm.cpp:353:2
	jmp	.LBB11_16
.Ltmp219:
.LBB11_11:
	#DEBUG_VALUE: processCollision:min1 <- [DW_OP_plus_uconst 1112] [$rsp+0]
	#DEBUG_VALUE: processCollision:min0 <- [DW_OP_plus_uconst 1128] [$rsp+0]
	#DEBUG_VALUE: processCollision:resultOut <- [DW_OP_plus_uconst 1216] [$rsp+0]
	#DEBUG_VALUE: processCollision:dispatchInfo <- [DW_OP_plus_uconst 1224] [$rsp+0]
	#DEBUG_VALUE: processCollision:body1 <- [DW_OP_plus_uconst 1232] [$rsp+0]
	#DEBUG_VALUE: processCollision:body0 <- [DW_OP_plus_uconst 1240] [$rsp+0]
	#DEBUG_VALUE: processCollision:this <- [DW_OP_plus_uconst 1248] [$rsp+0]
.Ltmp87:
                                        # kill: def $edx killed $edx killed $rdx
	.loc	2 0 2 is_stmt 0         # /home/chris/test-suite/MultiSource/Benchmarks/Bullet/btConvexConvexAlgorithm.cpp:0:2
	movq	%rax, 952(%rsp)         # 8-byte Spill
	.loc	2 466 1 is_stmt 1       # /home/chris/test-suite/MultiSource/Benchmarks/Bullet/btConvexConvexAlgorithm.cpp:466:1
	jmp	.LBB11_72
.Ltmp220:
.LBB11_12:
	#DEBUG_VALUE: processCollision:min1 <- [DW_OP_plus_uconst 1112] [$rsp+0]
	#DEBUG_VALUE: processCollision:min0 <- [DW_OP_plus_uconst 1128] [$rsp+0]
	#DEBUG_VALUE: processCollision:resultOut <- [DW_OP_plus_uconst 1216] [$rsp+0]
	#DEBUG_VALUE: processCollision:dispatchInfo <- [DW_OP_plus_uconst 1224] [$rsp+0]
	#DEBUG_VALUE: processCollision:body1 <- [DW_OP_plus_uconst 1232] [$rsp+0]
	#DEBUG_VALUE: processCollision:body0 <- [DW_OP_plus_uconst 1240] [$rsp+0]
	#DEBUG_VALUE: processCollision:this <- [DW_OP_plus_uconst 1248] [$rsp+0]
	.loc	2 0 1 is_stmt 0         # /home/chris/test-suite/MultiSource/Benchmarks/Bullet/btConvexConvexAlgorithm.cpp:0:1
	movq	1136(%rsp), %rax        # 8-byte Reload
.Ltmp221:
	.loc	2 356 42 is_stmt 1      # /home/chris/test-suite/MultiSource/Benchmarks/Bullet/btConvexConvexAlgorithm.cpp:356:42
	movq	(%rax), %rcx
	movq	88(%rcx), %rcx
.Ltmp75:
	movq	1128(%rsp), %rdi        # 8-byte Reload
	callq	*%rcx
.Ltmp222:
.Ltmp76:
	.loc	2 0 42 is_stmt 0        # /home/chris/test-suite/MultiSource/Benchmarks/Bullet/btConvexConvexAlgorithm.cpp:0:42
	movss	%xmm0, 948(%rsp)        # 4-byte Spill
	.loc	2 356 42                # /home/chris/test-suite/MultiSource/Benchmarks/Bullet/btConvexConvexAlgorithm.cpp:356:42
	jmp	.LBB11_13
.Ltmp223:
.LBB11_13:
	#DEBUG_VALUE: processCollision:min1 <- [DW_OP_plus_uconst 1112] [$rsp+0]
	#DEBUG_VALUE: processCollision:min0 <- [DW_OP_plus_uconst 1128] [$rsp+0]
	#DEBUG_VALUE: processCollision:resultOut <- [DW_OP_plus_uconst 1216] [$rsp+0]
	#DEBUG_VALUE: processCollision:dispatchInfo <- [DW_OP_plus_uconst 1224] [$rsp+0]
	#DEBUG_VALUE: processCollision:body1 <- [DW_OP_plus_uconst 1232] [$rsp+0]
	#DEBUG_VALUE: processCollision:body0 <- [DW_OP_plus_uconst 1240] [$rsp+0]
	#DEBUG_VALUE: processCollision:this <- [DW_OP_plus_uconst 1248] [$rsp+0]
	.loc	2 0 42                  # /home/chris/test-suite/MultiSource/Benchmarks/Bullet/btConvexConvexAlgorithm.cpp:0:42
	movq	1120(%rsp), %rax        # 8-byte Reload
	.loc	2 356 62                # /home/chris/test-suite/MultiSource/Benchmarks/Bullet/btConvexConvexAlgorithm.cpp:356:62
	movq	(%rax), %rcx
	movq	88(%rcx), %rcx
.Ltmp77:
	movq	1112(%rsp), %rdi        # 8-byte Reload
	callq	*%rcx
.Ltmp224:
.Ltmp78:
	.loc	2 0 62                  # /home/chris/test-suite/MultiSource/Benchmarks/Bullet/btConvexConvexAlgorithm.cpp:0:62
	movss	%xmm0, 944(%rsp)        # 4-byte Spill
	.loc	2 356 62                # /home/chris/test-suite/MultiSource/Benchmarks/Bullet/btConvexConvexAlgorithm.cpp:356:62
	jmp	.LBB11_14
.Ltmp225:
.LBB11_14:
	#DEBUG_VALUE: processCollision:min1 <- [DW_OP_plus_uconst 1112] [$rsp+0]
	#DEBUG_VALUE: processCollision:min0 <- [DW_OP_plus_uconst 1128] [$rsp+0]
	#DEBUG_VALUE: processCollision:resultOut <- [DW_OP_plus_uconst 1216] [$rsp+0]
	#DEBUG_VALUE: processCollision:dispatchInfo <- [DW_OP_plus_uconst 1224] [$rsp+0]
	#DEBUG_VALUE: processCollision:body1 <- [DW_OP_plus_uconst 1232] [$rsp+0]
	#DEBUG_VALUE: processCollision:body0 <- [DW_OP_plus_uconst 1240] [$rsp+0]
	#DEBUG_VALUE: processCollision:this <- [DW_OP_plus_uconst 1248] [$rsp+0]
	.loc	2 0 62                  # /home/chris/test-suite/MultiSource/Benchmarks/Bullet/btConvexConvexAlgorithm.cpp:0:62
	movq	1160(%rsp), %rax        # 8-byte Reload
	.loc	2 356 76                # /home/chris/test-suite/MultiSource/Benchmarks/Bullet/btConvexConvexAlgorithm.cpp:356:76
	movq	(%rax), %rdi
.Ltmp79:
	.loc	2 356 91                # /home/chris/test-suite/MultiSource/Benchmarks/Bullet/btConvexConvexAlgorithm.cpp:356:91
	callq	_ZNK20btPersistentManifold27getContactBreakingThresholdEv
.Ltmp226:
.Ltmp80:
	.loc	2 0 91                  # /home/chris/test-suite/MultiSource/Benchmarks/Bullet/btConvexConvexAlgorithm.cpp:0:91
	movss	%xmm0, 940(%rsp)        # 4-byte Spill
	.loc	2 356 91                # /home/chris/test-suite/MultiSource/Benchmarks/Bullet/btConvexConvexAlgorithm.cpp:356:91
	jmp	.LBB11_15
.Ltmp227:
.LBB11_15:
	#DEBUG_VALUE: processCollision:min1 <- [DW_OP_plus_uconst 1112] [$rsp+0]
	#DEBUG_VALUE: processCollision:min0 <- [DW_OP_plus_uconst 1128] [$rsp+0]
	#DEBUG_VALUE: processCollision:resultOut <- [DW_OP_plus_uconst 1216] [$rsp+0]
	#DEBUG_VALUE: processCollision:dispatchInfo <- [DW_OP_plus_uconst 1224] [$rsp+0]
	#DEBUG_VALUE: processCollision:body1 <- [DW_OP_plus_uconst 1232] [$rsp+0]
	#DEBUG_VALUE: processCollision:body0 <- [DW_OP_plus_uconst 1240] [$rsp+0]
	#DEBUG_VALUE: processCollision:this <- [DW_OP_plus_uconst 1248] [$rsp+0]
	.loc	2 0 91                  # /home/chris/test-suite/MultiSource/Benchmarks/Bullet/btConvexConvexAlgorithm.cpp:0:91
	movss	948(%rsp), %xmm0        # 4-byte Reload
                                        # xmm0 = mem[0],zero,zero,zero
	movss	944(%rsp), %xmm1        # 4-byte Reload
                                        # xmm1 = mem[0],zero,zero,zero
	.loc	2 356 54                # /home/chris/test-suite/MultiSource/Benchmarks/Bullet/btConvexConvexAlgorithm.cpp:356:54
	addss	%xmm1, %xmm0
	movss	940(%rsp), %xmm2        # 4-byte Reload
                                        # xmm2 = mem[0],zero,zero,zero
	.loc	2 356 74                # /home/chris/test-suite/MultiSource/Benchmarks/Bullet/btConvexConvexAlgorithm.cpp:356:74
	addss	%xmm2, %xmm0
	.loc	2 357 33 is_stmt 1      # /home/chris/test-suite/MultiSource/Benchmarks/Bullet/btConvexConvexAlgorithm.cpp:357:33
	mulss	%xmm0, %xmm0
	movss	%xmm0, 2320(%rsp)
.Ltmp228:
.LBB11_16:
	#DEBUG_VALUE: processCollision:min1 <- [DW_OP_plus_uconst 1112] [$rsp+0]
	#DEBUG_VALUE: processCollision:min0 <- [DW_OP_plus_uconst 1128] [$rsp+0]
	#DEBUG_VALUE: processCollision:resultOut <- [DW_OP_plus_uconst 1216] [$rsp+0]
	#DEBUG_VALUE: processCollision:dispatchInfo <- [DW_OP_plus_uconst 1224] [$rsp+0]
	#DEBUG_VALUE: processCollision:body1 <- [DW_OP_plus_uconst 1232] [$rsp+0]
	#DEBUG_VALUE: processCollision:body0 <- [DW_OP_plus_uconst 1240] [$rsp+0]
	#DEBUG_VALUE: processCollision:this <- [DW_OP_plus_uconst 1248] [$rsp+0]
	.loc	2 0 33 is_stmt 0        # /home/chris/test-suite/MultiSource/Benchmarks/Bullet/btConvexConvexAlgorithm.cpp:0:33
	movq	1224(%rsp), %rax        # 8-byte Reload
	.loc	2 360 36 is_stmt 1      # /home/chris/test-suite/MultiSource/Benchmarks/Bullet/btConvexConvexAlgorithm.cpp:360:36
	movq	48(%rax), %rcx
	.loc	2 360 21 is_stmt 0      # /home/chris/test-suite/MultiSource/Benchmarks/Bullet/btConvexConvexAlgorithm.cpp:360:21
	movq	%rcx, 2328(%rsp)
	movq	1240(%rsp), %rdi        # 8-byte Reload
	.loc	2 361 30 is_stmt 1      # /home/chris/test-suite/MultiSource/Benchmarks/Bullet/btConvexConvexAlgorithm.cpp:361:30
	callq	_ZN17btCollisionObject17getWorldTransformEv
.Ltmp229:
	.loc	2 0 30 is_stmt 0        # /home/chris/test-suite/MultiSource/Benchmarks/Bullet/btConvexConvexAlgorithm.cpp:0:30
	leaq	2192(%rsp), %rcx
.Ltmp81:
	.loc	2 361 21                # /home/chris/test-suite/MultiSource/Benchmarks/Bullet/btConvexConvexAlgorithm.cpp:361:21
	movq	%rcx, %rdi
	movq	%rax, %rsi
	movq	%rcx, 928(%rsp)         # 8-byte Spill
	callq	_ZN11btTransformaSERKS_
.Ltmp230:
.Ltmp82:
	jmp	.LBB11_17
.Ltmp231:
.LBB11_17:
	#DEBUG_VALUE: processCollision:min1 <- [DW_OP_plus_uconst 1112] [$rsp+0]
	#DEBUG_VALUE: processCollision:min0 <- [DW_OP_plus_uconst 1128] [$rsp+0]
	#DEBUG_VALUE: processCollision:resultOut <- [DW_OP_plus_uconst 1216] [$rsp+0]
	#DEBUG_VALUE: processCollision:dispatchInfo <- [DW_OP_plus_uconst 1224] [$rsp+0]
	#DEBUG_VALUE: processCollision:body1 <- [DW_OP_plus_uconst 1232] [$rsp+0]
	#DEBUG_VALUE: processCollision:body0 <- [DW_OP_plus_uconst 1240] [$rsp+0]
	#DEBUG_VALUE: processCollision:this <- [DW_OP_plus_uconst 1248] [$rsp+0]
	.loc	2 0 21                  # /home/chris/test-suite/MultiSource/Benchmarks/Bullet/btConvexConvexAlgorithm.cpp:0:21
	movq	1232(%rsp), %rdi        # 8-byte Reload
	.loc	2 362 30 is_stmt 1      # /home/chris/test-suite/MultiSource/Benchmarks/Bullet/btConvexConvexAlgorithm.cpp:362:30
	callq	_ZN17btCollisionObject17getWorldTransformEv
.Ltmp232:
	.loc	2 362 8 is_stmt 0       # /home/chris/test-suite/MultiSource/Benchmarks/Bullet/btConvexConvexAlgorithm.cpp:362:8
	leaq	2256(%rsp), %rcx
.Ltmp83:
	.loc	2 362 21                # /home/chris/test-suite/MultiSource/Benchmarks/Bullet/btConvexConvexAlgorithm.cpp:362:21
	movq	%rcx, %rdi
	movq	%rax, %rsi
	movq	%rcx, 920(%rsp)         # 8-byte Spill
	callq	_ZN11btTransformaSERKS_
.Ltmp233:
.Ltmp84:
	jmp	.LBB11_18
.Ltmp234:
.LBB11_18:
	#DEBUG_VALUE: processCollision:min1 <- [DW_OP_plus_uconst 1112] [$rsp+0]
	#DEBUG_VALUE: processCollision:min0 <- [DW_OP_plus_uconst 1128] [$rsp+0]
	#DEBUG_VALUE: processCollision:resultOut <- [DW_OP_plus_uconst 1216] [$rsp+0]
	#DEBUG_VALUE: processCollision:dispatchInfo <- [DW_OP_plus_uconst 1224] [$rsp+0]
	#DEBUG_VALUE: processCollision:body1 <- [DW_OP_plus_uconst 1232] [$rsp+0]
	#DEBUG_VALUE: processCollision:body0 <- [DW_OP_plus_uconst 1240] [$rsp+0]
	#DEBUG_VALUE: processCollision:this <- [DW_OP_plus_uconst 1248] [$rsp+0]
	.loc	2 0 21                  # /home/chris/test-suite/MultiSource/Benchmarks/Bullet/btConvexConvexAlgorithm.cpp:0:21
	movq	1224(%rsp), %rax        # 8-byte Reload
	.loc	2 364 65 is_stmt 1      # /home/chris/test-suite/MultiSource/Benchmarks/Bullet/btConvexConvexAlgorithm.cpp:364:65
	addq	$24, %rax
	movq	1224(%rsp), %rcx        # 8-byte Reload
	movq	24(%rcx), %rcx
.Ltmp85:
	leaq	2096(%rsp), %rdi
	leaq	2192(%rsp), %rsi
	xorl	%r8d, %r8d
	movq	1216(%rsp), %rdx        # 8-byte Reload
	movq	%rax, 912(%rsp)         # 8-byte Spill
	.loc	2 364 18 is_stmt 0      # /home/chris/test-suite/MultiSource/Benchmarks/Bullet/btConvexConvexAlgorithm.cpp:364:18
	callq	_ZN17btGjkPairDetector16getClosestPointsERKN36btDiscreteCollisionDetectorInterface17ClosestPointInputERNS0_6ResultEP12btIDebugDrawb
.Ltmp235:
.Ltmp86:
	jmp	.LBB11_19
.Ltmp236:
.LBB11_19:
	#DEBUG_VALUE: processCollision:min1 <- [DW_OP_plus_uconst 1112] [$rsp+0]
	#DEBUG_VALUE: processCollision:min0 <- [DW_OP_plus_uconst 1128] [$rsp+0]
	#DEBUG_VALUE: processCollision:resultOut <- [DW_OP_plus_uconst 1216] [$rsp+0]
	#DEBUG_VALUE: processCollision:dispatchInfo <- [DW_OP_plus_uconst 1224] [$rsp+0]
	#DEBUG_VALUE: processCollision:body1 <- [DW_OP_plus_uconst 1232] [$rsp+0]
	#DEBUG_VALUE: processCollision:body0 <- [DW_OP_plus_uconst 1240] [$rsp+0]
	#DEBUG_VALUE: processCollision:this <- [DW_OP_plus_uconst 1248] [$rsp+0]
	.loc	2 366 2 is_stmt 1       # /home/chris/test-suite/MultiSource/Benchmarks/Bullet/btConvexConvexAlgorithm.cpp:366:2
	leaq	2080(%rsp), %rax
	movq	%rax, %rcx
.Ltmp237:
	#DEBUG_VALUE: v0 <- [DW_OP_deref] $rax
	.loc	2 366 12 is_stmt 0      # /home/chris/test-suite/MultiSource/Benchmarks/Bullet/btConvexConvexAlgorithm.cpp:366:12
	movq	%rax, %rdi
	movq	%rcx, 904(%rsp)         # 8-byte Spill
	callq	_ZN9btVector3C2Ev
.Ltmp238:
	.loc	2 366 2                 # /home/chris/test-suite/MultiSource/Benchmarks/Bullet/btConvexConvexAlgorithm.cpp:366:2
	leaq	2064(%rsp), %rax
	movq	%rax, %rcx
.Ltmp239:
	#DEBUG_VALUE: v1 <- [DW_OP_deref] $rax
	.loc	2 366 15                # /home/chris/test-suite/MultiSource/Benchmarks/Bullet/btConvexConvexAlgorithm.cpp:366:15
	movq	%rax, %rdi
	movq	%rcx, 896(%rsp)         # 8-byte Spill
	callq	_ZN9btVector3C2Ev
.Ltmp240:
	.loc	2 367 2 is_stmt 1       # /home/chris/test-suite/MultiSource/Benchmarks/Bullet/btConvexConvexAlgorithm.cpp:367:2
	leaq	2048(%rsp), %rax
	movq	%rax, %rcx
.Ltmp241:
	#DEBUG_VALUE: sepNormalWorldSpace <- [DW_OP_deref] $rax
	.loc	2 367 12 is_stmt 0      # /home/chris/test-suite/MultiSource/Benchmarks/Bullet/btConvexConvexAlgorithm.cpp:367:12
	movq	%rax, %rdi
	movq	%rcx, 888(%rsp)         # 8-byte Spill
	callq	_ZN9btVector3C2Ev
.Ltmp242:
	#DEBUG_VALUE: sepDist <- 0.000000e+00
	.loc	2 0 12                  # /home/chris/test-suite/MultiSource/Benchmarks/Bullet/btConvexConvexAlgorithm.cpp:0:12
	movq	984(%rsp), %rax         # 8-byte Reload
.Ltmp243:
	.loc	2 372 19 is_stmt 1      # /home/chris/test-suite/MultiSource/Benchmarks/Bullet/btConvexConvexAlgorithm.cpp:372:19
	cmpb	$0, (%rax)
.Ltmp244:
	.loc	2 372 6 is_stmt 0       # /home/chris/test-suite/MultiSource/Benchmarks/Bullet/btConvexConvexAlgorithm.cpp:372:6
	xorps	%xmm0, %xmm0
	movss	%xmm0, 884(%rsp)        # 4-byte Spill
	je	.LBB11_25
.Ltmp245:
# %bb.20:
	#DEBUG_VALUE: sepDist <- 0.000000e+00
	#DEBUG_VALUE: processCollision:min1 <- [DW_OP_plus_uconst 1112] [$rsp+0]
	#DEBUG_VALUE: processCollision:min0 <- [DW_OP_plus_uconst 1128] [$rsp+0]
	#DEBUG_VALUE: processCollision:resultOut <- [DW_OP_plus_uconst 1216] [$rsp+0]
	#DEBUG_VALUE: processCollision:dispatchInfo <- [DW_OP_plus_uconst 1224] [$rsp+0]
	#DEBUG_VALUE: processCollision:body1 <- [DW_OP_plus_uconst 1232] [$rsp+0]
	#DEBUG_VALUE: processCollision:body0 <- [DW_OP_plus_uconst 1240] [$rsp+0]
	#DEBUG_VALUE: processCollision:this <- [DW_OP_plus_uconst 1248] [$rsp+0]
	.loc	2 374 29 is_stmt 1      # /home/chris/test-suite/MultiSource/Benchmarks/Bullet/btConvexConvexAlgorithm.cpp:374:29
	leaq	2096(%rsp), %rdi
	callq	_ZNK17btGjkPairDetector27getCachedSeparatingDistanceEv
.Ltmp246:
	.loc	2 0 29 is_stmt 0        # /home/chris/test-suite/MultiSource/Benchmarks/Bullet/btConvexConvexAlgorithm.cpp:0:29
	movss	.LCPI11_1(%rip), %xmm1  # xmm1 = mem[0],zero,zero,zero
.Ltmp247:
	#DEBUG_VALUE: sepDist <- $xmm0
	.loc	2 375 14 is_stmt 1      # /home/chris/test-suite/MultiSource/Benchmarks/Bullet/btConvexConvexAlgorithm.cpp:375:14
	ucomiss	%xmm1, %xmm0
.Ltmp248:
	.loc	2 0 0 is_stmt 0         # /home/chris/test-suite/MultiSource/Benchmarks/Bullet/btConvexConvexAlgorithm.cpp:0:0
	movaps	%xmm0, %xmm1
	movss	%xmm0, 880(%rsp)        # 4-byte Spill
.Ltmp249:
	#DEBUG_VALUE: sepDist <- [DW_OP_plus_uconst 880] [$rsp+0]
	#DEBUG_VALUE: sepDist <- [DW_OP_plus_uconst 880] [$rsp+0]
	movss	%xmm1, 884(%rsp)        # 4-byte Spill
.Ltmp250:
	.loc	2 375 7                 # /home/chris/test-suite/MultiSource/Benchmarks/Bullet/btConvexConvexAlgorithm.cpp:375:7
	jbe	.LBB11_25
.Ltmp251:
# %bb.21:
	#DEBUG_VALUE: sepDist <- [DW_OP_plus_uconst 880] [$rsp+0]
	#DEBUG_VALUE: processCollision:min1 <- [DW_OP_plus_uconst 1112] [$rsp+0]
	#DEBUG_VALUE: processCollision:min0 <- [DW_OP_plus_uconst 1128] [$rsp+0]
	#DEBUG_VALUE: processCollision:resultOut <- [DW_OP_plus_uconst 1216] [$rsp+0]
	#DEBUG_VALUE: processCollision:dispatchInfo <- [DW_OP_plus_uconst 1224] [$rsp+0]
	#DEBUG_VALUE: processCollision:body1 <- [DW_OP_plus_uconst 1232] [$rsp+0]
	#DEBUG_VALUE: processCollision:body0 <- [DW_OP_plus_uconst 1240] [$rsp+0]
	#DEBUG_VALUE: processCollision:this <- [DW_OP_plus_uconst 1248] [$rsp+0]
	.loc	2 0 7                   # /home/chris/test-suite/MultiSource/Benchmarks/Bullet/btConvexConvexAlgorithm.cpp:0:7
	movq	1224(%rsp), %rax        # 8-byte Reload
.Ltmp252:
	.loc	2 377 28 is_stmt 1      # /home/chris/test-suite/MultiSource/Benchmarks/Bullet/btConvexConvexAlgorithm.cpp:377:28
	movss	44(%rax), %xmm0         # xmm0 = mem[0],zero,zero,zero
.Ltmp253:
	#DEBUG_VALUE: sepDist <- undef
	.loc	2 0 28 is_stmt 0        # /home/chris/test-suite/MultiSource/Benchmarks/Bullet/btConvexConvexAlgorithm.cpp:0:28
	leaq	2096(%rsp), %rdi
	movss	%xmm0, 876(%rsp)        # 4-byte Spill
	.loc	2 379 42 is_stmt 1      # /home/chris/test-suite/MultiSource/Benchmarks/Bullet/btConvexConvexAlgorithm.cpp:379:42
	callq	_ZNK17btGjkPairDetector23getCachedSeparatingAxisEv
.Ltmp254:
.Ltmp88:
	.loc	2 379 68 is_stmt 0      # /home/chris/test-suite/MultiSource/Benchmarks/Bullet/btConvexConvexAlgorithm.cpp:379:68
	movq	%rax, %rdi
	callq	_ZNK9btVector310normalizedEv
.Ltmp255:
.Ltmp89:
	.loc	2 0 68                  # /home/chris/test-suite/MultiSource/Benchmarks/Bullet/btConvexConvexAlgorithm.cpp:0:68
	movaps	%xmm1, 848(%rsp)        # 16-byte Spill
	movaps	%xmm0, 832(%rsp)        # 16-byte Spill
	.loc	2 379 68                # /home/chris/test-suite/MultiSource/Benchmarks/Bullet/btConvexConvexAlgorithm.cpp:379:68
	jmp	.LBB11_22
.Ltmp256:
.LBB11_22:
	#DEBUG_VALUE: sepDist <- [DW_OP_plus_uconst 880] [$rsp+0]
	#DEBUG_VALUE: processCollision:min1 <- [DW_OP_plus_uconst 1112] [$rsp+0]
	#DEBUG_VALUE: processCollision:min0 <- [DW_OP_plus_uconst 1128] [$rsp+0]
	#DEBUG_VALUE: processCollision:resultOut <- [DW_OP_plus_uconst 1216] [$rsp+0]
	#DEBUG_VALUE: processCollision:dispatchInfo <- [DW_OP_plus_uconst 1224] [$rsp+0]
	#DEBUG_VALUE: processCollision:body1 <- [DW_OP_plus_uconst 1232] [$rsp+0]
	#DEBUG_VALUE: processCollision:body0 <- [DW_OP_plus_uconst 1240] [$rsp+0]
	#DEBUG_VALUE: processCollision:this <- [DW_OP_plus_uconst 1248] [$rsp+0]
	.loc	2 0 68                  # /home/chris/test-suite/MultiSource/Benchmarks/Bullet/btConvexConvexAlgorithm.cpp:0:68
	movss	880(%rsp), %xmm0        # 4-byte Reload
                                        # xmm0 = mem[0],zero,zero,zero
	movss	876(%rsp), %xmm1        # 4-byte Reload
                                        # xmm1 = mem[0],zero,zero,zero
	.loc	2 377 12 is_stmt 1      # /home/chris/test-suite/MultiSource/Benchmarks/Bullet/btConvexConvexAlgorithm.cpp:377:12
	addss	%xmm1, %xmm0
.Ltmp257:
	#DEBUG_VALUE: sepDist <- $xmm0
	.loc	2 0 12 is_stmt 0        # /home/chris/test-suite/MultiSource/Benchmarks/Bullet/btConvexConvexAlgorithm.cpp:0:12
	movaps	832(%rsp), %xmm2        # 16-byte Reload
	.loc	2 379 24 is_stmt 1      # /home/chris/test-suite/MultiSource/Benchmarks/Bullet/btConvexConvexAlgorithm.cpp:379:24
	movlpd	%xmm2, 2048(%rsp)
	movaps	848(%rsp), %xmm3        # 16-byte Reload
	movlpd	%xmm3, 2056(%rsp)
.Ltmp91:
	leaq	2048(%rsp), %rdi
	leaq	2080(%rsp), %rsi
	leaq	2064(%rsp), %rdx
	movss	%xmm0, 828(%rsp)        # 4-byte Spill
.Ltmp258:
	#DEBUG_VALUE: sepDist <- [DW_OP_plus_uconst 828] [$rsp+0]
	#DEBUG_VALUE: sepDist <- [DW_OP_plus_uconst 828] [$rsp+0]
	.loc	2 380 4                 # /home/chris/test-suite/MultiSource/Benchmarks/Bullet/btConvexConvexAlgorithm.cpp:380:4
	callq	_Z13btPlaneSpace1RK9btVector3RS_S2_
.Ltmp259:
.Ltmp92:
	.loc	2 0 4 is_stmt 0         # /home/chris/test-suite/MultiSource/Benchmarks/Bullet/btConvexConvexAlgorithm.cpp:0:4
	movss	828(%rsp), %xmm0        # 4-byte Reload
                                        # xmm0 = mem[0],zero,zero,zero
	movss	%xmm0, 884(%rsp)        # 4-byte Spill
	.loc	2 380 4                 # /home/chris/test-suite/MultiSource/Benchmarks/Bullet/btConvexConvexAlgorithm.cpp:380:4
	jmp	.LBB11_25
.Ltmp260:
.LBB11_23:
	#DEBUG_VALUE: processCollision:min1 <- [DW_OP_plus_uconst 1112] [$rsp+0]
	#DEBUG_VALUE: processCollision:min0 <- [DW_OP_plus_uconst 1128] [$rsp+0]
	#DEBUG_VALUE: processCollision:resultOut <- [DW_OP_plus_uconst 1216] [$rsp+0]
	#DEBUG_VALUE: processCollision:dispatchInfo <- [DW_OP_plus_uconst 1224] [$rsp+0]
	#DEBUG_VALUE: processCollision:body1 <- [DW_OP_plus_uconst 1232] [$rsp+0]
	#DEBUG_VALUE: processCollision:body0 <- [DW_OP_plus_uconst 1240] [$rsp+0]
	#DEBUG_VALUE: processCollision:this <- [DW_OP_plus_uconst 1248] [$rsp+0]
.Ltmp108:
                                        # kill: def $edx killed $edx killed $rdx
	.loc	2 0 4                   # /home/chris/test-suite/MultiSource/Benchmarks/Bullet/btConvexConvexAlgorithm.cpp:0:4
	movl	%edx, 824(%rsp)         # 4-byte Spill
	movq	%rax, 816(%rsp)         # 8-byte Spill
	.loc	2 466 1 is_stmt 1       # /home/chris/test-suite/MultiSource/Benchmarks/Bullet/btConvexConvexAlgorithm.cpp:466:1
	jmp	.LBB11_71
.Ltmp261:
.LBB11_24:
	#DEBUG_VALUE: sepDist <- [DW_OP_plus_uconst 880] [$rsp+0]
	#DEBUG_VALUE: processCollision:min1 <- [DW_OP_plus_uconst 1112] [$rsp+0]
	#DEBUG_VALUE: processCollision:min0 <- [DW_OP_plus_uconst 1128] [$rsp+0]
	#DEBUG_VALUE: processCollision:resultOut <- [DW_OP_plus_uconst 1216] [$rsp+0]
	#DEBUG_VALUE: processCollision:dispatchInfo <- [DW_OP_plus_uconst 1224] [$rsp+0]
	#DEBUG_VALUE: processCollision:body1 <- [DW_OP_plus_uconst 1232] [$rsp+0]
	#DEBUG_VALUE: processCollision:body0 <- [DW_OP_plus_uconst 1240] [$rsp+0]
	#DEBUG_VALUE: processCollision:this <- [DW_OP_plus_uconst 1248] [$rsp+0]
.Ltmp90:
                                        # kill: def $edx killed $edx killed $rdx
	.loc	2 0 1 is_stmt 0         # /home/chris/test-suite/MultiSource/Benchmarks/Bullet/btConvexConvexAlgorithm.cpp:0:1
	movl	%edx, 824(%rsp)         # 4-byte Spill
	movq	%rax, 816(%rsp)         # 8-byte Spill
.Ltmp262:
	.loc	2 379 4 is_stmt 1       # /home/chris/test-suite/MultiSource/Benchmarks/Bullet/btConvexConvexAlgorithm.cpp:379:4
	jmp	.LBB11_71
.Ltmp263:
.LBB11_25:
	#DEBUG_VALUE: processCollision:min1 <- [DW_OP_plus_uconst 1112] [$rsp+0]
	#DEBUG_VALUE: processCollision:min0 <- [DW_OP_plus_uconst 1128] [$rsp+0]
	#DEBUG_VALUE: processCollision:resultOut <- [DW_OP_plus_uconst 1216] [$rsp+0]
	#DEBUG_VALUE: processCollision:dispatchInfo <- [DW_OP_plus_uconst 1224] [$rsp+0]
	#DEBUG_VALUE: processCollision:body1 <- [DW_OP_plus_uconst 1232] [$rsp+0]
	#DEBUG_VALUE: processCollision:body0 <- [DW_OP_plus_uconst 1240] [$rsp+0]
	#DEBUG_VALUE: processCollision:this <- [DW_OP_plus_uconst 1248] [$rsp+0]
	.loc	2 0 4 is_stmt 0         # /home/chris/test-suite/MultiSource/Benchmarks/Bullet/btConvexConvexAlgorithm.cpp:0:4
	movss	884(%rsp), %xmm0        # 4-byte Reload
                                        # xmm0 = mem[0],zero,zero,zero
.Ltmp264:
	#DEBUG_VALUE: sepDist <- $xmm0
	movq	1216(%rsp), %rdi        # 8-byte Reload
	movss	%xmm0, 812(%rsp)        # 4-byte Spill
.Ltmp265:
	#DEBUG_VALUE: sepDist <- [DW_OP_plus_uconst 812] [$rsp+0]
	#DEBUG_VALUE: sepDist <- [DW_OP_plus_uconst 812] [$rsp+0]
	.loc	2 388 17 is_stmt 1      # /home/chris/test-suite/MultiSource/Benchmarks/Bullet/btConvexConvexAlgorithm.cpp:388:17
	callq	_ZN16btManifoldResult21getPersistentManifoldEv
.Ltmp266:
	.loc	2 388 42 is_stmt 0      # /home/chris/test-suite/MultiSource/Benchmarks/Bullet/btConvexConvexAlgorithm.cpp:388:42
	movq	%rax, %rdi
	callq	_ZNK20btPersistentManifold14getNumContactsEv
.Ltmp267:
	.loc	2 0 42                  # /home/chris/test-suite/MultiSource/Benchmarks/Bullet/btConvexConvexAlgorithm.cpp:0:42
	movq	1248(%rsp), %rcx        # 8-byte Reload
	.loc	2 388 59                # /home/chris/test-suite/MultiSource/Benchmarks/Bullet/btConvexConvexAlgorithm.cpp:388:59
	cmpl	152(%rcx), %eax
.Ltmp268:
	.loc	2 388 6                 # /home/chris/test-suite/MultiSource/Benchmarks/Bullet/btConvexConvexAlgorithm.cpp:388:6
	jge	.LBB11_68
.Ltmp269:
# %bb.26:
	#DEBUG_VALUE: sepDist <- [DW_OP_plus_uconst 812] [$rsp+0]
	#DEBUG_VALUE: processCollision:min1 <- [DW_OP_plus_uconst 1112] [$rsp+0]
	#DEBUG_VALUE: processCollision:min0 <- [DW_OP_plus_uconst 1128] [$rsp+0]
	#DEBUG_VALUE: processCollision:resultOut <- [DW_OP_plus_uconst 1216] [$rsp+0]
	#DEBUG_VALUE: processCollision:dispatchInfo <- [DW_OP_plus_uconst 1224] [$rsp+0]
	#DEBUG_VALUE: processCollision:body1 <- [DW_OP_plus_uconst 1232] [$rsp+0]
	#DEBUG_VALUE: processCollision:body0 <- [DW_OP_plus_uconst 1240] [$rsp+0]
	#DEBUG_VALUE: processCollision:this <- [DW_OP_plus_uconst 1248] [$rsp+0]
	#DEBUG_VALUE: perturbeA <- 1
	#DEBUG_VALUE: angleLimit <- 3.926991e-01
	.loc	2 0 6                   # /home/chris/test-suite/MultiSource/Benchmarks/Bullet/btConvexConvexAlgorithm.cpp:0:6
	leaq	2044(%rsp), %rax
	movq	1136(%rsp), %rcx        # 8-byte Reload
.Ltmp270:
	.loc	2 396 28 is_stmt 1      # /home/chris/test-suite/MultiSource/Benchmarks/Bullet/btConvexConvexAlgorithm.cpp:396:28
	movq	(%rcx), %rdx
	movq	32(%rdx), %rdx
.Ltmp93:
	movq	%rcx, %rdi
	movq	%rax, 800(%rsp)         # 8-byte Spill
	callq	*%rdx
.Ltmp271:
.Ltmp94:
	.loc	2 0 28 is_stmt 0        # /home/chris/test-suite/MultiSource/Benchmarks/Bullet/btConvexConvexAlgorithm.cpp:0:28
	movss	%xmm0, 796(%rsp)        # 4-byte Spill
	.loc	2 396 28                # /home/chris/test-suite/MultiSource/Benchmarks/Bullet/btConvexConvexAlgorithm.cpp:396:28
	jmp	.LBB11_27
.Ltmp272:
.LBB11_27:
	#DEBUG_VALUE: angleLimit <- 3.926991e-01
	#DEBUG_VALUE: perturbeA <- 1
	#DEBUG_VALUE: sepDist <- [DW_OP_plus_uconst 812] [$rsp+0]
	#DEBUG_VALUE: processCollision:min1 <- [DW_OP_plus_uconst 1112] [$rsp+0]
	#DEBUG_VALUE: processCollision:min0 <- [DW_OP_plus_uconst 1128] [$rsp+0]
	#DEBUG_VALUE: processCollision:resultOut <- [DW_OP_plus_uconst 1216] [$rsp+0]
	#DEBUG_VALUE: processCollision:dispatchInfo <- [DW_OP_plus_uconst 1224] [$rsp+0]
	#DEBUG_VALUE: processCollision:body1 <- [DW_OP_plus_uconst 1232] [$rsp+0]
	#DEBUG_VALUE: processCollision:body0 <- [DW_OP_plus_uconst 1240] [$rsp+0]
	#DEBUG_VALUE: processCollision:this <- [DW_OP_plus_uconst 1248] [$rsp+0]
	#DEBUG_VALUE: radiusA <- [DW_OP_plus_uconst 796] [$rsp+0]
	.loc	2 0 28                  # /home/chris/test-suite/MultiSource/Benchmarks/Bullet/btConvexConvexAlgorithm.cpp:0:28
	movq	1120(%rsp), %rax        # 8-byte Reload
	.loc	2 397 28 is_stmt 1      # /home/chris/test-suite/MultiSource/Benchmarks/Bullet/btConvexConvexAlgorithm.cpp:397:28
	movq	(%rax), %rcx
	movq	32(%rcx), %rcx
.Ltmp96:
	movq	%rax, %rdi
	callq	*%rcx
.Ltmp273:
.Ltmp97:
	.loc	2 0 28 is_stmt 0        # /home/chris/test-suite/MultiSource/Benchmarks/Bullet/btConvexConvexAlgorithm.cpp:0:28
	movss	%xmm0, 792(%rsp)        # 4-byte Spill
	.loc	2 397 28                # /home/chris/test-suite/MultiSource/Benchmarks/Bullet/btConvexConvexAlgorithm.cpp:397:28
	jmp	.LBB11_28
.Ltmp274:
.LBB11_28:
	#DEBUG_VALUE: radiusA <- [DW_OP_plus_uconst 796] [$rsp+0]
	#DEBUG_VALUE: angleLimit <- 3.926991e-01
	#DEBUG_VALUE: perturbeA <- 1
	#DEBUG_VALUE: sepDist <- [DW_OP_plus_uconst 812] [$rsp+0]
	#DEBUG_VALUE: processCollision:min1 <- [DW_OP_plus_uconst 1112] [$rsp+0]
	#DEBUG_VALUE: processCollision:min0 <- [DW_OP_plus_uconst 1128] [$rsp+0]
	#DEBUG_VALUE: processCollision:resultOut <- [DW_OP_plus_uconst 1216] [$rsp+0]
	#DEBUG_VALUE: processCollision:dispatchInfo <- [DW_OP_plus_uconst 1224] [$rsp+0]
	#DEBUG_VALUE: processCollision:body1 <- [DW_OP_plus_uconst 1232] [$rsp+0]
	#DEBUG_VALUE: processCollision:body0 <- [DW_OP_plus_uconst 1240] [$rsp+0]
	#DEBUG_VALUE: processCollision:this <- [DW_OP_plus_uconst 1248] [$rsp+0]
	#DEBUG_VALUE: radiusB <- [DW_OP_plus_uconst 792] [$rsp+0]
	.loc	2 0 28                  # /home/chris/test-suite/MultiSource/Benchmarks/Bullet/btConvexConvexAlgorithm.cpp:0:28
	movss	792(%rsp), %xmm0        # 4-byte Reload
                                        # xmm0 = mem[0],zero,zero,zero
	movss	796(%rsp), %xmm1        # 4-byte Reload
                                        # xmm1 = mem[0],zero,zero,zero
.Ltmp275:
	.loc	2 398 15 is_stmt 1      # /home/chris/test-suite/MultiSource/Benchmarks/Bullet/btConvexConvexAlgorithm.cpp:398:15
	ucomiss	%xmm1, %xmm0
	seta	%al
	.loc	2 0 0 is_stmt 0         # /home/chris/test-suite/MultiSource/Benchmarks/Bullet/btConvexConvexAlgorithm.cpp:0:0
	movss	gContactBreakingThreshold(%rip), %xmm2 # xmm2 = mem[0],zero,zero,zero
.Ltmp276:
	#DEBUG_VALUE: perturbeAngle <- undef
	minss	%xmm0, %xmm1
	negb	%al
	divss	%xmm1, %xmm2
.Ltmp277:
	#DEBUG_VALUE: perturbeAngle <- $xmm2
	movss	.LCPI11_2(%rip), %xmm1  # xmm1 = mem[0],zero,zero,zero
.Ltmp278:
	#DEBUG_VALUE: perturbeA <- undef
	.loc	2 407 8 is_stmt 1       # /home/chris/test-suite/MultiSource/Benchmarks/Bullet/btConvexConvexAlgorithm.cpp:407:8
	minss	%xmm2, %xmm1
	.loc	2 0 0 is_stmt 0         # /home/chris/test-suite/MultiSource/Benchmarks/Bullet/btConvexConvexAlgorithm.cpp:0:0
	movss	%xmm1, 2044(%rsp)
	leaq	1976(%rsp), %rdi
.Ltmp99:
	movb	%al, 791(%rsp)          # 1-byte Spill
	.loc	2 410 15 is_stmt 1      # /home/chris/test-suite/MultiSource/Benchmarks/Bullet/btConvexConvexAlgorithm.cpp:410:15
	callq	_ZN11btTransformC2Ev
.Ltmp279:
.Ltmp100:
	jmp	.LBB11_31
.Ltmp280:
.LBB11_29:
	#DEBUG_VALUE: angleLimit <- 3.926991e-01
	#DEBUG_VALUE: perturbeA <- 1
	#DEBUG_VALUE: sepDist <- [DW_OP_plus_uconst 812] [$rsp+0]
	#DEBUG_VALUE: processCollision:min1 <- [DW_OP_plus_uconst 1112] [$rsp+0]
	#DEBUG_VALUE: processCollision:min0 <- [DW_OP_plus_uconst 1128] [$rsp+0]
	#DEBUG_VALUE: processCollision:resultOut <- [DW_OP_plus_uconst 1216] [$rsp+0]
	#DEBUG_VALUE: processCollision:dispatchInfo <- [DW_OP_plus_uconst 1224] [$rsp+0]
	#DEBUG_VALUE: processCollision:body1 <- [DW_OP_plus_uconst 1232] [$rsp+0]
	#DEBUG_VALUE: processCollision:body0 <- [DW_OP_plus_uconst 1240] [$rsp+0]
	#DEBUG_VALUE: processCollision:this <- [DW_OP_plus_uconst 1248] [$rsp+0]
.Ltmp95:
                                        # kill: def $edx killed $edx killed $rdx
	.loc	2 0 15 is_stmt 0        # /home/chris/test-suite/MultiSource/Benchmarks/Bullet/btConvexConvexAlgorithm.cpp:0:15
	movl	%edx, 784(%rsp)         # 4-byte Spill
	movq	%rax, 776(%rsp)         # 8-byte Spill
	.loc	2 466 1 is_stmt 1       # /home/chris/test-suite/MultiSource/Benchmarks/Bullet/btConvexConvexAlgorithm.cpp:466:1
	jmp	.LBB11_67
.Ltmp281:
.LBB11_30:
	#DEBUG_VALUE: radiusA <- [DW_OP_plus_uconst 796] [$rsp+0]
	#DEBUG_VALUE: angleLimit <- 3.926991e-01
	#DEBUG_VALUE: perturbeA <- 1
	#DEBUG_VALUE: sepDist <- [DW_OP_plus_uconst 812] [$rsp+0]
	#DEBUG_VALUE: processCollision:min1 <- [DW_OP_plus_uconst 1112] [$rsp+0]
	#DEBUG_VALUE: processCollision:min0 <- [DW_OP_plus_uconst 1128] [$rsp+0]
	#DEBUG_VALUE: processCollision:resultOut <- [DW_OP_plus_uconst 1216] [$rsp+0]
	#DEBUG_VALUE: processCollision:dispatchInfo <- [DW_OP_plus_uconst 1224] [$rsp+0]
	#DEBUG_VALUE: processCollision:body1 <- [DW_OP_plus_uconst 1232] [$rsp+0]
	#DEBUG_VALUE: processCollision:body0 <- [DW_OP_plus_uconst 1240] [$rsp+0]
	#DEBUG_VALUE: processCollision:this <- [DW_OP_plus_uconst 1248] [$rsp+0]
.Ltmp98:
                                        # kill: def $edx killed $edx killed $rdx
	.loc	2 0 1 is_stmt 0         # /home/chris/test-suite/MultiSource/Benchmarks/Bullet/btConvexConvexAlgorithm.cpp:0:1
	movl	%edx, 784(%rsp)         # 4-byte Spill
	movq	%rax, 776(%rsp)         # 8-byte Spill
	.loc	2 466 1                 # /home/chris/test-suite/MultiSource/Benchmarks/Bullet/btConvexConvexAlgorithm.cpp:466:1
	jmp	.LBB11_67
.Ltmp282:
.LBB11_31:
	#DEBUG_VALUE: radiusB <- [DW_OP_plus_uconst 792] [$rsp+0]
	#DEBUG_VALUE: radiusA <- [DW_OP_plus_uconst 796] [$rsp+0]
	#DEBUG_VALUE: angleLimit <- 3.926991e-01
	#DEBUG_VALUE: perturbeA <- 1
	#DEBUG_VALUE: sepDist <- [DW_OP_plus_uconst 812] [$rsp+0]
	#DEBUG_VALUE: processCollision:min1 <- [DW_OP_plus_uconst 1112] [$rsp+0]
	#DEBUG_VALUE: processCollision:min0 <- [DW_OP_plus_uconst 1128] [$rsp+0]
	#DEBUG_VALUE: processCollision:resultOut <- [DW_OP_plus_uconst 1216] [$rsp+0]
	#DEBUG_VALUE: processCollision:dispatchInfo <- [DW_OP_plus_uconst 1224] [$rsp+0]
	#DEBUG_VALUE: processCollision:body1 <- [DW_OP_plus_uconst 1232] [$rsp+0]
	#DEBUG_VALUE: processCollision:body0 <- [DW_OP_plus_uconst 1240] [$rsp+0]
	#DEBUG_VALUE: processCollision:this <- [DW_OP_plus_uconst 1248] [$rsp+0]
	.loc	2 0 1                   # /home/chris/test-suite/MultiSource/Benchmarks/Bullet/btConvexConvexAlgorithm.cpp:0:1
	movb	791(%rsp), %al          # 1-byte Reload
	.loc	2 411 7 is_stmt 1       # /home/chris/test-suite/MultiSource/Benchmarks/Bullet/btConvexConvexAlgorithm.cpp:411:7
	testb	$1, %al
	jne	.LBB11_32
	jmp	.LBB11_34
.Ltmp283:
.LBB11_32:
	#DEBUG_VALUE: radiusB <- [DW_OP_plus_uconst 792] [$rsp+0]
	#DEBUG_VALUE: radiusA <- [DW_OP_plus_uconst 796] [$rsp+0]
	#DEBUG_VALUE: angleLimit <- 3.926991e-01
	#DEBUG_VALUE: perturbeA <- 1
	#DEBUG_VALUE: sepDist <- [DW_OP_plus_uconst 812] [$rsp+0]
	#DEBUG_VALUE: processCollision:min1 <- [DW_OP_plus_uconst 1112] [$rsp+0]
	#DEBUG_VALUE: processCollision:min0 <- [DW_OP_plus_uconst 1128] [$rsp+0]
	#DEBUG_VALUE: processCollision:resultOut <- [DW_OP_plus_uconst 1216] [$rsp+0]
	#DEBUG_VALUE: processCollision:dispatchInfo <- [DW_OP_plus_uconst 1224] [$rsp+0]
	#DEBUG_VALUE: processCollision:body1 <- [DW_OP_plus_uconst 1232] [$rsp+0]
	#DEBUG_VALUE: processCollision:body0 <- [DW_OP_plus_uconst 1240] [$rsp+0]
	#DEBUG_VALUE: processCollision:this <- [DW_OP_plus_uconst 1248] [$rsp+0]
.Ltmp103:
	.loc	2 0 7 is_stmt 0         # /home/chris/test-suite/MultiSource/Benchmarks/Bullet/btConvexConvexAlgorithm.cpp:0:7
	leaq	1976(%rsp), %rdi
	movq	928(%rsp), %rsi         # 8-byte Reload
.Ltmp284:
	.loc	2 413 25 is_stmt 1      # /home/chris/test-suite/MultiSource/Benchmarks/Bullet/btConvexConvexAlgorithm.cpp:413:25
	callq	_ZN11btTransformaSERKS_
.Ltmp285:
.Ltmp104:
	jmp	.LBB11_35
.Ltmp286:
.LBB11_33:
	#DEBUG_VALUE: radiusB <- [DW_OP_plus_uconst 792] [$rsp+0]
	#DEBUG_VALUE: radiusA <- [DW_OP_plus_uconst 796] [$rsp+0]
	#DEBUG_VALUE: angleLimit <- 3.926991e-01
	#DEBUG_VALUE: perturbeA <- 1
	#DEBUG_VALUE: sepDist <- [DW_OP_plus_uconst 812] [$rsp+0]
	#DEBUG_VALUE: processCollision:min1 <- [DW_OP_plus_uconst 1112] [$rsp+0]
	#DEBUG_VALUE: processCollision:min0 <- [DW_OP_plus_uconst 1128] [$rsp+0]
	#DEBUG_VALUE: processCollision:resultOut <- [DW_OP_plus_uconst 1216] [$rsp+0]
	#DEBUG_VALUE: processCollision:dispatchInfo <- [DW_OP_plus_uconst 1224] [$rsp+0]
	#DEBUG_VALUE: processCollision:body1 <- [DW_OP_plus_uconst 1232] [$rsp+0]
	#DEBUG_VALUE: processCollision:body0 <- [DW_OP_plus_uconst 1240] [$rsp+0]
	#DEBUG_VALUE: processCollision:this <- [DW_OP_plus_uconst 1248] [$rsp+0]
.Ltmp105:
                                        # kill: def $edx killed $edx killed $rdx
	.loc	2 0 25 is_stmt 0        # /home/chris/test-suite/MultiSource/Benchmarks/Bullet/btConvexConvexAlgorithm.cpp:0:25
	movl	%edx, 772(%rsp)         # 4-byte Spill
	movq	%rax, 760(%rsp)         # 8-byte Spill
	.loc	2 466 1 is_stmt 1       # /home/chris/test-suite/MultiSource/Benchmarks/Bullet/btConvexConvexAlgorithm.cpp:466:1
	jmp	.LBB11_66
.Ltmp287:
.LBB11_34:
	#DEBUG_VALUE: radiusB <- [DW_OP_plus_uconst 792] [$rsp+0]
	#DEBUG_VALUE: radiusA <- [DW_OP_plus_uconst 796] [$rsp+0]
	#DEBUG_VALUE: angleLimit <- 3.926991e-01
	#DEBUG_VALUE: perturbeA <- 1
	#DEBUG_VALUE: sepDist <- [DW_OP_plus_uconst 812] [$rsp+0]
	#DEBUG_VALUE: processCollision:min1 <- [DW_OP_plus_uconst 1112] [$rsp+0]
	#DEBUG_VALUE: processCollision:min0 <- [DW_OP_plus_uconst 1128] [$rsp+0]
	#DEBUG_VALUE: processCollision:resultOut <- [DW_OP_plus_uconst 1216] [$rsp+0]
	#DEBUG_VALUE: processCollision:dispatchInfo <- [DW_OP_plus_uconst 1224] [$rsp+0]
	#DEBUG_VALUE: processCollision:body1 <- [DW_OP_plus_uconst 1232] [$rsp+0]
	#DEBUG_VALUE: processCollision:body0 <- [DW_OP_plus_uconst 1240] [$rsp+0]
	#DEBUG_VALUE: processCollision:this <- [DW_OP_plus_uconst 1248] [$rsp+0]
.Ltmp101:
	.loc	2 0 1 is_stmt 0         # /home/chris/test-suite/MultiSource/Benchmarks/Bullet/btConvexConvexAlgorithm.cpp:0:1
	leaq	1976(%rsp), %rdi
	movq	920(%rsp), %rsi         # 8-byte Reload
.Ltmp288:
	.loc	2 416 25 is_stmt 1      # /home/chris/test-suite/MultiSource/Benchmarks/Bullet/btConvexConvexAlgorithm.cpp:416:25
	callq	_ZN11btTransformaSERKS_
.Ltmp289:
.Ltmp102:
	jmp	.LBB11_35
.Ltmp290:
.LBB11_35:
	#DEBUG_VALUE: radiusB <- [DW_OP_plus_uconst 792] [$rsp+0]
	#DEBUG_VALUE: radiusA <- [DW_OP_plus_uconst 796] [$rsp+0]
	#DEBUG_VALUE: angleLimit <- 3.926991e-01
	#DEBUG_VALUE: perturbeA <- 1
	#DEBUG_VALUE: sepDist <- [DW_OP_plus_uconst 812] [$rsp+0]
	#DEBUG_VALUE: processCollision:min1 <- [DW_OP_plus_uconst 1112] [$rsp+0]
	#DEBUG_VALUE: processCollision:min0 <- [DW_OP_plus_uconst 1128] [$rsp+0]
	#DEBUG_VALUE: processCollision:resultOut <- [DW_OP_plus_uconst 1216] [$rsp+0]
	#DEBUG_VALUE: processCollision:dispatchInfo <- [DW_OP_plus_uconst 1224] [$rsp+0]
	#DEBUG_VALUE: processCollision:body1 <- [DW_OP_plus_uconst 1232] [$rsp+0]
	#DEBUG_VALUE: processCollision:body0 <- [DW_OP_plus_uconst 1240] [$rsp+0]
	#DEBUG_VALUE: processCollision:this <- [DW_OP_plus_uconst 1248] [$rsp+0]
	.loc	2 0 25 is_stmt 0        # /home/chris/test-suite/MultiSource/Benchmarks/Bullet/btConvexConvexAlgorithm.cpp:0:25
	xorl	%eax, %eax
.Ltmp291:
	#DEBUG_VALUE: i <- 0
	movl	%eax, 756(%rsp)         # 4-byte Spill
.Ltmp292:
	.loc	2 419 9 is_stmt 1       # /home/chris/test-suite/MultiSource/Benchmarks/Bullet/btConvexConvexAlgorithm.cpp:419:9
	jmp	.LBB11_36
.Ltmp293:
.LBB11_36:                              # =>This Inner Loop Header: Depth=1
	#DEBUG_VALUE: radiusB <- [DW_OP_plus_uconst 792] [$rsp+0]
	#DEBUG_VALUE: radiusA <- [DW_OP_plus_uconst 796] [$rsp+0]
	#DEBUG_VALUE: angleLimit <- 3.926991e-01
	#DEBUG_VALUE: perturbeA <- 1
	#DEBUG_VALUE: sepDist <- [DW_OP_plus_uconst 812] [$rsp+0]
	#DEBUG_VALUE: processCollision:min1 <- [DW_OP_plus_uconst 1112] [$rsp+0]
	#DEBUG_VALUE: processCollision:min0 <- [DW_OP_plus_uconst 1128] [$rsp+0]
	#DEBUG_VALUE: processCollision:resultOut <- [DW_OP_plus_uconst 1216] [$rsp+0]
	#DEBUG_VALUE: processCollision:dispatchInfo <- [DW_OP_plus_uconst 1224] [$rsp+0]
	#DEBUG_VALUE: processCollision:body1 <- [DW_OP_plus_uconst 1232] [$rsp+0]
	#DEBUG_VALUE: processCollision:body0 <- [DW_OP_plus_uconst 1240] [$rsp+0]
	#DEBUG_VALUE: processCollision:this <- [DW_OP_plus_uconst 1248] [$rsp+0]
	.loc	2 0 9 is_stmt 0         # /home/chris/test-suite/MultiSource/Benchmarks/Bullet/btConvexConvexAlgorithm.cpp:0:9
	movl	756(%rsp), %eax         # 4-byte Reload
.Ltmp294:
	#DEBUG_VALUE: i <- $eax
	movq	1248(%rsp), %rcx        # 8-byte Reload
.Ltmp295:
	.loc	2 419 15                # /home/chris/test-suite/MultiSource/Benchmarks/Bullet/btConvexConvexAlgorithm.cpp:419:15
	addq	$148, %rcx
	movq	1248(%rsp), %rdx        # 8-byte Reload
	.loc	2 419 14                # /home/chris/test-suite/MultiSource/Benchmarks/Bullet/btConvexConvexAlgorithm.cpp:419:14
	cmpl	148(%rdx), %eax
	movl	%eax, 752(%rsp)         # 4-byte Spill
.Ltmp296:
	#DEBUG_VALUE: i <- [DW_OP_plus_uconst 752] [$rsp+0]
	#DEBUG_VALUE: i <- [DW_OP_plus_uconst 752] [$rsp+0]
	#DEBUG_VALUE: i <- [DW_OP_plus_uconst 752] [$rsp+0]
	.loc	2 0 14                  # /home/chris/test-suite/MultiSource/Benchmarks/Bullet/btConvexConvexAlgorithm.cpp:0:14
	movq	%rcx, 744(%rsp)         # 8-byte Spill
.Ltmp297:
	.loc	2 419 3                 # /home/chris/test-suite/MultiSource/Benchmarks/Bullet/btConvexConvexAlgorithm.cpp:419:3
	jge	.LBB11_65
.Ltmp298:
# %bb.37:                               #   in Loop: Header=BB11_36 Depth=1
	#DEBUG_VALUE: i <- [DW_OP_plus_uconst 752] [$rsp+0]
	#DEBUG_VALUE: radiusB <- [DW_OP_plus_uconst 792] [$rsp+0]
	#DEBUG_VALUE: radiusA <- [DW_OP_plus_uconst 796] [$rsp+0]
	#DEBUG_VALUE: angleLimit <- 3.926991e-01
	#DEBUG_VALUE: perturbeA <- 1
	#DEBUG_VALUE: sepDist <- [DW_OP_plus_uconst 812] [$rsp+0]
	#DEBUG_VALUE: processCollision:min1 <- [DW_OP_plus_uconst 1112] [$rsp+0]
	#DEBUG_VALUE: processCollision:min0 <- [DW_OP_plus_uconst 1128] [$rsp+0]
	#DEBUG_VALUE: processCollision:resultOut <- [DW_OP_plus_uconst 1216] [$rsp+0]
	#DEBUG_VALUE: processCollision:dispatchInfo <- [DW_OP_plus_uconst 1224] [$rsp+0]
	#DEBUG_VALUE: processCollision:body1 <- [DW_OP_plus_uconst 1232] [$rsp+0]
	#DEBUG_VALUE: processCollision:body0 <- [DW_OP_plus_uconst 1240] [$rsp+0]
	#DEBUG_VALUE: processCollision:this <- [DW_OP_plus_uconst 1248] [$rsp+0]
	.loc	2 0 3                   # /home/chris/test-suite/MultiSource/Benchmarks/Bullet/btConvexConvexAlgorithm.cpp:0:3
	leaq	1960(%rsp), %rax
.Ltmp109:
	leaq	2080(%rsp), %rsi
	leaq	2044(%rsp), %rdx
.Ltmp299:
	.loc	2 421 17 is_stmt 1      # /home/chris/test-suite/MultiSource/Benchmarks/Bullet/btConvexConvexAlgorithm.cpp:421:17
	movq	%rax, %rdi
	.loc	2 421 4 is_stmt 0       # /home/chris/test-suite/MultiSource/Benchmarks/Bullet/btConvexConvexAlgorithm.cpp:421:4
	movq	%rax, %rcx
	movq	%rax, 736(%rsp)         # 8-byte Spill
	movq	%rcx, 728(%rsp)         # 8-byte Spill
	.loc	2 421 17                # /home/chris/test-suite/MultiSource/Benchmarks/Bullet/btConvexConvexAlgorithm.cpp:421:17
	callq	_ZN12btQuaternionC2ERK9btVector3RKf
.Ltmp300:
.Ltmp110:
	jmp	.LBB11_38
.Ltmp301:
.LBB11_38:                              #   in Loop: Header=BB11_36 Depth=1
	#DEBUG_VALUE: i <- [DW_OP_plus_uconst 752] [$rsp+0]
	#DEBUG_VALUE: radiusB <- [DW_OP_plus_uconst 792] [$rsp+0]
	#DEBUG_VALUE: radiusA <- [DW_OP_plus_uconst 796] [$rsp+0]
	#DEBUG_VALUE: angleLimit <- 3.926991e-01
	#DEBUG_VALUE: perturbeA <- 1
	#DEBUG_VALUE: sepDist <- [DW_OP_plus_uconst 812] [$rsp+0]
	#DEBUG_VALUE: processCollision:min1 <- [DW_OP_plus_uconst 1112] [$rsp+0]
	#DEBUG_VALUE: processCollision:min0 <- [DW_OP_plus_uconst 1128] [$rsp+0]
	#DEBUG_VALUE: processCollision:resultOut <- [DW_OP_plus_uconst 1216] [$rsp+0]
	#DEBUG_VALUE: processCollision:dispatchInfo <- [DW_OP_plus_uconst 1224] [$rsp+0]
	#DEBUG_VALUE: processCollision:body1 <- [DW_OP_plus_uconst 1232] [$rsp+0]
	#DEBUG_VALUE: processCollision:body0 <- [DW_OP_plus_uconst 1240] [$rsp+0]
	#DEBUG_VALUE: processCollision:this <- [DW_OP_plus_uconst 1248] [$rsp+0]
	.loc	2 0 17                  # /home/chris/test-suite/MultiSource/Benchmarks/Bullet/btConvexConvexAlgorithm.cpp:0:17
	movq	736(%rsp), %rax         # 8-byte Reload
	leaq	1956(%rsp), %rcx
	movl	752(%rsp), %edx         # 4-byte Reload
	.loc	2 422 30 is_stmt 1      # /home/chris/test-suite/MultiSource/Benchmarks/Bullet/btConvexConvexAlgorithm.cpp:422:30
	cvtsi2ss	%edx, %xmm0
	movq	744(%rsp), %rsi         # 8-byte Reload
	.loc	2 422 52 is_stmt 0      # /home/chris/test-suite/MultiSource/Benchmarks/Bullet/btConvexConvexAlgorithm.cpp:422:52
	cvtsi2ssl	(%rsi), %xmm1
	movss	.LCPI11_3(%rip), %xmm2  # xmm2 = mem[0],zero,zero,zero
	.loc	2 422 42                # /home/chris/test-suite/MultiSource/Benchmarks/Bullet/btConvexConvexAlgorithm.cpp:422:42
	divss	%xmm1, %xmm2
	.loc	2 422 31                # /home/chris/test-suite/MultiSource/Benchmarks/Bullet/btConvexConvexAlgorithm.cpp:422:31
	mulss	%xmm0, %xmm2
.Ltmp302:
	#DEBUG_VALUE: iterationAngle <- $xmm2
	.loc	2 422 13                # /home/chris/test-suite/MultiSource/Benchmarks/Bullet/btConvexConvexAlgorithm.cpp:422:13
	movss	%xmm2, 1956(%rsp)
	leaq	1936(%rsp), %rdi
.Ltmp112:
	leaq	2048(%rsp), %rsi
	movq	%rdi, 720(%rsp)         # 8-byte Spill
	movq	720(%rsp), %r8          # 8-byte Reload
	.loc	2 423 17 is_stmt 1      # /home/chris/test-suite/MultiSource/Benchmarks/Bullet/btConvexConvexAlgorithm.cpp:423:17
	movq	%rcx, %rdx
	.loc	2 422 4                 # /home/chris/test-suite/MultiSource/Benchmarks/Bullet/btConvexConvexAlgorithm.cpp:422:4
	movq	%rcx, %r9
	movq	%rax, 712(%rsp)         # 8-byte Spill
	movq	%rcx, 704(%rsp)         # 8-byte Spill
	movq	%r8, 696(%rsp)          # 8-byte Spill
	movq	%r9, 688(%rsp)          # 8-byte Spill
	.loc	2 423 17                # /home/chris/test-suite/MultiSource/Benchmarks/Bullet/btConvexConvexAlgorithm.cpp:423:17
	callq	_ZN12btQuaternionC2ERK9btVector3RKf
.Ltmp303:
.Ltmp113:
	jmp	.LBB11_39
.Ltmp304:
.LBB11_39:                              #   in Loop: Header=BB11_36 Depth=1
	#DEBUG_VALUE: i <- [DW_OP_plus_uconst 752] [$rsp+0]
	#DEBUG_VALUE: radiusB <- [DW_OP_plus_uconst 792] [$rsp+0]
	#DEBUG_VALUE: radiusA <- [DW_OP_plus_uconst 796] [$rsp+0]
	#DEBUG_VALUE: angleLimit <- 3.926991e-01
	#DEBUG_VALUE: perturbeA <- 1
	#DEBUG_VALUE: sepDist <- [DW_OP_plus_uconst 812] [$rsp+0]
	#DEBUG_VALUE: processCollision:min1 <- [DW_OP_plus_uconst 1112] [$rsp+0]
	#DEBUG_VALUE: processCollision:min0 <- [DW_OP_plus_uconst 1128] [$rsp+0]
	#DEBUG_VALUE: processCollision:resultOut <- [DW_OP_plus_uconst 1216] [$rsp+0]
	#DEBUG_VALUE: processCollision:dispatchInfo <- [DW_OP_plus_uconst 1224] [$rsp+0]
	#DEBUG_VALUE: processCollision:body1 <- [DW_OP_plus_uconst 1232] [$rsp+0]
	#DEBUG_VALUE: processCollision:body0 <- [DW_OP_plus_uconst 1240] [$rsp+0]
	#DEBUG_VALUE: processCollision:this <- [DW_OP_plus_uconst 1248] [$rsp+0]
	.loc	2 0 17 is_stmt 0        # /home/chris/test-suite/MultiSource/Benchmarks/Bullet/btConvexConvexAlgorithm.cpp:0:17
	movb	791(%rsp), %al          # 1-byte Reload
	.loc	2 426 8 is_stmt 1       # /home/chris/test-suite/MultiSource/Benchmarks/Bullet/btConvexConvexAlgorithm.cpp:426:8
	testb	$1, %al
	jne	.LBB11_40
	jmp	.LBB11_49
.Ltmp305:
.LBB11_40:                              #   in Loop: Header=BB11_36 Depth=1
	#DEBUG_VALUE: i <- [DW_OP_plus_uconst 752] [$rsp+0]
	#DEBUG_VALUE: radiusB <- [DW_OP_plus_uconst 792] [$rsp+0]
	#DEBUG_VALUE: radiusA <- [DW_OP_plus_uconst 796] [$rsp+0]
	#DEBUG_VALUE: angleLimit <- 3.926991e-01
	#DEBUG_VALUE: perturbeA <- 1
	#DEBUG_VALUE: sepDist <- [DW_OP_plus_uconst 812] [$rsp+0]
	#DEBUG_VALUE: processCollision:min1 <- [DW_OP_plus_uconst 1112] [$rsp+0]
	#DEBUG_VALUE: processCollision:min0 <- [DW_OP_plus_uconst 1128] [$rsp+0]
	#DEBUG_VALUE: processCollision:resultOut <- [DW_OP_plus_uconst 1216] [$rsp+0]
	#DEBUG_VALUE: processCollision:dispatchInfo <- [DW_OP_plus_uconst 1224] [$rsp+0]
	#DEBUG_VALUE: processCollision:body1 <- [DW_OP_plus_uconst 1232] [$rsp+0]
	#DEBUG_VALUE: processCollision:body0 <- [DW_OP_plus_uconst 1240] [$rsp+0]
	#DEBUG_VALUE: processCollision:this <- [DW_OP_plus_uconst 1248] [$rsp+0]
	.loc	2 0 8 is_stmt 0         # /home/chris/test-suite/MultiSource/Benchmarks/Bullet/btConvexConvexAlgorithm.cpp:0:8
	movq	736(%rsp), %rax         # 8-byte Reload
	movq	720(%rsp), %rcx         # 8-byte Reload
	movq	704(%rsp), %rdx         # 8-byte Reload
	leaq	1888(%rsp), %rsi
.Ltmp306:
	.loc	2 428 35 is_stmt 1      # /home/chris/test-suite/MultiSource/Benchmarks/Bullet/btConvexConvexAlgorithm.cpp:428:35
	movq	%rsi, %rdi
	leaq	1840(%rsp), %r8
	movq	%r8, %r9
	leaq	1824(%rsp), %r10
	.loc	2 428 47 is_stmt 0      # /home/chris/test-suite/MultiSource/Benchmarks/Bullet/btConvexConvexAlgorithm.cpp:428:47
	movq	%r10, %r11
	leaq	1808(%rsp), %rbx
	movq	%rbx, %r14
	leaq	1792(%rsp), %r15
.Ltmp127:
	movq	%r15, %r12
	leaq	1936(%rsp), %r13
	movq	%rdi, 680(%rsp)         # 8-byte Spill
	.loc	2 428 52                # /home/chris/test-suite/MultiSource/Benchmarks/Bullet/btConvexConvexAlgorithm.cpp:428:52
	movq	%r13, %rdi
	movq	%rax, 672(%rsp)         # 8-byte Spill
	movq	%rcx, 664(%rsp)         # 8-byte Spill
	movq	%rdx, 656(%rsp)         # 8-byte Spill
	movq	%rsi, 648(%rsp)         # 8-byte Spill
	movq	%r8, 640(%rsp)          # 8-byte Spill
	movq	%r9, 632(%rsp)          # 8-byte Spill
	movq	%r10, 624(%rsp)         # 8-byte Spill
	movq	%r11, 616(%rsp)         # 8-byte Spill
	movq	%rbx, 608(%rsp)         # 8-byte Spill
	movq	%r14, 600(%rsp)         # 8-byte Spill
	movq	%r15, 592(%rsp)         # 8-byte Spill
	movq	%r12, 584(%rsp)         # 8-byte Spill
	callq	_ZNK12btQuaternion7inverseEv
.Ltmp307:
.Ltmp128:
	.loc	2 0 52                  # /home/chris/test-suite/MultiSource/Benchmarks/Bullet/btConvexConvexAlgorithm.cpp:0:52
	movaps	%xmm1, 560(%rsp)        # 16-byte Spill
	movaps	%xmm0, 544(%rsp)        # 16-byte Spill
	.loc	2 428 52                # /home/chris/test-suite/MultiSource/Benchmarks/Bullet/btConvexConvexAlgorithm.cpp:428:52
	jmp	.LBB11_41
.Ltmp308:
.LBB11_41:                              #   in Loop: Header=BB11_36 Depth=1
	#DEBUG_VALUE: i <- [DW_OP_plus_uconst 752] [$rsp+0]
	#DEBUG_VALUE: radiusB <- [DW_OP_plus_uconst 792] [$rsp+0]
	#DEBUG_VALUE: radiusA <- [DW_OP_plus_uconst 796] [$rsp+0]
	#DEBUG_VALUE: angleLimit <- 3.926991e-01
	#DEBUG_VALUE: perturbeA <- 1
	#DEBUG_VALUE: sepDist <- [DW_OP_plus_uconst 812] [$rsp+0]
	#DEBUG_VALUE: processCollision:min1 <- [DW_OP_plus_uconst 1112] [$rsp+0]
	#DEBUG_VALUE: processCollision:min0 <- [DW_OP_plus_uconst 1128] [$rsp+0]
	#DEBUG_VALUE: processCollision:resultOut <- [DW_OP_plus_uconst 1216] [$rsp+0]
	#DEBUG_VALUE: processCollision:dispatchInfo <- [DW_OP_plus_uconst 1224] [$rsp+0]
	#DEBUG_VALUE: processCollision:body1 <- [DW_OP_plus_uconst 1232] [$rsp+0]
	#DEBUG_VALUE: processCollision:body0 <- [DW_OP_plus_uconst 1240] [$rsp+0]
	#DEBUG_VALUE: processCollision:this <- [DW_OP_plus_uconst 1248] [$rsp+0]
	.loc	2 0 52                  # /home/chris/test-suite/MultiSource/Benchmarks/Bullet/btConvexConvexAlgorithm.cpp:0:52
	movq	592(%rsp), %rax         # 8-byte Reload
	movq	608(%rsp), %rcx         # 8-byte Reload
	movq	624(%rsp), %rdx         # 8-byte Reload
	movq	640(%rsp), %rsi         # 8-byte Reload
	movq	648(%rsp), %rdi         # 8-byte Reload
	movq	736(%rsp), %r8          # 8-byte Reload
	movq	720(%rsp), %r9          # 8-byte Reload
	movq	704(%rsp), %r10         # 8-byte Reload
	movaps	544(%rsp), %xmm0        # 16-byte Reload
	.loc	2 428 52                # /home/chris/test-suite/MultiSource/Benchmarks/Bullet/btConvexConvexAlgorithm.cpp:428:52
	movlpd	%xmm0, 1792(%rsp)
	movaps	560(%rsp), %xmm1        # 16-byte Reload
	movlpd	%xmm1, 1800(%rsp)
.Ltmp129:
	leaq	1960(%rsp), %r11
	movq	1192(%rsp), %rbx        # 8-byte Reload
	movq	%rdi, 680(%rsp)         # 8-byte Spill
	.loc	2 428 61                # /home/chris/test-suite/MultiSource/Benchmarks/Bullet/btConvexConvexAlgorithm.cpp:428:61
	movq	%rbx, %rdi
	movq	%rsi, 632(%rsp)         # 8-byte Spill
	movq	%r11, %rsi
	movq	%rax, 584(%rsp)         # 8-byte Spill
	movq	%rcx, 600(%rsp)         # 8-byte Spill
	movq	%rdx, 616(%rsp)         # 8-byte Spill
	movq	%r8, 672(%rsp)          # 8-byte Spill
	movq	%r9, 664(%rsp)          # 8-byte Spill
	movq	%r10, 656(%rsp)         # 8-byte Spill
	callq	_ZmlRK12btQuaternionS1_
.Ltmp309:
.Ltmp130:
	.loc	2 0 61                  # /home/chris/test-suite/MultiSource/Benchmarks/Bullet/btConvexConvexAlgorithm.cpp:0:61
	movaps	%xmm1, 528(%rsp)        # 16-byte Spill
	movaps	%xmm0, 512(%rsp)        # 16-byte Spill
	.loc	2 428 61                # /home/chris/test-suite/MultiSource/Benchmarks/Bullet/btConvexConvexAlgorithm.cpp:428:61
	jmp	.LBB11_42
.Ltmp310:
.LBB11_42:                              #   in Loop: Header=BB11_36 Depth=1
	#DEBUG_VALUE: i <- [DW_OP_plus_uconst 752] [$rsp+0]
	#DEBUG_VALUE: radiusB <- [DW_OP_plus_uconst 792] [$rsp+0]
	#DEBUG_VALUE: radiusA <- [DW_OP_plus_uconst 796] [$rsp+0]
	#DEBUG_VALUE: angleLimit <- 3.926991e-01
	#DEBUG_VALUE: perturbeA <- 1
	#DEBUG_VALUE: sepDist <- [DW_OP_plus_uconst 812] [$rsp+0]
	#DEBUG_VALUE: processCollision:min1 <- [DW_OP_plus_uconst 1112] [$rsp+0]
	#DEBUG_VALUE: processCollision:min0 <- [DW_OP_plus_uconst 1128] [$rsp+0]
	#DEBUG_VALUE: processCollision:resultOut <- [DW_OP_plus_uconst 1216] [$rsp+0]
	#DEBUG_VALUE: processCollision:dispatchInfo <- [DW_OP_plus_uconst 1224] [$rsp+0]
	#DEBUG_VALUE: processCollision:body1 <- [DW_OP_plus_uconst 1232] [$rsp+0]
	#DEBUG_VALUE: processCollision:body0 <- [DW_OP_plus_uconst 1240] [$rsp+0]
	#DEBUG_VALUE: processCollision:this <- [DW_OP_plus_uconst 1248] [$rsp+0]
	.loc	2 0 61                  # /home/chris/test-suite/MultiSource/Benchmarks/Bullet/btConvexConvexAlgorithm.cpp:0:61
	movq	592(%rsp), %rax         # 8-byte Reload
	movq	608(%rsp), %rcx         # 8-byte Reload
	movq	624(%rsp), %rdx         # 8-byte Reload
	movq	640(%rsp), %rsi         # 8-byte Reload
	movq	648(%rsp), %rdi         # 8-byte Reload
	movq	736(%rsp), %r8          # 8-byte Reload
	movq	720(%rsp), %r9          # 8-byte Reload
	movq	704(%rsp), %r10         # 8-byte Reload
	movaps	512(%rsp), %xmm0        # 16-byte Reload
	.loc	2 428 61                # /home/chris/test-suite/MultiSource/Benchmarks/Bullet/btConvexConvexAlgorithm.cpp:428:61
	movlpd	%xmm0, 1808(%rsp)
	movaps	528(%rsp), %xmm1        # 16-byte Reload
	movlpd	%xmm1, 1816(%rsp)
.Ltmp131:
	leaq	1936(%rsp), %r11
	movq	1200(%rsp), %rbx        # 8-byte Reload
	movq	%rdi, 680(%rsp)         # 8-byte Spill
	.loc	2 428 73                # /home/chris/test-suite/MultiSource/Benchmarks/Bullet/btConvexConvexAlgorithm.cpp:428:73
	movq	%rbx, %rdi
	movq	%rsi, 632(%rsp)         # 8-byte Spill
	movq	%r11, %rsi
	movq	%rax, 584(%rsp)         # 8-byte Spill
	movq	%rcx, 600(%rsp)         # 8-byte Spill
	movq	%rdx, 616(%rsp)         # 8-byte Spill
	movq	%r8, 672(%rsp)          # 8-byte Spill
	movq	%r9, 664(%rsp)          # 8-byte Spill
	movq	%r10, 656(%rsp)         # 8-byte Spill
	callq	_ZmlRK12btQuaternionS1_
.Ltmp311:
.Ltmp132:
	.loc	2 0 73                  # /home/chris/test-suite/MultiSource/Benchmarks/Bullet/btConvexConvexAlgorithm.cpp:0:73
	movaps	%xmm1, 496(%rsp)        # 16-byte Spill
	movaps	%xmm0, 480(%rsp)        # 16-byte Spill
	.loc	2 428 73                # /home/chris/test-suite/MultiSource/Benchmarks/Bullet/btConvexConvexAlgorithm.cpp:428:73
	jmp	.LBB11_43
.Ltmp312:
.LBB11_43:                              #   in Loop: Header=BB11_36 Depth=1
	#DEBUG_VALUE: i <- [DW_OP_plus_uconst 752] [$rsp+0]
	#DEBUG_VALUE: radiusB <- [DW_OP_plus_uconst 792] [$rsp+0]
	#DEBUG_VALUE: radiusA <- [DW_OP_plus_uconst 796] [$rsp+0]
	#DEBUG_VALUE: angleLimit <- 3.926991e-01
	#DEBUG_VALUE: perturbeA <- 1
	#DEBUG_VALUE: sepDist <- [DW_OP_plus_uconst 812] [$rsp+0]
	#DEBUG_VALUE: processCollision:min1 <- [DW_OP_plus_uconst 1112] [$rsp+0]
	#DEBUG_VALUE: processCollision:min0 <- [DW_OP_plus_uconst 1128] [$rsp+0]
	#DEBUG_VALUE: processCollision:resultOut <- [DW_OP_plus_uconst 1216] [$rsp+0]
	#DEBUG_VALUE: processCollision:dispatchInfo <- [DW_OP_plus_uconst 1224] [$rsp+0]
	#DEBUG_VALUE: processCollision:body1 <- [DW_OP_plus_uconst 1232] [$rsp+0]
	#DEBUG_VALUE: processCollision:body0 <- [DW_OP_plus_uconst 1240] [$rsp+0]
	#DEBUG_VALUE: processCollision:this <- [DW_OP_plus_uconst 1248] [$rsp+0]
	.loc	2 0 73                  # /home/chris/test-suite/MultiSource/Benchmarks/Bullet/btConvexConvexAlgorithm.cpp:0:73
	movq	592(%rsp), %rax         # 8-byte Reload
	movq	608(%rsp), %rcx         # 8-byte Reload
	movq	624(%rsp), %rdx         # 8-byte Reload
	movq	640(%rsp), %rsi         # 8-byte Reload
	movq	648(%rsp), %rdi         # 8-byte Reload
	movq	736(%rsp), %r8          # 8-byte Reload
	movq	720(%rsp), %r9          # 8-byte Reload
	movq	704(%rsp), %r10         # 8-byte Reload
	movaps	480(%rsp), %xmm0        # 16-byte Reload
	.loc	2 428 73                # /home/chris/test-suite/MultiSource/Benchmarks/Bullet/btConvexConvexAlgorithm.cpp:428:73
	movlpd	%xmm0, 1824(%rsp)
	movaps	496(%rsp), %xmm1        # 16-byte Reload
	movlpd	%xmm1, 1832(%rsp)
.Ltmp133:
	leaq	1840(%rsp), %r11
	movq	%rdi, 680(%rsp)         # 8-byte Spill
	.loc	2 428 35                # /home/chris/test-suite/MultiSource/Benchmarks/Bullet/btConvexConvexAlgorithm.cpp:428:35
	movq	%r11, %rdi
	movq	1208(%rsp), %r11        # 8-byte Reload
	movq	%rsi, 632(%rsp)         # 8-byte Spill
	movq	%r11, %rsi
	movq	%rax, 584(%rsp)         # 8-byte Spill
	movq	%rcx, 600(%rsp)         # 8-byte Spill
	movq	%rdx, 616(%rsp)         # 8-byte Spill
	movq	%r8, 672(%rsp)          # 8-byte Spill
	movq	%r9, 664(%rsp)          # 8-byte Spill
	movq	%r10, 656(%rsp)         # 8-byte Spill
	callq	_ZN11btMatrix3x3C2ERK12btQuaternion
.Ltmp313:
.Ltmp134:
	jmp	.LBB11_44
.Ltmp314:
.LBB11_44:                              #   in Loop: Header=BB11_36 Depth=1
	#DEBUG_VALUE: i <- [DW_OP_plus_uconst 752] [$rsp+0]
	#DEBUG_VALUE: radiusB <- [DW_OP_plus_uconst 792] [$rsp+0]
	#DEBUG_VALUE: radiusA <- [DW_OP_plus_uconst 796] [$rsp+0]
	#DEBUG_VALUE: angleLimit <- 3.926991e-01
	#DEBUG_VALUE: perturbeA <- 1
	#DEBUG_VALUE: sepDist <- [DW_OP_plus_uconst 812] [$rsp+0]
	#DEBUG_VALUE: processCollision:min1 <- [DW_OP_plus_uconst 1112] [$rsp+0]
	#DEBUG_VALUE: processCollision:min0 <- [DW_OP_plus_uconst 1128] [$rsp+0]
	#DEBUG_VALUE: processCollision:resultOut <- [DW_OP_plus_uconst 1216] [$rsp+0]
	#DEBUG_VALUE: processCollision:dispatchInfo <- [DW_OP_plus_uconst 1224] [$rsp+0]
	#DEBUG_VALUE: processCollision:body1 <- [DW_OP_plus_uconst 1232] [$rsp+0]
	#DEBUG_VALUE: processCollision:body0 <- [DW_OP_plus_uconst 1240] [$rsp+0]
	#DEBUG_VALUE: processCollision:this <- [DW_OP_plus_uconst 1248] [$rsp+0]
	.loc	2 0 35                  # /home/chris/test-suite/MultiSource/Benchmarks/Bullet/btConvexConvexAlgorithm.cpp:0:35
	movq	592(%rsp), %rax         # 8-byte Reload
	movq	608(%rsp), %rcx         # 8-byte Reload
	movq	624(%rsp), %rdx         # 8-byte Reload
	movq	640(%rsp), %rsi         # 8-byte Reload
	movq	648(%rsp), %rdi         # 8-byte Reload
	movq	736(%rsp), %r8          # 8-byte Reload
	movq	720(%rsp), %r9          # 8-byte Reload
	movq	704(%rsp), %r10         # 8-byte Reload
	movq	1240(%rsp), %r11        # 8-byte Reload
	movq	%rdi, 680(%rsp)         # 8-byte Spill
	.loc	2 428 87                # /home/chris/test-suite/MultiSource/Benchmarks/Bullet/btConvexConvexAlgorithm.cpp:428:87
	movq	%r11, %rdi
	movq	%rax, 584(%rsp)         # 8-byte Spill
	movq	%rcx, 600(%rsp)         # 8-byte Spill
	movq	%rdx, 616(%rsp)         # 8-byte Spill
	movq	%rsi, 632(%rsp)         # 8-byte Spill
	movq	%r8, 672(%rsp)          # 8-byte Spill
	movq	%r9, 664(%rsp)          # 8-byte Spill
	movq	%r10, 656(%rsp)         # 8-byte Spill
	callq	_ZN17btCollisionObject17getWorldTransformEv
.Ltmp315:
	.loc	2 428 107               # /home/chris/test-suite/MultiSource/Benchmarks/Bullet/btConvexConvexAlgorithm.cpp:428:107
	movq	%rax, %rdi
	callq	_ZN11btTransform8getBasisEv
.Ltmp316:
.Ltmp135:
	.loc	2 0 107                 # /home/chris/test-suite/MultiSource/Benchmarks/Bullet/btConvexConvexAlgorithm.cpp:0:107
	leaq	1888(%rsp), %rdi
	leaq	1840(%rsp), %rsi
	.loc	2 428 79                # /home/chris/test-suite/MultiSource/Benchmarks/Bullet/btConvexConvexAlgorithm.cpp:428:79
	movq	%rax, %rdx
	callq	_ZmlRK11btMatrix3x3S1_
.Ltmp317:
.Ltmp136:
	jmp	.LBB11_45
.Ltmp318:
.LBB11_45:                              #   in Loop: Header=BB11_36 Depth=1
	#DEBUG_VALUE: i <- [DW_OP_plus_uconst 752] [$rsp+0]
	#DEBUG_VALUE: radiusB <- [DW_OP_plus_uconst 792] [$rsp+0]
	#DEBUG_VALUE: radiusA <- [DW_OP_plus_uconst 796] [$rsp+0]
	#DEBUG_VALUE: angleLimit <- 3.926991e-01
	#DEBUG_VALUE: perturbeA <- 1
	#DEBUG_VALUE: sepDist <- [DW_OP_plus_uconst 812] [$rsp+0]
	#DEBUG_VALUE: processCollision:min1 <- [DW_OP_plus_uconst 1112] [$rsp+0]
	#DEBUG_VALUE: processCollision:min0 <- [DW_OP_plus_uconst 1128] [$rsp+0]
	#DEBUG_VALUE: processCollision:resultOut <- [DW_OP_plus_uconst 1216] [$rsp+0]
	#DEBUG_VALUE: processCollision:dispatchInfo <- [DW_OP_plus_uconst 1224] [$rsp+0]
	#DEBUG_VALUE: processCollision:body1 <- [DW_OP_plus_uconst 1232] [$rsp+0]
	#DEBUG_VALUE: processCollision:body0 <- [DW_OP_plus_uconst 1240] [$rsp+0]
	#DEBUG_VALUE: processCollision:this <- [DW_OP_plus_uconst 1248] [$rsp+0]
	.loc	2 0 79                  # /home/chris/test-suite/MultiSource/Benchmarks/Bullet/btConvexConvexAlgorithm.cpp:0:79
	movq	736(%rsp), %rax         # 8-byte Reload
	movq	720(%rsp), %rcx         # 8-byte Reload
	movq	704(%rsp), %rdx         # 8-byte Reload
	leaq	1888(%rsp), %rsi
	movq	928(%rsp), %rdi         # 8-byte Reload
	movq	%rax, 712(%rsp)         # 8-byte Spill
	movq	%rcx, 696(%rsp)         # 8-byte Spill
	movq	%rdx, 688(%rsp)         # 8-byte Spill
	.loc	2 428 24                # /home/chris/test-suite/MultiSource/Benchmarks/Bullet/btConvexConvexAlgorithm.cpp:428:24
	callq	_ZN11btTransform8setBasisERK11btMatrix3x3
.Ltmp319:
	.loc	2 0 24                  # /home/chris/test-suite/MultiSource/Benchmarks/Bullet/btConvexConvexAlgorithm.cpp:0:24
	movq	1232(%rsp), %rdi        # 8-byte Reload
	.loc	2 429 33 is_stmt 1      # /home/chris/test-suite/MultiSource/Benchmarks/Bullet/btConvexConvexAlgorithm.cpp:429:33
	callq	_ZN17btCollisionObject17getWorldTransformEv
.Ltmp320:
.Ltmp138:
	.loc	2 0 33 is_stmt 0        # /home/chris/test-suite/MultiSource/Benchmarks/Bullet/btConvexConvexAlgorithm.cpp:0:33
	movq	920(%rsp), %rdi         # 8-byte Reload
	.loc	2 429 24                # /home/chris/test-suite/MultiSource/Benchmarks/Bullet/btConvexConvexAlgorithm.cpp:429:24
	movq	%rax, %rsi
	callq	_ZN11btTransformaSERKS_
.Ltmp321:
.Ltmp139:
	jmp	.LBB11_57
.Ltmp322:
.LBB11_46:
	#DEBUG_VALUE: i <- [DW_OP_plus_uconst 752] [$rsp+0]
	#DEBUG_VALUE: radiusB <- [DW_OP_plus_uconst 792] [$rsp+0]
	#DEBUG_VALUE: radiusA <- [DW_OP_plus_uconst 796] [$rsp+0]
	#DEBUG_VALUE: angleLimit <- 3.926991e-01
	#DEBUG_VALUE: perturbeA <- 1
	#DEBUG_VALUE: sepDist <- [DW_OP_plus_uconst 812] [$rsp+0]
	#DEBUG_VALUE: processCollision:min1 <- [DW_OP_plus_uconst 1112] [$rsp+0]
	#DEBUG_VALUE: processCollision:min0 <- [DW_OP_plus_uconst 1128] [$rsp+0]
	#DEBUG_VALUE: processCollision:resultOut <- [DW_OP_plus_uconst 1216] [$rsp+0]
	#DEBUG_VALUE: processCollision:dispatchInfo <- [DW_OP_plus_uconst 1224] [$rsp+0]
	#DEBUG_VALUE: processCollision:body1 <- [DW_OP_plus_uconst 1232] [$rsp+0]
	#DEBUG_VALUE: processCollision:body0 <- [DW_OP_plus_uconst 1240] [$rsp+0]
	#DEBUG_VALUE: processCollision:this <- [DW_OP_plus_uconst 1248] [$rsp+0]
.Ltmp111:
	.loc	2 0 24                  # /home/chris/test-suite/MultiSource/Benchmarks/Bullet/btConvexConvexAlgorithm.cpp:0:24
	movq	728(%rsp), %rcx         # 8-byte Reload
                                        # kill: def $edx killed $edx killed $rdx
	movq	%rcx, 472(%rsp)         # 8-byte Spill
	movl	%edx, 468(%rsp)         # 4-byte Spill
	movq	%rax, 456(%rsp)         # 8-byte Spill
	.loc	2 466 1 is_stmt 1       # /home/chris/test-suite/MultiSource/Benchmarks/Bullet/btConvexConvexAlgorithm.cpp:466:1
	jmp	.LBB11_64
.Ltmp323:
.LBB11_47:
	#DEBUG_VALUE: i <- [DW_OP_plus_uconst 752] [$rsp+0]
	#DEBUG_VALUE: radiusB <- [DW_OP_plus_uconst 792] [$rsp+0]
	#DEBUG_VALUE: radiusA <- [DW_OP_plus_uconst 796] [$rsp+0]
	#DEBUG_VALUE: angleLimit <- 3.926991e-01
	#DEBUG_VALUE: perturbeA <- 1
	#DEBUG_VALUE: sepDist <- [DW_OP_plus_uconst 812] [$rsp+0]
	#DEBUG_VALUE: processCollision:min1 <- [DW_OP_plus_uconst 1112] [$rsp+0]
	#DEBUG_VALUE: processCollision:min0 <- [DW_OP_plus_uconst 1128] [$rsp+0]
	#DEBUG_VALUE: processCollision:resultOut <- [DW_OP_plus_uconst 1216] [$rsp+0]
	#DEBUG_VALUE: processCollision:dispatchInfo <- [DW_OP_plus_uconst 1224] [$rsp+0]
	#DEBUG_VALUE: processCollision:body1 <- [DW_OP_plus_uconst 1232] [$rsp+0]
	#DEBUG_VALUE: processCollision:body0 <- [DW_OP_plus_uconst 1240] [$rsp+0]
	#DEBUG_VALUE: processCollision:this <- [DW_OP_plus_uconst 1248] [$rsp+0]
.Ltmp140:
	.loc	2 0 1 is_stmt 0         # /home/chris/test-suite/MultiSource/Benchmarks/Bullet/btConvexConvexAlgorithm.cpp:0:1
	movq	712(%rsp), %rcx         # 8-byte Reload
	movq	696(%rsp), %rsi         # 8-byte Reload
	movq	688(%rsp), %rdi         # 8-byte Reload
                                        # kill: def $edx killed $edx killed $rdx
	movq	%rdi, 448(%rsp)         # 8-byte Spill
	movq	%rsi, 440(%rsp)         # 8-byte Spill
	movq	%rcx, 432(%rsp)         # 8-byte Spill
	movl	%edx, 428(%rsp)         # 4-byte Spill
	movq	%rax, 416(%rsp)         # 8-byte Spill
	.loc	2 466 1                 # /home/chris/test-suite/MultiSource/Benchmarks/Bullet/btConvexConvexAlgorithm.cpp:466:1
	jmp	.LBB11_63
.Ltmp324:
.LBB11_48:
	#DEBUG_VALUE: i <- [DW_OP_plus_uconst 752] [$rsp+0]
	#DEBUG_VALUE: radiusB <- [DW_OP_plus_uconst 792] [$rsp+0]
	#DEBUG_VALUE: radiusA <- [DW_OP_plus_uconst 796] [$rsp+0]
	#DEBUG_VALUE: angleLimit <- 3.926991e-01
	#DEBUG_VALUE: perturbeA <- 1
	#DEBUG_VALUE: sepDist <- [DW_OP_plus_uconst 812] [$rsp+0]
	#DEBUG_VALUE: processCollision:min1 <- [DW_OP_plus_uconst 1112] [$rsp+0]
	#DEBUG_VALUE: processCollision:min0 <- [DW_OP_plus_uconst 1128] [$rsp+0]
	#DEBUG_VALUE: processCollision:resultOut <- [DW_OP_plus_uconst 1216] [$rsp+0]
	#DEBUG_VALUE: processCollision:dispatchInfo <- [DW_OP_plus_uconst 1224] [$rsp+0]
	#DEBUG_VALUE: processCollision:body1 <- [DW_OP_plus_uconst 1232] [$rsp+0]
	#DEBUG_VALUE: processCollision:body0 <- [DW_OP_plus_uconst 1240] [$rsp+0]
	#DEBUG_VALUE: processCollision:this <- [DW_OP_plus_uconst 1248] [$rsp+0]
.Ltmp137:
	.loc	2 0 1                   # /home/chris/test-suite/MultiSource/Benchmarks/Bullet/btConvexConvexAlgorithm.cpp:0:1
	movq	584(%rsp), %rcx         # 8-byte Reload
	movq	600(%rsp), %rsi         # 8-byte Reload
	movq	616(%rsp), %rdi         # 8-byte Reload
	movq	632(%rsp), %r8          # 8-byte Reload
	movq	680(%rsp), %r9          # 8-byte Reload
	movq	672(%rsp), %r10         # 8-byte Reload
	movq	664(%rsp), %r11         # 8-byte Reload
	movq	656(%rsp), %rbx         # 8-byte Reload
                                        # kill: def $edx killed $edx killed $rdx
	movq	%rbx, 448(%rsp)         # 8-byte Spill
	movq	%r11, 440(%rsp)         # 8-byte Spill
	movq	%r10, 432(%rsp)         # 8-byte Spill
	movl	%edx, 428(%rsp)         # 4-byte Spill
	movq	%rax, 416(%rsp)         # 8-byte Spill
.Ltmp325:
	.loc	2 428 5 is_stmt 1       # /home/chris/test-suite/MultiSource/Benchmarks/Bullet/btConvexConvexAlgorithm.cpp:428:5
	jmp	.LBB11_63
.Ltmp326:
.LBB11_49:                              #   in Loop: Header=BB11_36 Depth=1
	#DEBUG_VALUE: i <- [DW_OP_plus_uconst 752] [$rsp+0]
	#DEBUG_VALUE: radiusB <- [DW_OP_plus_uconst 792] [$rsp+0]
	#DEBUG_VALUE: radiusA <- [DW_OP_plus_uconst 796] [$rsp+0]
	#DEBUG_VALUE: angleLimit <- 3.926991e-01
	#DEBUG_VALUE: perturbeA <- 1
	#DEBUG_VALUE: sepDist <- [DW_OP_plus_uconst 812] [$rsp+0]
	#DEBUG_VALUE: processCollision:min1 <- [DW_OP_plus_uconst 1112] [$rsp+0]
	#DEBUG_VALUE: processCollision:min0 <- [DW_OP_plus_uconst 1128] [$rsp+0]
	#DEBUG_VALUE: processCollision:resultOut <- [DW_OP_plus_uconst 1216] [$rsp+0]
	#DEBUG_VALUE: processCollision:dispatchInfo <- [DW_OP_plus_uconst 1224] [$rsp+0]
	#DEBUG_VALUE: processCollision:body1 <- [DW_OP_plus_uconst 1232] [$rsp+0]
	#DEBUG_VALUE: processCollision:body0 <- [DW_OP_plus_uconst 1240] [$rsp+0]
	#DEBUG_VALUE: processCollision:this <- [DW_OP_plus_uconst 1248] [$rsp+0]
	.loc	2 0 5 is_stmt 0         # /home/chris/test-suite/MultiSource/Benchmarks/Bullet/btConvexConvexAlgorithm.cpp:0:5
	movq	736(%rsp), %rax         # 8-byte Reload
	movq	720(%rsp), %rcx         # 8-byte Reload
	movq	704(%rsp), %rdx         # 8-byte Reload
	movq	1240(%rsp), %rdi        # 8-byte Reload
	movq	%rax, 712(%rsp)         # 8-byte Spill
	movq	%rcx, 696(%rsp)         # 8-byte Spill
	movq	%rdx, 688(%rsp)         # 8-byte Spill
.Ltmp327:
	.loc	2 435 33 is_stmt 1      # /home/chris/test-suite/MultiSource/Benchmarks/Bullet/btConvexConvexAlgorithm.cpp:435:33
	callq	_ZN17btCollisionObject17getWorldTransformEv
.Ltmp328:
.Ltmp114:
	.loc	2 0 33 is_stmt 0        # /home/chris/test-suite/MultiSource/Benchmarks/Bullet/btConvexConvexAlgorithm.cpp:0:33
	movq	928(%rsp), %rdi         # 8-byte Reload
	.loc	2 435 24                # /home/chris/test-suite/MultiSource/Benchmarks/Bullet/btConvexConvexAlgorithm.cpp:435:24
	movq	%rax, %rsi
	callq	_ZN11btTransformaSERKS_
.Ltmp329:
.Ltmp115:
	jmp	.LBB11_50
.Ltmp330:
.LBB11_50:                              #   in Loop: Header=BB11_36 Depth=1
	#DEBUG_VALUE: i <- [DW_OP_plus_uconst 752] [$rsp+0]
	#DEBUG_VALUE: radiusB <- [DW_OP_plus_uconst 792] [$rsp+0]
	#DEBUG_VALUE: radiusA <- [DW_OP_plus_uconst 796] [$rsp+0]
	#DEBUG_VALUE: angleLimit <- 3.926991e-01
	#DEBUG_VALUE: perturbeA <- 1
	#DEBUG_VALUE: sepDist <- [DW_OP_plus_uconst 812] [$rsp+0]
	#DEBUG_VALUE: processCollision:min1 <- [DW_OP_plus_uconst 1112] [$rsp+0]
	#DEBUG_VALUE: processCollision:min0 <- [DW_OP_plus_uconst 1128] [$rsp+0]
	#DEBUG_VALUE: processCollision:resultOut <- [DW_OP_plus_uconst 1216] [$rsp+0]
	#DEBUG_VALUE: processCollision:dispatchInfo <- [DW_OP_plus_uconst 1224] [$rsp+0]
	#DEBUG_VALUE: processCollision:body1 <- [DW_OP_plus_uconst 1232] [$rsp+0]
	#DEBUG_VALUE: processCollision:body0 <- [DW_OP_plus_uconst 1240] [$rsp+0]
	#DEBUG_VALUE: processCollision:this <- [DW_OP_plus_uconst 1248] [$rsp+0]
	.loc	2 0 24                  # /home/chris/test-suite/MultiSource/Benchmarks/Bullet/btConvexConvexAlgorithm.cpp:0:24
	movq	736(%rsp), %rax         # 8-byte Reload
	movq	720(%rsp), %rcx         # 8-byte Reload
	movq	704(%rsp), %rdx         # 8-byte Reload
	leaq	1744(%rsp), %rsi
	.loc	2 436 34 is_stmt 1      # /home/chris/test-suite/MultiSource/Benchmarks/Bullet/btConvexConvexAlgorithm.cpp:436:34
	movq	%rsi, %rdi
	leaq	1696(%rsp), %r8
	movq	%r8, %r9
	leaq	1680(%rsp), %r10
	.loc	2 436 46 is_stmt 0      # /home/chris/test-suite/MultiSource/Benchmarks/Bullet/btConvexConvexAlgorithm.cpp:436:46
	movq	%r10, %r11
	leaq	1664(%rsp), %rbx
	movq	%rbx, %r14
	leaq	1648(%rsp), %r15
.Ltmp116:
	movq	%r15, %r12
	leaq	1936(%rsp), %r13
	movq	%rdi, 408(%rsp)         # 8-byte Spill
	.loc	2 436 51                # /home/chris/test-suite/MultiSource/Benchmarks/Bullet/btConvexConvexAlgorithm.cpp:436:51
	movq	%r13, %rdi
	movq	%rax, 400(%rsp)         # 8-byte Spill
	movq	%rcx, 392(%rsp)         # 8-byte Spill
	movq	%rdx, 384(%rsp)         # 8-byte Spill
	movq	%rsi, 376(%rsp)         # 8-byte Spill
	movq	%r8, 368(%rsp)          # 8-byte Spill
	movq	%r9, 360(%rsp)          # 8-byte Spill
	movq	%r10, 352(%rsp)         # 8-byte Spill
	movq	%r11, 344(%rsp)         # 8-byte Spill
	movq	%rbx, 336(%rsp)         # 8-byte Spill
	movq	%r14, 328(%rsp)         # 8-byte Spill
	movq	%r15, 320(%rsp)         # 8-byte Spill
	movq	%r12, 312(%rsp)         # 8-byte Spill
	callq	_ZNK12btQuaternion7inverseEv
.Ltmp331:
.Ltmp117:
	.loc	2 0 51                  # /home/chris/test-suite/MultiSource/Benchmarks/Bullet/btConvexConvexAlgorithm.cpp:0:51
	movaps	%xmm1, 288(%rsp)        # 16-byte Spill
	movaps	%xmm0, 272(%rsp)        # 16-byte Spill
	.loc	2 436 51                # /home/chris/test-suite/MultiSource/Benchmarks/Bullet/btConvexConvexAlgorithm.cpp:436:51
	jmp	.LBB11_51
.Ltmp332:
.LBB11_51:                              #   in Loop: Header=BB11_36 Depth=1
	#DEBUG_VALUE: i <- [DW_OP_plus_uconst 752] [$rsp+0]
	#DEBUG_VALUE: radiusB <- [DW_OP_plus_uconst 792] [$rsp+0]
	#DEBUG_VALUE: radiusA <- [DW_OP_plus_uconst 796] [$rsp+0]
	#DEBUG_VALUE: angleLimit <- 3.926991e-01
	#DEBUG_VALUE: perturbeA <- 1
	#DEBUG_VALUE: sepDist <- [DW_OP_plus_uconst 812] [$rsp+0]
	#DEBUG_VALUE: processCollision:min1 <- [DW_OP_plus_uconst 1112] [$rsp+0]
	#DEBUG_VALUE: processCollision:min0 <- [DW_OP_plus_uconst 1128] [$rsp+0]
	#DEBUG_VALUE: processCollision:resultOut <- [DW_OP_plus_uconst 1216] [$rsp+0]
	#DEBUG_VALUE: processCollision:dispatchInfo <- [DW_OP_plus_uconst 1224] [$rsp+0]
	#DEBUG_VALUE: processCollision:body1 <- [DW_OP_plus_uconst 1232] [$rsp+0]
	#DEBUG_VALUE: processCollision:body0 <- [DW_OP_plus_uconst 1240] [$rsp+0]
	#DEBUG_VALUE: processCollision:this <- [DW_OP_plus_uconst 1248] [$rsp+0]
	.loc	2 0 51                  # /home/chris/test-suite/MultiSource/Benchmarks/Bullet/btConvexConvexAlgorithm.cpp:0:51
	movq	320(%rsp), %rax         # 8-byte Reload
	movq	336(%rsp), %rcx         # 8-byte Reload
	movq	352(%rsp), %rdx         # 8-byte Reload
	movq	368(%rsp), %rsi         # 8-byte Reload
	movq	376(%rsp), %rdi         # 8-byte Reload
	movq	736(%rsp), %r8          # 8-byte Reload
	movq	720(%rsp), %r9          # 8-byte Reload
	movq	704(%rsp), %r10         # 8-byte Reload
	movaps	272(%rsp), %xmm0        # 16-byte Reload
	.loc	2 436 51                # /home/chris/test-suite/MultiSource/Benchmarks/Bullet/btConvexConvexAlgorithm.cpp:436:51
	movlpd	%xmm0, 1648(%rsp)
	movaps	288(%rsp), %xmm1        # 16-byte Reload
	movlpd	%xmm1, 1656(%rsp)
.Ltmp118:
	leaq	1960(%rsp), %r11
	movq	1168(%rsp), %rbx        # 8-byte Reload
	movq	%rdi, 408(%rsp)         # 8-byte Spill
	.loc	2 436 60                # /home/chris/test-suite/MultiSource/Benchmarks/Bullet/btConvexConvexAlgorithm.cpp:436:60
	movq	%rbx, %rdi
	movq	%rsi, 360(%rsp)         # 8-byte Spill
	movq	%r11, %rsi
	movq	%rax, 312(%rsp)         # 8-byte Spill
	movq	%rcx, 328(%rsp)         # 8-byte Spill
	movq	%rdx, 344(%rsp)         # 8-byte Spill
	movq	%r8, 400(%rsp)          # 8-byte Spill
	movq	%r9, 392(%rsp)          # 8-byte Spill
	movq	%r10, 384(%rsp)         # 8-byte Spill
	callq	_ZmlRK12btQuaternionS1_
.Ltmp333:
.Ltmp119:
	.loc	2 0 60                  # /home/chris/test-suite/MultiSource/Benchmarks/Bullet/btConvexConvexAlgorithm.cpp:0:60
	movaps	%xmm1, 256(%rsp)        # 16-byte Spill
	movaps	%xmm0, 240(%rsp)        # 16-byte Spill
	.loc	2 436 60                # /home/chris/test-suite/MultiSource/Benchmarks/Bullet/btConvexConvexAlgorithm.cpp:436:60
	jmp	.LBB11_52
.Ltmp334:
.LBB11_52:                              #   in Loop: Header=BB11_36 Depth=1
	#DEBUG_VALUE: i <- [DW_OP_plus_uconst 752] [$rsp+0]
	#DEBUG_VALUE: radiusB <- [DW_OP_plus_uconst 792] [$rsp+0]
	#DEBUG_VALUE: radiusA <- [DW_OP_plus_uconst 796] [$rsp+0]
	#DEBUG_VALUE: angleLimit <- 3.926991e-01
	#DEBUG_VALUE: perturbeA <- 1
	#DEBUG_VALUE: sepDist <- [DW_OP_plus_uconst 812] [$rsp+0]
	#DEBUG_VALUE: processCollision:min1 <- [DW_OP_plus_uconst 1112] [$rsp+0]
	#DEBUG_VALUE: processCollision:min0 <- [DW_OP_plus_uconst 1128] [$rsp+0]
	#DEBUG_VALUE: processCollision:resultOut <- [DW_OP_plus_uconst 1216] [$rsp+0]
	#DEBUG_VALUE: processCollision:dispatchInfo <- [DW_OP_plus_uconst 1224] [$rsp+0]
	#DEBUG_VALUE: processCollision:body1 <- [DW_OP_plus_uconst 1232] [$rsp+0]
	#DEBUG_VALUE: processCollision:body0 <- [DW_OP_plus_uconst 1240] [$rsp+0]
	#DEBUG_VALUE: processCollision:this <- [DW_OP_plus_uconst 1248] [$rsp+0]
	.loc	2 0 60                  # /home/chris/test-suite/MultiSource/Benchmarks/Bullet/btConvexConvexAlgorithm.cpp:0:60
	movq	320(%rsp), %rax         # 8-byte Reload
	movq	336(%rsp), %rcx         # 8-byte Reload
	movq	352(%rsp), %rdx         # 8-byte Reload
	movq	368(%rsp), %rsi         # 8-byte Reload
	movq	376(%rsp), %rdi         # 8-byte Reload
	movq	736(%rsp), %r8          # 8-byte Reload
	movq	720(%rsp), %r9          # 8-byte Reload
	movq	704(%rsp), %r10         # 8-byte Reload
	movaps	240(%rsp), %xmm0        # 16-byte Reload
	.loc	2 436 60                # /home/chris/test-suite/MultiSource/Benchmarks/Bullet/btConvexConvexAlgorithm.cpp:436:60
	movlpd	%xmm0, 1664(%rsp)
	movaps	256(%rsp), %xmm1        # 16-byte Reload
	movlpd	%xmm1, 1672(%rsp)
.Ltmp120:
	leaq	1936(%rsp), %r11
	movq	1176(%rsp), %rbx        # 8-byte Reload
	movq	%rdi, 408(%rsp)         # 8-byte Spill
	.loc	2 436 72                # /home/chris/test-suite/MultiSource/Benchmarks/Bullet/btConvexConvexAlgorithm.cpp:436:72
	movq	%rbx, %rdi
	movq	%rsi, 360(%rsp)         # 8-byte Spill
	movq	%r11, %rsi
	movq	%rax, 312(%rsp)         # 8-byte Spill
	movq	%rcx, 328(%rsp)         # 8-byte Spill
	movq	%rdx, 344(%rsp)         # 8-byte Spill
	movq	%r8, 400(%rsp)          # 8-byte Spill
	movq	%r9, 392(%rsp)          # 8-byte Spill
	movq	%r10, 384(%rsp)         # 8-byte Spill
	callq	_ZmlRK12btQuaternionS1_
.Ltmp335:
.Ltmp121:
	.loc	2 0 72                  # /home/chris/test-suite/MultiSource/Benchmarks/Bullet/btConvexConvexAlgorithm.cpp:0:72
	movaps	%xmm1, 224(%rsp)        # 16-byte Spill
	movaps	%xmm0, 208(%rsp)        # 16-byte Spill
	.loc	2 436 72                # /home/chris/test-suite/MultiSource/Benchmarks/Bullet/btConvexConvexAlgorithm.cpp:436:72
	jmp	.LBB11_53
.Ltmp336:
.LBB11_53:                              #   in Loop: Header=BB11_36 Depth=1
	#DEBUG_VALUE: i <- [DW_OP_plus_uconst 752] [$rsp+0]
	#DEBUG_VALUE: radiusB <- [DW_OP_plus_uconst 792] [$rsp+0]
	#DEBUG_VALUE: radiusA <- [DW_OP_plus_uconst 796] [$rsp+0]
	#DEBUG_VALUE: angleLimit <- 3.926991e-01
	#DEBUG_VALUE: perturbeA <- 1
	#DEBUG_VALUE: sepDist <- [DW_OP_plus_uconst 812] [$rsp+0]
	#DEBUG_VALUE: processCollision:min1 <- [DW_OP_plus_uconst 1112] [$rsp+0]
	#DEBUG_VALUE: processCollision:min0 <- [DW_OP_plus_uconst 1128] [$rsp+0]
	#DEBUG_VALUE: processCollision:resultOut <- [DW_OP_plus_uconst 1216] [$rsp+0]
	#DEBUG_VALUE: processCollision:dispatchInfo <- [DW_OP_plus_uconst 1224] [$rsp+0]
	#DEBUG_VALUE: processCollision:body1 <- [DW_OP_plus_uconst 1232] [$rsp+0]
	#DEBUG_VALUE: processCollision:body0 <- [DW_OP_plus_uconst 1240] [$rsp+0]
	#DEBUG_VALUE: processCollision:this <- [DW_OP_plus_uconst 1248] [$rsp+0]
	.loc	2 0 72                  # /home/chris/test-suite/MultiSource/Benchmarks/Bullet/btConvexConvexAlgorithm.cpp:0:72
	movq	320(%rsp), %rax         # 8-byte Reload
	movq	336(%rsp), %rcx         # 8-byte Reload
	movq	352(%rsp), %rdx         # 8-byte Reload
	movq	368(%rsp), %rsi         # 8-byte Reload
	movq	376(%rsp), %rdi         # 8-byte Reload
	movq	736(%rsp), %r8          # 8-byte Reload
	movq	720(%rsp), %r9          # 8-byte Reload
	movq	704(%rsp), %r10         # 8-byte Reload
	movaps	208(%rsp), %xmm0        # 16-byte Reload
	.loc	2 436 72                # /home/chris/test-suite/MultiSource/Benchmarks/Bullet/btConvexConvexAlgorithm.cpp:436:72
	movlpd	%xmm0, 1680(%rsp)
	movaps	224(%rsp), %xmm1        # 16-byte Reload
	movlpd	%xmm1, 1688(%rsp)
.Ltmp122:
	leaq	1696(%rsp), %r11
	movq	%rdi, 408(%rsp)         # 8-byte Spill
	.loc	2 436 34                # /home/chris/test-suite/MultiSource/Benchmarks/Bullet/btConvexConvexAlgorithm.cpp:436:34
	movq	%r11, %rdi
	movq	1184(%rsp), %r11        # 8-byte Reload
	movq	%rsi, 360(%rsp)         # 8-byte Spill
	movq	%r11, %rsi
	movq	%rax, 312(%rsp)         # 8-byte Spill
	movq	%rcx, 328(%rsp)         # 8-byte Spill
	movq	%rdx, 344(%rsp)         # 8-byte Spill
	movq	%r8, 400(%rsp)          # 8-byte Spill
	movq	%r9, 392(%rsp)          # 8-byte Spill
	movq	%r10, 384(%rsp)         # 8-byte Spill
	callq	_ZN11btMatrix3x3C2ERK12btQuaternion
.Ltmp337:
.Ltmp123:
	jmp	.LBB11_54
.Ltmp338:
.LBB11_54:                              #   in Loop: Header=BB11_36 Depth=1
	#DEBUG_VALUE: i <- [DW_OP_plus_uconst 752] [$rsp+0]
	#DEBUG_VALUE: radiusB <- [DW_OP_plus_uconst 792] [$rsp+0]
	#DEBUG_VALUE: radiusA <- [DW_OP_plus_uconst 796] [$rsp+0]
	#DEBUG_VALUE: angleLimit <- 3.926991e-01
	#DEBUG_VALUE: perturbeA <- 1
	#DEBUG_VALUE: sepDist <- [DW_OP_plus_uconst 812] [$rsp+0]
	#DEBUG_VALUE: processCollision:min1 <- [DW_OP_plus_uconst 1112] [$rsp+0]
	#DEBUG_VALUE: processCollision:min0 <- [DW_OP_plus_uconst 1128] [$rsp+0]
	#DEBUG_VALUE: processCollision:resultOut <- [DW_OP_plus_uconst 1216] [$rsp+0]
	#DEBUG_VALUE: processCollision:dispatchInfo <- [DW_OP_plus_uconst 1224] [$rsp+0]
	#DEBUG_VALUE: processCollision:body1 <- [DW_OP_plus_uconst 1232] [$rsp+0]
	#DEBUG_VALUE: processCollision:body0 <- [DW_OP_plus_uconst 1240] [$rsp+0]
	#DEBUG_VALUE: processCollision:this <- [DW_OP_plus_uconst 1248] [$rsp+0]
	.loc	2 0 34                  # /home/chris/test-suite/MultiSource/Benchmarks/Bullet/btConvexConvexAlgorithm.cpp:0:34
	movq	320(%rsp), %rax         # 8-byte Reload
	movq	336(%rsp), %rcx         # 8-byte Reload
	movq	352(%rsp), %rdx         # 8-byte Reload
	movq	368(%rsp), %rsi         # 8-byte Reload
	movq	376(%rsp), %rdi         # 8-byte Reload
	movq	736(%rsp), %r8          # 8-byte Reload
	movq	720(%rsp), %r9          # 8-byte Reload
	movq	704(%rsp), %r10         # 8-byte Reload
	movq	1232(%rsp), %r11        # 8-byte Reload
	movq	%rdi, 408(%rsp)         # 8-byte Spill
	.loc	2 436 86                # /home/chris/test-suite/MultiSource/Benchmarks/Bullet/btConvexConvexAlgorithm.cpp:436:86
	movq	%r11, %rdi
	movq	%rax, 312(%rsp)         # 8-byte Spill
	movq	%rcx, 328(%rsp)         # 8-byte Spill
	movq	%rdx, 344(%rsp)         # 8-byte Spill
	movq	%rsi, 360(%rsp)         # 8-byte Spill
	movq	%r8, 400(%rsp)          # 8-byte Spill
	movq	%r9, 392(%rsp)          # 8-byte Spill
	movq	%r10, 384(%rsp)         # 8-byte Spill
	callq	_ZN17btCollisionObject17getWorldTransformEv
.Ltmp339:
	.loc	2 436 106               # /home/chris/test-suite/MultiSource/Benchmarks/Bullet/btConvexConvexAlgorithm.cpp:436:106
	movq	%rax, %rdi
	callq	_ZN11btTransform8getBasisEv
.Ltmp340:
.Ltmp124:
	.loc	2 0 106                 # /home/chris/test-suite/MultiSource/Benchmarks/Bullet/btConvexConvexAlgorithm.cpp:0:106
	leaq	1744(%rsp), %rdi
	leaq	1696(%rsp), %rsi
	.loc	2 436 78                # /home/chris/test-suite/MultiSource/Benchmarks/Bullet/btConvexConvexAlgorithm.cpp:436:78
	movq	%rax, %rdx
	callq	_ZmlRK11btMatrix3x3S1_
.Ltmp341:
.Ltmp125:
	jmp	.LBB11_55
.Ltmp342:
.LBB11_55:                              #   in Loop: Header=BB11_36 Depth=1
	#DEBUG_VALUE: i <- [DW_OP_plus_uconst 752] [$rsp+0]
	#DEBUG_VALUE: radiusB <- [DW_OP_plus_uconst 792] [$rsp+0]
	#DEBUG_VALUE: radiusA <- [DW_OP_plus_uconst 796] [$rsp+0]
	#DEBUG_VALUE: angleLimit <- 3.926991e-01
	#DEBUG_VALUE: perturbeA <- 1
	#DEBUG_VALUE: sepDist <- [DW_OP_plus_uconst 812] [$rsp+0]
	#DEBUG_VALUE: processCollision:min1 <- [DW_OP_plus_uconst 1112] [$rsp+0]
	#DEBUG_VALUE: processCollision:min0 <- [DW_OP_plus_uconst 1128] [$rsp+0]
	#DEBUG_VALUE: processCollision:resultOut <- [DW_OP_plus_uconst 1216] [$rsp+0]
	#DEBUG_VALUE: processCollision:dispatchInfo <- [DW_OP_plus_uconst 1224] [$rsp+0]
	#DEBUG_VALUE: processCollision:body1 <- [DW_OP_plus_uconst 1232] [$rsp+0]
	#DEBUG_VALUE: processCollision:body0 <- [DW_OP_plus_uconst 1240] [$rsp+0]
	#DEBUG_VALUE: processCollision:this <- [DW_OP_plus_uconst 1248] [$rsp+0]
	.loc	2 0 78                  # /home/chris/test-suite/MultiSource/Benchmarks/Bullet/btConvexConvexAlgorithm.cpp:0:78
	movq	920(%rsp), %rdi         # 8-byte Reload
	.loc	2 436 24                # /home/chris/test-suite/MultiSource/Benchmarks/Bullet/btConvexConvexAlgorithm.cpp:436:24
	leaq	1744(%rsp), %rsi
	callq	_ZN11btTransform8setBasisERK11btMatrix3x3
.Ltmp343:
	.loc	2 0 24                  # /home/chris/test-suite/MultiSource/Benchmarks/Bullet/btConvexConvexAlgorithm.cpp:0:24
	jmp	.LBB11_57
.Ltmp344:
.LBB11_56:
	#DEBUG_VALUE: i <- [DW_OP_plus_uconst 752] [$rsp+0]
	#DEBUG_VALUE: radiusB <- [DW_OP_plus_uconst 792] [$rsp+0]
	#DEBUG_VALUE: radiusA <- [DW_OP_plus_uconst 796] [$rsp+0]
	#DEBUG_VALUE: angleLimit <- 3.926991e-01
	#DEBUG_VALUE: perturbeA <- 1
	#DEBUG_VALUE: sepDist <- [DW_OP_plus_uconst 812] [$rsp+0]
	#DEBUG_VALUE: processCollision:min1 <- [DW_OP_plus_uconst 1112] [$rsp+0]
	#DEBUG_VALUE: processCollision:min0 <- [DW_OP_plus_uconst 1128] [$rsp+0]
	#DEBUG_VALUE: processCollision:resultOut <- [DW_OP_plus_uconst 1216] [$rsp+0]
	#DEBUG_VALUE: processCollision:dispatchInfo <- [DW_OP_plus_uconst 1224] [$rsp+0]
	#DEBUG_VALUE: processCollision:body1 <- [DW_OP_plus_uconst 1232] [$rsp+0]
	#DEBUG_VALUE: processCollision:body0 <- [DW_OP_plus_uconst 1240] [$rsp+0]
	#DEBUG_VALUE: processCollision:this <- [DW_OP_plus_uconst 1248] [$rsp+0]
.Ltmp126:
	movq	312(%rsp), %rcx         # 8-byte Reload
	movq	328(%rsp), %rsi         # 8-byte Reload
	movq	344(%rsp), %rdi         # 8-byte Reload
	movq	360(%rsp), %r8          # 8-byte Reload
	movq	408(%rsp), %r9          # 8-byte Reload
	movq	400(%rsp), %r10         # 8-byte Reload
	movq	392(%rsp), %r11         # 8-byte Reload
	movq	384(%rsp), %rbx         # 8-byte Reload
                                        # kill: def $edx killed $edx killed $rdx
	movq	%rbx, 448(%rsp)         # 8-byte Spill
	movq	%r11, 440(%rsp)         # 8-byte Spill
	movq	%r10, 432(%rsp)         # 8-byte Spill
	movl	%edx, 428(%rsp)         # 4-byte Spill
	movq	%rax, 416(%rsp)         # 8-byte Spill
	.loc	2 436 5                 # /home/chris/test-suite/MultiSource/Benchmarks/Bullet/btConvexConvexAlgorithm.cpp:436:5
	jmp	.LBB11_63
.Ltmp345:
.LBB11_57:                              #   in Loop: Header=BB11_36 Depth=1
	#DEBUG_VALUE: i <- [DW_OP_plus_uconst 752] [$rsp+0]
	#DEBUG_VALUE: radiusB <- [DW_OP_plus_uconst 792] [$rsp+0]
	#DEBUG_VALUE: radiusA <- [DW_OP_plus_uconst 796] [$rsp+0]
	#DEBUG_VALUE: angleLimit <- 3.926991e-01
	#DEBUG_VALUE: perturbeA <- 1
	#DEBUG_VALUE: sepDist <- [DW_OP_plus_uconst 812] [$rsp+0]
	#DEBUG_VALUE: processCollision:min1 <- [DW_OP_plus_uconst 1112] [$rsp+0]
	#DEBUG_VALUE: processCollision:min0 <- [DW_OP_plus_uconst 1128] [$rsp+0]
	#DEBUG_VALUE: processCollision:resultOut <- [DW_OP_plus_uconst 1216] [$rsp+0]
	#DEBUG_VALUE: processCollision:dispatchInfo <- [DW_OP_plus_uconst 1224] [$rsp+0]
	#DEBUG_VALUE: processCollision:body1 <- [DW_OP_plus_uconst 1232] [$rsp+0]
	#DEBUG_VALUE: processCollision:body0 <- [DW_OP_plus_uconst 1240] [$rsp+0]
	#DEBUG_VALUE: processCollision:this <- [DW_OP_plus_uconst 1248] [$rsp+0]
	.loc	2 0 5                   # /home/chris/test-suite/MultiSource/Benchmarks/Bullet/btConvexConvexAlgorithm.cpp:0:5
	movq	736(%rsp), %rax         # 8-byte Reload
	movq	720(%rsp), %rcx         # 8-byte Reload
	movq	704(%rsp), %rdx         # 8-byte Reload
	leaq	1256(%rsp), %rsi
	movq	912(%rsp), %rdi         # 8-byte Reload
	.loc	2 442 140 is_stmt 1     # /home/chris/test-suite/MultiSource/Benchmarks/Bullet/btConvexConvexAlgorithm.cpp:442:140
	movq	(%rdi), %r8
.Ltmp141:
	.loc	2 442 29 is_stmt 0      # /home/chris/test-suite/MultiSource/Benchmarks/Bullet/btConvexConvexAlgorithm.cpp:442:29
	movq	%rsp, %r9
	movq	%r8, (%r9)
	movb	791(%rsp), %r10b        # 1-byte Reload
	movzbl	%r10b, %r11d
	andl	$1, %r11d
	leaq	1976(%rsp), %r8
	movq	%rsi, %rdi
	.loc	2 442 4                 # /home/chris/test-suite/MultiSource/Benchmarks/Bullet/btConvexConvexAlgorithm.cpp:442:4
	movq	%rsi, %r9
	movq	1216(%rsp), %rbx        # 8-byte Reload
	movq	%rsi, 200(%rsp)         # 8-byte Spill
	.loc	2 442 29                # /home/chris/test-suite/MultiSource/Benchmarks/Bullet/btConvexConvexAlgorithm.cpp:442:29
	movq	%rbx, %rsi
	movq	928(%rsp), %r14         # 8-byte Reload
	movq	%rdx, 192(%rsp)         # 8-byte Spill
	movq	%r14, %rdx
	movq	920(%rsp), %r15         # 8-byte Reload
	movq	%rcx, 184(%rsp)         # 8-byte Spill
	movq	%r15, %rcx
	movq	%r9, 176(%rsp)          # 8-byte Spill
	movl	%r11d, %r9d
	movq	%rax, 168(%rsp)         # 8-byte Spill
	callq	_ZN24btPerturbedContactResultC2EP16btManifoldResultRK11btTransformS4_S4_bP12btIDebugDraw
.Ltmp346:
.Ltmp142:
	jmp	.LBB11_58
.Ltmp347:
.LBB11_58:                              #   in Loop: Header=BB11_36 Depth=1
	#DEBUG_VALUE: i <- [DW_OP_plus_uconst 752] [$rsp+0]
	#DEBUG_VALUE: radiusB <- [DW_OP_plus_uconst 792] [$rsp+0]
	#DEBUG_VALUE: radiusA <- [DW_OP_plus_uconst 796] [$rsp+0]
	#DEBUG_VALUE: angleLimit <- 3.926991e-01
	#DEBUG_VALUE: perturbeA <- 1
	#DEBUG_VALUE: sepDist <- [DW_OP_plus_uconst 812] [$rsp+0]
	#DEBUG_VALUE: processCollision:min1 <- [DW_OP_plus_uconst 1112] [$rsp+0]
	#DEBUG_VALUE: processCollision:min0 <- [DW_OP_plus_uconst 1128] [$rsp+0]
	#DEBUG_VALUE: processCollision:resultOut <- [DW_OP_plus_uconst 1216] [$rsp+0]
	#DEBUG_VALUE: processCollision:dispatchInfo <- [DW_OP_plus_uconst 1224] [$rsp+0]
	#DEBUG_VALUE: processCollision:body1 <- [DW_OP_plus_uconst 1232] [$rsp+0]
	#DEBUG_VALUE: processCollision:body0 <- [DW_OP_plus_uconst 1240] [$rsp+0]
	#DEBUG_VALUE: processCollision:this <- [DW_OP_plus_uconst 1248] [$rsp+0]
	.loc	2 0 29                  # /home/chris/test-suite/MultiSource/Benchmarks/Bullet/btConvexConvexAlgorithm.cpp:0:29
	movq	736(%rsp), %rax         # 8-byte Reload
	movq	720(%rsp), %rcx         # 8-byte Reload
	movq	704(%rsp), %rdx         # 8-byte Reload
	movq	200(%rsp), %rsi         # 8-byte Reload
	movq	912(%rsp), %rdi         # 8-byte Reload
	.loc	2 443 75 is_stmt 1      # /home/chris/test-suite/MultiSource/Benchmarks/Bullet/btConvexConvexAlgorithm.cpp:443:75
	movq	(%rdi), %r8
.Ltmp144:
	leaq	2096(%rsp), %rdi
	leaq	2192(%rsp), %r9
	leaq	1256(%rsp), %r10
	xorl	%r11d, %r11d
	movq	%rsi, 160(%rsp)         # 8-byte Spill
	.loc	2 443 20 is_stmt 0      # /home/chris/test-suite/MultiSource/Benchmarks/Bullet/btConvexConvexAlgorithm.cpp:443:20
	movq	%r9, %rsi
	movq	%rdx, 152(%rsp)         # 8-byte Spill
	movq	%r10, %rdx
	movq	%rcx, 144(%rsp)         # 8-byte Spill
	movq	%r8, %rcx
	movl	%r11d, %r8d
	movq	%rax, 136(%rsp)         # 8-byte Spill
	callq	_ZN17btGjkPairDetector16getClosestPointsERKN36btDiscreteCollisionDetectorInterface17ClosestPointInputERNS0_6ResultEP12btIDebugDrawb
.Ltmp348:
.Ltmp145:
	jmp	.LBB11_59
.Ltmp349:
.LBB11_59:                              #   in Loop: Header=BB11_36 Depth=1
	#DEBUG_VALUE: i <- [DW_OP_plus_uconst 752] [$rsp+0]
	#DEBUG_VALUE: radiusB <- [DW_OP_plus_uconst 792] [$rsp+0]
	#DEBUG_VALUE: radiusA <- [DW_OP_plus_uconst 796] [$rsp+0]
	#DEBUG_VALUE: angleLimit <- 3.926991e-01
	#DEBUG_VALUE: perturbeA <- 1
	#DEBUG_VALUE: sepDist <- [DW_OP_plus_uconst 812] [$rsp+0]
	#DEBUG_VALUE: processCollision:min1 <- [DW_OP_plus_uconst 1112] [$rsp+0]
	#DEBUG_VALUE: processCollision:min0 <- [DW_OP_plus_uconst 1128] [$rsp+0]
	#DEBUG_VALUE: processCollision:resultOut <- [DW_OP_plus_uconst 1216] [$rsp+0]
	#DEBUG_VALUE: processCollision:dispatchInfo <- [DW_OP_plus_uconst 1224] [$rsp+0]
	#DEBUG_VALUE: processCollision:body1 <- [DW_OP_plus_uconst 1232] [$rsp+0]
	#DEBUG_VALUE: processCollision:body0 <- [DW_OP_plus_uconst 1240] [$rsp+0]
	#DEBUG_VALUE: processCollision:this <- [DW_OP_plus_uconst 1248] [$rsp+0]
	.loc	2 0 20                  # /home/chris/test-suite/MultiSource/Benchmarks/Bullet/btConvexConvexAlgorithm.cpp:0:20
	leaq	1256(%rsp), %rdi
	.loc	2 446 3 is_stmt 1       # /home/chris/test-suite/MultiSource/Benchmarks/Bullet/btConvexConvexAlgorithm.cpp:446:3
	callq	_ZN36btDiscreteCollisionDetectorInterface6ResultD2Ev
.Ltmp350:
	.loc	2 0 3 is_stmt 0         # /home/chris/test-suite/MultiSource/Benchmarks/Bullet/btConvexConvexAlgorithm.cpp:0:3
	movl	752(%rsp), %eax         # 4-byte Reload
	.loc	2 419 44 is_stmt 1      # /home/chris/test-suite/MultiSource/Benchmarks/Bullet/btConvexConvexAlgorithm.cpp:419:44
	addl	$1, %eax
.Ltmp351:
	#DEBUG_VALUE: i <- $eax
	.loc	2 0 44 is_stmt 0        # /home/chris/test-suite/MultiSource/Benchmarks/Bullet/btConvexConvexAlgorithm.cpp:0:44
	movl	%eax, 756(%rsp)         # 4-byte Spill
.Ltmp352:
	#DEBUG_VALUE: i <- [DW_OP_plus_uconst 756] [$rsp+0]
	.loc	2 419 3                 # /home/chris/test-suite/MultiSource/Benchmarks/Bullet/btConvexConvexAlgorithm.cpp:419:3
	jmp	.LBB11_36
.Ltmp353:
.LBB11_60:
	#DEBUG_VALUE: i <- [DW_OP_plus_uconst 752] [$rsp+0]
	#DEBUG_VALUE: radiusB <- [DW_OP_plus_uconst 792] [$rsp+0]
	#DEBUG_VALUE: radiusA <- [DW_OP_plus_uconst 796] [$rsp+0]
	#DEBUG_VALUE: angleLimit <- 3.926991e-01
	#DEBUG_VALUE: perturbeA <- 1
	#DEBUG_VALUE: sepDist <- [DW_OP_plus_uconst 812] [$rsp+0]
	#DEBUG_VALUE: processCollision:min1 <- [DW_OP_plus_uconst 1112] [$rsp+0]
	#DEBUG_VALUE: processCollision:min0 <- [DW_OP_plus_uconst 1128] [$rsp+0]
	#DEBUG_VALUE: processCollision:resultOut <- [DW_OP_plus_uconst 1216] [$rsp+0]
	#DEBUG_VALUE: processCollision:dispatchInfo <- [DW_OP_plus_uconst 1224] [$rsp+0]
	#DEBUG_VALUE: processCollision:body1 <- [DW_OP_plus_uconst 1232] [$rsp+0]
	#DEBUG_VALUE: processCollision:body0 <- [DW_OP_plus_uconst 1240] [$rsp+0]
	#DEBUG_VALUE: processCollision:this <- [DW_OP_plus_uconst 1248] [$rsp+0]
.Ltmp143:
	.loc	2 0 3                   # /home/chris/test-suite/MultiSource/Benchmarks/Bullet/btConvexConvexAlgorithm.cpp:0:3
	movq	168(%rsp), %rcx         # 8-byte Reload
	movq	184(%rsp), %rsi         # 8-byte Reload
	movq	192(%rsp), %rdi         # 8-byte Reload
	movq	176(%rsp), %r8          # 8-byte Reload
                                        # kill: def $edx killed $edx killed $rdx
	movq	%r8, 128(%rsp)          # 8-byte Spill
	movq	%rdi, 120(%rsp)         # 8-byte Spill
	movq	%rsi, 112(%rsp)         # 8-byte Spill
	movq	%rcx, 104(%rsp)         # 8-byte Spill
	movl	%edx, 100(%rsp)         # 4-byte Spill
	movq	%rax, 88(%rsp)          # 8-byte Spill
.Ltmp354:
	.loc	2 466 1 is_stmt 1       # /home/chris/test-suite/MultiSource/Benchmarks/Bullet/btConvexConvexAlgorithm.cpp:466:1
	jmp	.LBB11_62
.Ltmp355:
.LBB11_61:
	#DEBUG_VALUE: i <- [DW_OP_plus_uconst 752] [$rsp+0]
	#DEBUG_VALUE: radiusB <- [DW_OP_plus_uconst 792] [$rsp+0]
	#DEBUG_VALUE: radiusA <- [DW_OP_plus_uconst 796] [$rsp+0]
	#DEBUG_VALUE: angleLimit <- 3.926991e-01
	#DEBUG_VALUE: perturbeA <- 1
	#DEBUG_VALUE: sepDist <- [DW_OP_plus_uconst 812] [$rsp+0]
	#DEBUG_VALUE: processCollision:min1 <- [DW_OP_plus_uconst 1112] [$rsp+0]
	#DEBUG_VALUE: processCollision:min0 <- [DW_OP_plus_uconst 1128] [$rsp+0]
	#DEBUG_VALUE: processCollision:resultOut <- [DW_OP_plus_uconst 1216] [$rsp+0]
	#DEBUG_VALUE: processCollision:dispatchInfo <- [DW_OP_plus_uconst 1224] [$rsp+0]
	#DEBUG_VALUE: processCollision:body1 <- [DW_OP_plus_uconst 1232] [$rsp+0]
	#DEBUG_VALUE: processCollision:body0 <- [DW_OP_plus_uconst 1240] [$rsp+0]
	#DEBUG_VALUE: processCollision:this <- [DW_OP_plus_uconst 1248] [$rsp+0]
.Ltmp146:
	.loc	2 0 1 is_stmt 0         # /home/chris/test-suite/MultiSource/Benchmarks/Bullet/btConvexConvexAlgorithm.cpp:0:1
	movq	136(%rsp), %rcx         # 8-byte Reload
	movq	144(%rsp), %rsi         # 8-byte Reload
	movq	152(%rsp), %rdi         # 8-byte Reload
	movq	160(%rsp), %r8          # 8-byte Reload
	leaq	1256(%rsp), %r9
                                        # kill: def $edx killed $edx killed $rdx
	movq	%rdi, 80(%rsp)          # 8-byte Spill
	.loc	2 446 3 is_stmt 1       # /home/chris/test-suite/MultiSource/Benchmarks/Bullet/btConvexConvexAlgorithm.cpp:446:3
	movq	%r9, %rdi
	movq	%rcx, 72(%rsp)          # 8-byte Spill
	movq	%rsi, 64(%rsp)          # 8-byte Spill
	movq	%r8, 56(%rsp)           # 8-byte Spill
	movl	%edx, 52(%rsp)          # 4-byte Spill
	movq	%rax, 40(%rsp)          # 8-byte Spill
	callq	_ZN36btDiscreteCollisionDetectorInterface6ResultD2Ev
.Ltmp356:
	.loc	2 0 3 is_stmt 0         # /home/chris/test-suite/MultiSource/Benchmarks/Bullet/btConvexConvexAlgorithm.cpp:0:3
	movq	56(%rsp), %rax          # 8-byte Reload
	movq	80(%rsp), %rcx          # 8-byte Reload
	movq	64(%rsp), %rsi          # 8-byte Reload
	movq	72(%rsp), %rdi          # 8-byte Reload
	movl	52(%rsp), %edx          # 4-byte Reload
	movq	40(%rsp), %r8           # 8-byte Reload
	movq	%rax, 128(%rsp)         # 8-byte Spill
	movq	%rcx, 120(%rsp)         # 8-byte Spill
	movq	%rsi, 112(%rsp)         # 8-byte Spill
	movq	%rdi, 104(%rsp)         # 8-byte Spill
	movl	%edx, 100(%rsp)         # 4-byte Spill
	movq	%r8, 88(%rsp)           # 8-byte Spill
.Ltmp357:
.LBB11_62:
	#DEBUG_VALUE: i <- [DW_OP_plus_uconst 752] [$rsp+0]
	#DEBUG_VALUE: radiusB <- [DW_OP_plus_uconst 792] [$rsp+0]
	#DEBUG_VALUE: radiusA <- [DW_OP_plus_uconst 796] [$rsp+0]
	#DEBUG_VALUE: angleLimit <- 3.926991e-01
	#DEBUG_VALUE: perturbeA <- 1
	#DEBUG_VALUE: sepDist <- [DW_OP_plus_uconst 812] [$rsp+0]
	#DEBUG_VALUE: processCollision:min1 <- [DW_OP_plus_uconst 1112] [$rsp+0]
	#DEBUG_VALUE: processCollision:min0 <- [DW_OP_plus_uconst 1128] [$rsp+0]
	#DEBUG_VALUE: processCollision:resultOut <- [DW_OP_plus_uconst 1216] [$rsp+0]
	#DEBUG_VALUE: processCollision:dispatchInfo <- [DW_OP_plus_uconst 1224] [$rsp+0]
	#DEBUG_VALUE: processCollision:body1 <- [DW_OP_plus_uconst 1232] [$rsp+0]
	#DEBUG_VALUE: processCollision:body0 <- [DW_OP_plus_uconst 1240] [$rsp+0]
	#DEBUG_VALUE: processCollision:this <- [DW_OP_plus_uconst 1248] [$rsp+0]
	movq	88(%rsp), %rax          # 8-byte Reload
	movl	100(%rsp), %ecx         # 4-byte Reload
	movq	104(%rsp), %rdx         # 8-byte Reload
	movq	112(%rsp), %rsi         # 8-byte Reload
	movq	120(%rsp), %rdi         # 8-byte Reload
	movq	128(%rsp), %r8          # 8-byte Reload
	movq	%rdi, 448(%rsp)         # 8-byte Spill
	movq	%rsi, 440(%rsp)         # 8-byte Spill
	movq	%rdx, 432(%rsp)         # 8-byte Spill
	movl	%ecx, 428(%rsp)         # 4-byte Spill
	movq	%rax, 416(%rsp)         # 8-byte Spill
.Ltmp358:
.LBB11_63:
	#DEBUG_VALUE: i <- [DW_OP_plus_uconst 752] [$rsp+0]
	#DEBUG_VALUE: radiusB <- [DW_OP_plus_uconst 792] [$rsp+0]
	#DEBUG_VALUE: radiusA <- [DW_OP_plus_uconst 796] [$rsp+0]
	#DEBUG_VALUE: angleLimit <- 3.926991e-01
	#DEBUG_VALUE: perturbeA <- 1
	#DEBUG_VALUE: sepDist <- [DW_OP_plus_uconst 812] [$rsp+0]
	#DEBUG_VALUE: processCollision:min1 <- [DW_OP_plus_uconst 1112] [$rsp+0]
	#DEBUG_VALUE: processCollision:min0 <- [DW_OP_plus_uconst 1128] [$rsp+0]
	#DEBUG_VALUE: processCollision:resultOut <- [DW_OP_plus_uconst 1216] [$rsp+0]
	#DEBUG_VALUE: processCollision:dispatchInfo <- [DW_OP_plus_uconst 1224] [$rsp+0]
	#DEBUG_VALUE: processCollision:body1 <- [DW_OP_plus_uconst 1232] [$rsp+0]
	#DEBUG_VALUE: processCollision:body0 <- [DW_OP_plus_uconst 1240] [$rsp+0]
	#DEBUG_VALUE: processCollision:this <- [DW_OP_plus_uconst 1248] [$rsp+0]
	movq	416(%rsp), %rax         # 8-byte Reload
	movl	428(%rsp), %ecx         # 4-byte Reload
	movq	432(%rsp), %rdx         # 8-byte Reload
	movq	440(%rsp), %rsi         # 8-byte Reload
	movq	448(%rsp), %rdi         # 8-byte Reload
	movq	%rdx, 472(%rsp)         # 8-byte Spill
	movl	%ecx, 468(%rsp)         # 4-byte Spill
	movq	%rax, 456(%rsp)         # 8-byte Spill
.Ltmp359:
.LBB11_64:
	#DEBUG_VALUE: i <- [DW_OP_plus_uconst 752] [$rsp+0]
	#DEBUG_VALUE: radiusB <- [DW_OP_plus_uconst 792] [$rsp+0]
	#DEBUG_VALUE: radiusA <- [DW_OP_plus_uconst 796] [$rsp+0]
	#DEBUG_VALUE: angleLimit <- 3.926991e-01
	#DEBUG_VALUE: perturbeA <- 1
	#DEBUG_VALUE: sepDist <- [DW_OP_plus_uconst 812] [$rsp+0]
	#DEBUG_VALUE: processCollision:min1 <- [DW_OP_plus_uconst 1112] [$rsp+0]
	#DEBUG_VALUE: processCollision:min0 <- [DW_OP_plus_uconst 1128] [$rsp+0]
	#DEBUG_VALUE: processCollision:resultOut <- [DW_OP_plus_uconst 1216] [$rsp+0]
	#DEBUG_VALUE: processCollision:dispatchInfo <- [DW_OP_plus_uconst 1224] [$rsp+0]
	#DEBUG_VALUE: processCollision:body1 <- [DW_OP_plus_uconst 1232] [$rsp+0]
	#DEBUG_VALUE: processCollision:body0 <- [DW_OP_plus_uconst 1240] [$rsp+0]
	#DEBUG_VALUE: processCollision:this <- [DW_OP_plus_uconst 1248] [$rsp+0]
	movq	456(%rsp), %rax         # 8-byte Reload
	movl	468(%rsp), %ecx         # 4-byte Reload
	movq	472(%rsp), %rdx         # 8-byte Reload
	movl	%ecx, 772(%rsp)         # 4-byte Spill
	movq	%rax, 760(%rsp)         # 8-byte Spill
	.loc	2 446 3                 # /home/chris/test-suite/MultiSource/Benchmarks/Bullet/btConvexConvexAlgorithm.cpp:446:3
	jmp	.LBB11_66
.Ltmp360:
.LBB11_65:
	#DEBUG_VALUE: i <- [DW_OP_plus_uconst 752] [$rsp+0]
	#DEBUG_VALUE: radiusB <- [DW_OP_plus_uconst 792] [$rsp+0]
	#DEBUG_VALUE: radiusA <- [DW_OP_plus_uconst 796] [$rsp+0]
	#DEBUG_VALUE: angleLimit <- 3.926991e-01
	#DEBUG_VALUE: perturbeA <- 1
	#DEBUG_VALUE: sepDist <- [DW_OP_plus_uconst 812] [$rsp+0]
	#DEBUG_VALUE: processCollision:min1 <- [DW_OP_plus_uconst 1112] [$rsp+0]
	#DEBUG_VALUE: processCollision:min0 <- [DW_OP_plus_uconst 1128] [$rsp+0]
	#DEBUG_VALUE: processCollision:resultOut <- [DW_OP_plus_uconst 1216] [$rsp+0]
	#DEBUG_VALUE: processCollision:dispatchInfo <- [DW_OP_plus_uconst 1224] [$rsp+0]
	#DEBUG_VALUE: processCollision:body1 <- [DW_OP_plus_uconst 1232] [$rsp+0]
	#DEBUG_VALUE: processCollision:body0 <- [DW_OP_plus_uconst 1240] [$rsp+0]
	#DEBUG_VALUE: processCollision:this <- [DW_OP_plus_uconst 1248] [$rsp+0]
	.loc	2 447 2 is_stmt 1       # /home/chris/test-suite/MultiSource/Benchmarks/Bullet/btConvexConvexAlgorithm.cpp:447:2
	jmp	.LBB11_68
.Ltmp361:
.LBB11_66:
	#DEBUG_VALUE: radiusB <- [DW_OP_plus_uconst 792] [$rsp+0]
	#DEBUG_VALUE: radiusA <- [DW_OP_plus_uconst 796] [$rsp+0]
	#DEBUG_VALUE: angleLimit <- 3.926991e-01
	#DEBUG_VALUE: perturbeA <- 1
	#DEBUG_VALUE: sepDist <- [DW_OP_plus_uconst 812] [$rsp+0]
	#DEBUG_VALUE: processCollision:min1 <- [DW_OP_plus_uconst 1112] [$rsp+0]
	#DEBUG_VALUE: processCollision:min0 <- [DW_OP_plus_uconst 1128] [$rsp+0]
	#DEBUG_VALUE: processCollision:resultOut <- [DW_OP_plus_uconst 1216] [$rsp+0]
	#DEBUG_VALUE: processCollision:dispatchInfo <- [DW_OP_plus_uconst 1224] [$rsp+0]
	#DEBUG_VALUE: processCollision:body1 <- [DW_OP_plus_uconst 1232] [$rsp+0]
	#DEBUG_VALUE: processCollision:body0 <- [DW_OP_plus_uconst 1240] [$rsp+0]
	#DEBUG_VALUE: processCollision:this <- [DW_OP_plus_uconst 1248] [$rsp+0]
	.loc	2 0 2 is_stmt 0         # /home/chris/test-suite/MultiSource/Benchmarks/Bullet/btConvexConvexAlgorithm.cpp:0:2
	movq	760(%rsp), %rax         # 8-byte Reload
	movl	772(%rsp), %ecx         # 4-byte Reload
	movl	%ecx, 784(%rsp)         # 4-byte Spill
	movq	%rax, 776(%rsp)         # 8-byte Spill
.Ltmp362:
.LBB11_67:
	#DEBUG_VALUE: sepDist <- [DW_OP_plus_uconst 812] [$rsp+0]
	#DEBUG_VALUE: processCollision:min1 <- [DW_OP_plus_uconst 1112] [$rsp+0]
	#DEBUG_VALUE: processCollision:min0 <- [DW_OP_plus_uconst 1128] [$rsp+0]
	#DEBUG_VALUE: processCollision:resultOut <- [DW_OP_plus_uconst 1216] [$rsp+0]
	#DEBUG_VALUE: processCollision:dispatchInfo <- [DW_OP_plus_uconst 1224] [$rsp+0]
	#DEBUG_VALUE: processCollision:body1 <- [DW_OP_plus_uconst 1232] [$rsp+0]
	#DEBUG_VALUE: processCollision:body0 <- [DW_OP_plus_uconst 1240] [$rsp+0]
	#DEBUG_VALUE: processCollision:this <- [DW_OP_plus_uconst 1248] [$rsp+0]
	movq	776(%rsp), %rax         # 8-byte Reload
	movl	784(%rsp), %ecx         # 4-byte Reload
	movl	%ecx, 824(%rsp)         # 4-byte Spill
	movq	%rax, 816(%rsp)         # 8-byte Spill
	.loc	2 447 2                 # /home/chris/test-suite/MultiSource/Benchmarks/Bullet/btConvexConvexAlgorithm.cpp:447:2
	jmp	.LBB11_71
.Ltmp363:
.LBB11_68:
	#DEBUG_VALUE: sepDist <- [DW_OP_plus_uconst 812] [$rsp+0]
	#DEBUG_VALUE: processCollision:min1 <- [DW_OP_plus_uconst 1112] [$rsp+0]
	#DEBUG_VALUE: processCollision:min0 <- [DW_OP_plus_uconst 1128] [$rsp+0]
	#DEBUG_VALUE: processCollision:resultOut <- [DW_OP_plus_uconst 1216] [$rsp+0]
	#DEBUG_VALUE: processCollision:dispatchInfo <- [DW_OP_plus_uconst 1224] [$rsp+0]
	#DEBUG_VALUE: processCollision:body1 <- [DW_OP_plus_uconst 1232] [$rsp+0]
	#DEBUG_VALUE: processCollision:body0 <- [DW_OP_plus_uconst 1240] [$rsp+0]
	#DEBUG_VALUE: processCollision:this <- [DW_OP_plus_uconst 1248] [$rsp+0]
	.loc	2 0 2                   # /home/chris/test-suite/MultiSource/Benchmarks/Bullet/btConvexConvexAlgorithm.cpp:0:2
	movss	.LCPI11_1(%rip), %xmm0  # xmm0 = mem[0],zero,zero,zero
	movq	984(%rsp), %rax         # 8-byte Reload
.Ltmp364:
	.loc	2 452 19 is_stmt 1      # /home/chris/test-suite/MultiSource/Benchmarks/Bullet/btConvexConvexAlgorithm.cpp:452:19
	cmpb	$0, (%rax)
	setne	%cl
	movss	812(%rsp), %xmm1        # 4-byte Reload
                                        # xmm1 = mem[0],zero,zero,zero
	.loc	2 452 66 is_stmt 0      # /home/chris/test-suite/MultiSource/Benchmarks/Bullet/btConvexConvexAlgorithm.cpp:452:66
	ucomiss	%xmm0, %xmm1
	seta	%dl
	.loc	2 452 55                # /home/chris/test-suite/MultiSource/Benchmarks/Bullet/btConvexConvexAlgorithm.cpp:452:55
	andb	%dl, %cl
	testb	$1, %cl
	jne	.LBB11_69
	jmp	.LBB11_70
.Ltmp365:
.LBB11_69:
	#DEBUG_VALUE: sepDist <- [DW_OP_plus_uconst 812] [$rsp+0]
	#DEBUG_VALUE: processCollision:min1 <- [DW_OP_plus_uconst 1112] [$rsp+0]
	#DEBUG_VALUE: processCollision:min0 <- [DW_OP_plus_uconst 1128] [$rsp+0]
	#DEBUG_VALUE: processCollision:resultOut <- [DW_OP_plus_uconst 1216] [$rsp+0]
	#DEBUG_VALUE: processCollision:dispatchInfo <- [DW_OP_plus_uconst 1224] [$rsp+0]
	#DEBUG_VALUE: processCollision:body1 <- [DW_OP_plus_uconst 1232] [$rsp+0]
	#DEBUG_VALUE: processCollision:body0 <- [DW_OP_plus_uconst 1240] [$rsp+0]
	#DEBUG_VALUE: processCollision:this <- [DW_OP_plus_uconst 1248] [$rsp+0]
	.loc	2 0 55                  # /home/chris/test-suite/MultiSource/Benchmarks/Bullet/btConvexConvexAlgorithm.cpp:0:55
	leaq	2096(%rsp), %rdi
.Ltmp366:
	.loc	2 454 56 is_stmt 1      # /home/chris/test-suite/MultiSource/Benchmarks/Bullet/btConvexConvexAlgorithm.cpp:454:56
	callq	_ZNK17btGjkPairDetector23getCachedSeparatingAxisEv
.Ltmp367:
	.loc	2 0 56 is_stmt 0        # /home/chris/test-suite/MultiSource/Benchmarks/Bullet/btConvexConvexAlgorithm.cpp:0:56
	movq	1240(%rsp), %rdi        # 8-byte Reload
	movq	%rax, 32(%rsp)          # 8-byte Spill
	.loc	2 454 97                # /home/chris/test-suite/MultiSource/Benchmarks/Bullet/btConvexConvexAlgorithm.cpp:454:97
	callq	_ZN17btCollisionObject17getWorldTransformEv
.Ltmp368:
	.loc	2 0 97                  # /home/chris/test-suite/MultiSource/Benchmarks/Bullet/btConvexConvexAlgorithm.cpp:0:97
	movq	1232(%rsp), %rdi        # 8-byte Reload
	movq	%rax, 24(%rsp)          # 8-byte Spill
	.loc	2 454 124               # /home/chris/test-suite/MultiSource/Benchmarks/Bullet/btConvexConvexAlgorithm.cpp:454:124
	callq	_ZN17btCollisionObject17getWorldTransformEv
.Ltmp369:
.Ltmp106:
	.loc	2 0 124                 # /home/chris/test-suite/MultiSource/Benchmarks/Bullet/btConvexConvexAlgorithm.cpp:0:124
	movq	1000(%rsp), %rdi        # 8-byte Reload
	movq	32(%rsp), %rsi          # 8-byte Reload
	movss	812(%rsp), %xmm0        # 4-byte Reload
                                        # xmm0 = mem[0],zero,zero,zero
	movq	24(%rsp), %rdx          # 8-byte Reload
	.loc	2 454 17                # /home/chris/test-suite/MultiSource/Benchmarks/Bullet/btConvexConvexAlgorithm.cpp:454:17
	movq	%rax, %rcx
	callq	_ZN30btConvexSeparatingDistanceUtil22initSeparatingDistanceERK9btVector3fRK11btTransformS5_
.Ltmp370:
.Ltmp107:
	jmp	.LBB11_70
.Ltmp371:
.LBB11_70:
	#DEBUG_VALUE: sepDist <- [DW_OP_plus_uconst 812] [$rsp+0]
	#DEBUG_VALUE: processCollision:min1 <- [DW_OP_plus_uconst 1112] [$rsp+0]
	#DEBUG_VALUE: processCollision:min0 <- [DW_OP_plus_uconst 1128] [$rsp+0]
	#DEBUG_VALUE: processCollision:resultOut <- [DW_OP_plus_uconst 1216] [$rsp+0]
	#DEBUG_VALUE: processCollision:dispatchInfo <- [DW_OP_plus_uconst 1224] [$rsp+0]
	#DEBUG_VALUE: processCollision:body1 <- [DW_OP_plus_uconst 1232] [$rsp+0]
	#DEBUG_VALUE: processCollision:body0 <- [DW_OP_plus_uconst 1240] [$rsp+0]
	#DEBUG_VALUE: processCollision:this <- [DW_OP_plus_uconst 1248] [$rsp+0]
	.loc	2 0 17                  # /home/chris/test-suite/MultiSource/Benchmarks/Bullet/btConvexConvexAlgorithm.cpp:0:17
	leaq	2096(%rsp), %rdi
	.loc	2 459 2 is_stmt 1       # /home/chris/test-suite/MultiSource/Benchmarks/Bullet/btConvexConvexAlgorithm.cpp:459:2
	callq	_ZN36btDiscreteCollisionDetectorInterfaceD2Ev
.Ltmp372:
	.loc	2 459 2 is_stmt 0       # /home/chris/test-suite/MultiSource/Benchmarks/Bullet/btConvexConvexAlgorithm.cpp:459:2
	jmp	.LBB11_73
.Ltmp373:
.LBB11_71:
	#DEBUG_VALUE: processCollision:min1 <- [DW_OP_plus_uconst 1112] [$rsp+0]
	#DEBUG_VALUE: processCollision:min0 <- [DW_OP_plus_uconst 1128] [$rsp+0]
	#DEBUG_VALUE: processCollision:resultOut <- [DW_OP_plus_uconst 1216] [$rsp+0]
	#DEBUG_VALUE: processCollision:dispatchInfo <- [DW_OP_plus_uconst 1224] [$rsp+0]
	#DEBUG_VALUE: processCollision:body1 <- [DW_OP_plus_uconst 1232] [$rsp+0]
	#DEBUG_VALUE: processCollision:body0 <- [DW_OP_plus_uconst 1240] [$rsp+0]
	#DEBUG_VALUE: processCollision:this <- [DW_OP_plus_uconst 1248] [$rsp+0]
	.loc	2 0 2                   # /home/chris/test-suite/MultiSource/Benchmarks/Bullet/btConvexConvexAlgorithm.cpp:0:2
	movq	816(%rsp), %rax         # 8-byte Reload
	movl	824(%rsp), %ecx         # 4-byte Reload
	movq	%rax, 952(%rsp)         # 8-byte Spill
.Ltmp374:
.LBB11_72:
	#DEBUG_VALUE: processCollision:min1 <- [DW_OP_plus_uconst 1112] [$rsp+0]
	#DEBUG_VALUE: processCollision:min0 <- [DW_OP_plus_uconst 1128] [$rsp+0]
	#DEBUG_VALUE: processCollision:resultOut <- [DW_OP_plus_uconst 1216] [$rsp+0]
	#DEBUG_VALUE: processCollision:dispatchInfo <- [DW_OP_plus_uconst 1224] [$rsp+0]
	#DEBUG_VALUE: processCollision:body1 <- [DW_OP_plus_uconst 1232] [$rsp+0]
	#DEBUG_VALUE: processCollision:body0 <- [DW_OP_plus_uconst 1240] [$rsp+0]
	#DEBUG_VALUE: processCollision:this <- [DW_OP_plus_uconst 1248] [$rsp+0]
	movq	952(%rsp), %rax         # 8-byte Reload
	leaq	2096(%rsp), %rdi
	movq	%rax, 16(%rsp)          # 8-byte Spill
	.loc	2 459 2                 # /home/chris/test-suite/MultiSource/Benchmarks/Bullet/btConvexConvexAlgorithm.cpp:459:2
	callq	_ZN36btDiscreteCollisionDetectorInterfaceD2Ev
.Ltmp375:
	.loc	2 0 2                   # /home/chris/test-suite/MultiSource/Benchmarks/Bullet/btConvexConvexAlgorithm.cpp:0:2
	movq	16(%rsp), %rdi          # 8-byte Reload
	callq	_Unwind_Resume
.Ltmp376:
.LBB11_73:
	#DEBUG_VALUE: processCollision:min1 <- [DW_OP_plus_uconst 1112] [$rsp+0]
	#DEBUG_VALUE: processCollision:min0 <- [DW_OP_plus_uconst 1128] [$rsp+0]
	#DEBUG_VALUE: processCollision:resultOut <- [DW_OP_plus_uconst 1216] [$rsp+0]
	#DEBUG_VALUE: processCollision:dispatchInfo <- [DW_OP_plus_uconst 1224] [$rsp+0]
	#DEBUG_VALUE: processCollision:body1 <- [DW_OP_plus_uconst 1232] [$rsp+0]
	#DEBUG_VALUE: processCollision:body0 <- [DW_OP_plus_uconst 1240] [$rsp+0]
	#DEBUG_VALUE: processCollision:this <- [DW_OP_plus_uconst 1248] [$rsp+0]
	movq	1248(%rsp), %rax        # 8-byte Reload
.Ltmp377:
	.loc	2 461 6 is_stmt 1       # /home/chris/test-suite/MultiSource/Benchmarks/Bullet/btConvexConvexAlgorithm.cpp:461:6
	cmpb	$0, 128(%rax)
.Ltmp378:
	.loc	2 461 6 is_stmt 0       # /home/chris/test-suite/MultiSource/Benchmarks/Bullet/btConvexConvexAlgorithm.cpp:461:6
	je	.LBB11_75
.Ltmp379:
# %bb.74:
	#DEBUG_VALUE: processCollision:min1 <- [DW_OP_plus_uconst 1112] [$rsp+0]
	#DEBUG_VALUE: processCollision:min0 <- [DW_OP_plus_uconst 1128] [$rsp+0]
	#DEBUG_VALUE: processCollision:resultOut <- [DW_OP_plus_uconst 1216] [$rsp+0]
	#DEBUG_VALUE: processCollision:dispatchInfo <- [DW_OP_plus_uconst 1224] [$rsp+0]
	#DEBUG_VALUE: processCollision:body1 <- [DW_OP_plus_uconst 1232] [$rsp+0]
	#DEBUG_VALUE: processCollision:body0 <- [DW_OP_plus_uconst 1240] [$rsp+0]
	#DEBUG_VALUE: processCollision:this <- [DW_OP_plus_uconst 1248] [$rsp+0]
	.loc	2 0 6                   # /home/chris/test-suite/MultiSource/Benchmarks/Bullet/btConvexConvexAlgorithm.cpp:0:6
	movq	1216(%rsp), %rdi        # 8-byte Reload
.Ltmp380:
	.loc	2 463 14 is_stmt 1      # /home/chris/test-suite/MultiSource/Benchmarks/Bullet/btConvexConvexAlgorithm.cpp:463:14
	callq	_ZN16btManifoldResult20refreshContactPointsEv
.Ltmp381:
.LBB11_75:
	#DEBUG_VALUE: processCollision:min1 <- [DW_OP_plus_uconst 1112] [$rsp+0]
	#DEBUG_VALUE: processCollision:min0 <- [DW_OP_plus_uconst 1128] [$rsp+0]
	#DEBUG_VALUE: processCollision:resultOut <- [DW_OP_plus_uconst 1216] [$rsp+0]
	#DEBUG_VALUE: processCollision:dispatchInfo <- [DW_OP_plus_uconst 1224] [$rsp+0]
	#DEBUG_VALUE: processCollision:body1 <- [DW_OP_plus_uconst 1232] [$rsp+0]
	#DEBUG_VALUE: processCollision:body0 <- [DW_OP_plus_uconst 1240] [$rsp+0]
	#DEBUG_VALUE: processCollision:this <- [DW_OP_plus_uconst 1248] [$rsp+0]
	.loc	2 466 1                 # /home/chris/test-suite/MultiSource/Benchmarks/Bullet/btConvexConvexAlgorithm.cpp:466:1
	addq	$2368, %rsp             # imm = 0x940
	.cfi_def_cfa_offset 48
	popq	%rbx
	.cfi_def_cfa_offset 40
	popq	%r12
	.cfi_def_cfa_offset 32
	popq	%r13
	.cfi_def_cfa_offset 24
	popq	%r14
	.cfi_def_cfa_offset 16
	popq	%r15
	.cfi_def_cfa_offset 8
	retq
.Ltmp382:
.Lfunc_end11:
	.size	_ZN23btConvexConvexAlgorithm16processCollisionEP17btCollisionObjectS1_RK16btDispatcherInfoP16btManifoldResult, .Lfunc_end11-_ZN23btConvexConvexAlgorithm16processCollisionEP17btCollisionObjectS1_RK16btDispatcherInfoP16btManifoldResult
	.cfi_endproc
	.file	33 "/home/chris/test-suite/MultiSource/Benchmarks/Bullet/include/BulletCollision/CollisionDispatch/btManifoldResult.h"
	.file	34 "/home/chris/test-suite/MultiSource/Benchmarks/Bullet/include/BulletCollision/CollisionShapes/btCollisionShape.h"
	.file	35 "/home/chris/test-suite/MultiSource/Benchmarks/Bullet/include/BulletCollision/CollisionShapes/btCapsuleShape.h"
	.file	36 "/home/chris/test-suite/MultiSource/Benchmarks/Bullet/include/BulletCollision/NarrowPhaseCollision/btDiscreteCollisionDetectorInterface.h"
	.file	37 "/home/chris/test-suite/MultiSource/Benchmarks/Bullet/include/BulletCollision/NarrowPhaseCollision/btGjkPairDetector.h"
	.section	.gcc_except_table,"a",@progbits
	.p2align	2
GCC_except_table11:
.Lexception2:
	.byte	255                     # @LPStart Encoding = omit
	.byte	255                     # @TType Encoding = omit
	.byte	1                       # Call site Encoding = uleb128
	.uleb128 .Lcst_end2-.Lcst_begin2
.Lcst_begin2:
	.uleb128 .Lfunc_begin11-.Lfunc_begin11 # >> Call Site 1 <<
	.uleb128 .Ltmp75-.Lfunc_begin11 #   Call between .Lfunc_begin11 and .Ltmp75
	.byte	0                       #     has no landing pad
	.byte	0                       #   On action: cleanup
	.uleb128 .Ltmp75-.Lfunc_begin11 # >> Call Site 2 <<
	.uleb128 .Ltmp86-.Ltmp75        #   Call between .Ltmp75 and .Ltmp86
	.uleb128 .Ltmp87-.Lfunc_begin11 #     jumps to .Ltmp87
	.byte	0                       #   On action: cleanup
	.uleb128 .Ltmp88-.Lfunc_begin11 # >> Call Site 3 <<
	.uleb128 .Ltmp89-.Ltmp88        #   Call between .Ltmp88 and .Ltmp89
	.uleb128 .Ltmp90-.Lfunc_begin11 #     jumps to .Ltmp90
	.byte	0                       #   On action: cleanup
	.uleb128 .Ltmp91-.Lfunc_begin11 # >> Call Site 4 <<
	.uleb128 .Ltmp92-.Ltmp91        #   Call between .Ltmp91 and .Ltmp92
	.uleb128 .Ltmp108-.Lfunc_begin11 #     jumps to .Ltmp108
	.byte	0                       #   On action: cleanup
	.uleb128 .Ltmp93-.Lfunc_begin11 # >> Call Site 5 <<
	.uleb128 .Ltmp94-.Ltmp93        #   Call between .Ltmp93 and .Ltmp94
	.uleb128 .Ltmp95-.Lfunc_begin11 #     jumps to .Ltmp95
	.byte	0                       #   On action: cleanup
	.uleb128 .Ltmp96-.Lfunc_begin11 # >> Call Site 6 <<
	.uleb128 .Ltmp97-.Ltmp96        #   Call between .Ltmp96 and .Ltmp97
	.uleb128 .Ltmp98-.Lfunc_begin11 #     jumps to .Ltmp98
	.byte	0                       #   On action: cleanup
	.uleb128 .Ltmp99-.Lfunc_begin11 # >> Call Site 7 <<
	.uleb128 .Ltmp102-.Ltmp99       #   Call between .Ltmp99 and .Ltmp102
	.uleb128 .Ltmp105-.Lfunc_begin11 #     jumps to .Ltmp105
	.byte	0                       #   On action: cleanup
	.uleb128 .Ltmp109-.Lfunc_begin11 # >> Call Site 8 <<
	.uleb128 .Ltmp110-.Ltmp109      #   Call between .Ltmp109 and .Ltmp110
	.uleb128 .Ltmp111-.Lfunc_begin11 #     jumps to .Ltmp111
	.byte	0                       #   On action: cleanup
	.uleb128 .Ltmp112-.Lfunc_begin11 # >> Call Site 9 <<
	.uleb128 .Ltmp113-.Ltmp112      #   Call between .Ltmp112 and .Ltmp113
	.uleb128 .Ltmp140-.Lfunc_begin11 #     jumps to .Ltmp140
	.byte	0                       #   On action: cleanup
	.uleb128 .Ltmp127-.Lfunc_begin11 # >> Call Site 10 <<
	.uleb128 .Ltmp136-.Ltmp127      #   Call between .Ltmp127 and .Ltmp136
	.uleb128 .Ltmp137-.Lfunc_begin11 #     jumps to .Ltmp137
	.byte	0                       #   On action: cleanup
	.uleb128 .Ltmp138-.Lfunc_begin11 # >> Call Site 11 <<
	.uleb128 .Ltmp115-.Ltmp138      #   Call between .Ltmp138 and .Ltmp115
	.uleb128 .Ltmp140-.Lfunc_begin11 #     jumps to .Ltmp140
	.byte	0                       #   On action: cleanup
	.uleb128 .Ltmp116-.Lfunc_begin11 # >> Call Site 12 <<
	.uleb128 .Ltmp125-.Ltmp116      #   Call between .Ltmp116 and .Ltmp125
	.uleb128 .Ltmp126-.Lfunc_begin11 #     jumps to .Ltmp126
	.byte	0                       #   On action: cleanup
	.uleb128 .Ltmp141-.Lfunc_begin11 # >> Call Site 13 <<
	.uleb128 .Ltmp142-.Ltmp141      #   Call between .Ltmp141 and .Ltmp142
	.uleb128 .Ltmp143-.Lfunc_begin11 #     jumps to .Ltmp143
	.byte	0                       #   On action: cleanup
	.uleb128 .Ltmp144-.Lfunc_begin11 # >> Call Site 14 <<
	.uleb128 .Ltmp145-.Ltmp144      #   Call between .Ltmp144 and .Ltmp145
	.uleb128 .Ltmp146-.Lfunc_begin11 #     jumps to .Ltmp146
	.byte	0                       #   On action: cleanup
	.uleb128 .Ltmp106-.Lfunc_begin11 # >> Call Site 15 <<
	.uleb128 .Ltmp107-.Ltmp106      #   Call between .Ltmp106 and .Ltmp107
	.uleb128 .Ltmp108-.Lfunc_begin11 #     jumps to .Ltmp108
	.byte	0                       #   On action: cleanup
	.uleb128 .Ltmp107-.Lfunc_begin11 # >> Call Site 16 <<
	.uleb128 .Lfunc_end11-.Ltmp107  #   Call between .Ltmp107 and .Lfunc_end11
	.byte	0                       #     has no landing pad
	.byte	0                       #   On action: cleanup
.Lcst_end2:
	.p2align	2
                                        # -- End function
	.section	.text._ZN16btManifoldResult21setPersistentManifoldEP20btPersistentManifold,"axG",@progbits,_ZN16btManifoldResult21setPersistentManifoldEP20btPersistentManifold,comdat
	.weak	_ZN16btManifoldResult21setPersistentManifoldEP20btPersistentManifold # -- Begin function _ZN16btManifoldResult21setPersistentManifoldEP20btPersistentManifold
	.p2align	4, 0x90
	.type	_ZN16btManifoldResult21setPersistentManifoldEP20btPersistentManifold,@function
_ZN16btManifoldResult21setPersistentManifoldEP20btPersistentManifold: # @_ZN16btManifoldResult21setPersistentManifoldEP20btPersistentManifold
.Lfunc_begin12:
	.loc	33 69 0                 # /home/chris/test-suite/MultiSource/Benchmarks/Bullet/include/BulletCollision/CollisionDispatch/btManifoldResult.h:69:0
	.cfi_startproc
# %bb.0:
	#DEBUG_VALUE: setPersistentManifold:this <- $rdi
	#DEBUG_VALUE: setPersistentManifold:manifoldPtr <- $rsi
	.loc	33 70 17 prologue_end   # /home/chris/test-suite/MultiSource/Benchmarks/Bullet/include/BulletCollision/CollisionDispatch/btManifoldResult.h:70:17
	movq	%rsi, 8(%rdi)
	.loc	33 71 2                 # /home/chris/test-suite/MultiSource/Benchmarks/Bullet/include/BulletCollision/CollisionDispatch/btManifoldResult.h:71:2
	retq
.Ltmp383:
.Lfunc_end12:
	.size	_ZN16btManifoldResult21setPersistentManifoldEP20btPersistentManifold, .Lfunc_end12-_ZN16btManifoldResult21setPersistentManifoldEP20btPersistentManifold
	.cfi_endproc
                                        # -- End function
	.section	.text._ZN9btVector3C2Ev,"axG",@progbits,_ZN9btVector3C2Ev,comdat
	.weak	_ZN9btVector3C2Ev       # -- Begin function _ZN9btVector3C2Ev
	.p2align	4, 0x90
	.type	_ZN9btVector3C2Ev,@function
_ZN9btVector3C2Ev:                      # @_ZN9btVector3C2Ev
.Lfunc_begin13:
	.loc	5 63 0                  # /home/chris/test-suite/MultiSource/Benchmarks/Bullet/include/LinearMath/btVector3.h:63:0
	.cfi_startproc
# %bb.0:
	#DEBUG_VALUE: btVector3:this <- $rdi
	.loc	5 63 33 prologue_end    # /home/chris/test-suite/MultiSource/Benchmarks/Bullet/include/LinearMath/btVector3.h:63:33
	retq
.Ltmp384:
.Lfunc_end13:
	.size	_ZN9btVector3C2Ev, .Lfunc_end13-_ZN9btVector3C2Ev
	.cfi_endproc
                                        # -- End function
	.section	.text._ZNK16btCollisionShape12getShapeTypeEv,"axG",@progbits,_ZNK16btCollisionShape12getShapeTypeEv,comdat
	.weak	_ZNK16btCollisionShape12getShapeTypeEv # -- Begin function _ZNK16btCollisionShape12getShapeTypeEv
	.p2align	4, 0x90
	.type	_ZNK16btCollisionShape12getShapeTypeEv,@function
_ZNK16btCollisionShape12getShapeTypeEv: # @_ZNK16btCollisionShape12getShapeTypeEv
.Lfunc_begin14:
	.loc	34 98 0                 # /home/chris/test-suite/MultiSource/Benchmarks/Bullet/include/BulletCollision/CollisionShapes/btCollisionShape.h:98:0
	.cfi_startproc
# %bb.0:
	#DEBUG_VALUE: getShapeType:this <- $rdi
	.loc	34 98 37 prologue_end   # /home/chris/test-suite/MultiSource/Benchmarks/Bullet/include/BulletCollision/CollisionShapes/btCollisionShape.h:98:37
	movl	8(%rdi), %eax
	.loc	34 98 30 is_stmt 0      # /home/chris/test-suite/MultiSource/Benchmarks/Bullet/include/BulletCollision/CollisionShapes/btCollisionShape.h:98:30
	retq
.Ltmp385:
.Lfunc_end14:
	.size	_ZNK16btCollisionShape12getShapeTypeEv, .Lfunc_end14-_ZNK16btCollisionShape12getShapeTypeEv
	.cfi_endproc
                                        # -- End function
	.section	.rodata.cst4,"aM",@progbits,4
	.p2align	2               # -- Begin function _ZL22capsuleCapsuleDistanceR9btVector3S0_ffffiiRK11btTransformS3_f
.LCPI15_0:
	.long	679477248               # float 1.42108547E-14
.LCPI15_1:
	.long	3212836864              # float -1
	.text
	.p2align	4, 0x90
	.type	_ZL22capsuleCapsuleDistanceR9btVector3S0_ffffiiRK11btTransformS3_f,@function
_ZL22capsuleCapsuleDistanceR9btVector3S0_ffffiiRK11btTransformS3_f: # @_ZL22capsuleCapsuleDistanceR9btVector3S0_ffffiiRK11btTransformS3_f
.Lfunc_begin15:
	.loc	2 126 0 is_stmt 1       # /home/chris/test-suite/MultiSource/Benchmarks/Bullet/btConvexConvexAlgorithm.cpp:126:0
	.cfi_startproc
# %bb.0:
	#DEBUG_VALUE: capsuleCapsuleDistance:capsuleRadiusB <- $xmm3
	#DEBUG_VALUE: capsuleCapsuleDistance:transformA <- $r8
	#DEBUG_VALUE: capsuleCapsuleDistance:capsuleAxisA <- $edx
	#DEBUG_VALUE: capsuleCapsuleDistance:transformB <- $r9
	#DEBUG_VALUE: capsuleCapsuleDistance:capsuleAxisB <- $ecx
	#DEBUG_VALUE: capsuleCapsuleDistance:transformB <- $r9
	#DEBUG_VALUE: capsuleCapsuleDistance:transformA <- $r8
	#DEBUG_VALUE: capsuleCapsuleDistance:capsuleAxisB <- $ecx
	#DEBUG_VALUE: capsuleCapsuleDistance:capsuleAxisA <- $edx
	#DEBUG_VALUE: capsuleCapsuleDistance:capsuleRadiusB <- $xmm3
	pushq	%r14
	.cfi_def_cfa_offset 16
	pushq	%rbx
	.cfi_def_cfa_offset 24
	subq	$392, %rsp              # imm = 0x188
	.cfi_def_cfa_offset 416
	.cfi_offset %rbx, -24
	.cfi_offset %r14, -16
	leaq	368(%rsp), %rax
	leaq	336(%rsp), %r10
	leaq	304(%rsp), %r11
	leaq	208(%rsp), %rbx
	leaq	192(%rsp), %r14
	movss	%xmm3, 388(%rsp)
	movq	%rdi, 184(%rsp)         # 8-byte Spill
.Ltmp386:
	.loc	2 127 36 prologue_end   # /home/chris/test-suite/MultiSource/Benchmarks/Bullet/btConvexConvexAlgorithm.cpp:127:36
	movq	%r8, %rdi
	movss	%xmm4, 180(%rsp)        # 4-byte Spill
	movq	%r9, 168(%rsp)          # 8-byte Spill
.Ltmp387:
	#DEBUG_VALUE: capsuleCapsuleDistance:transformB <- [DW_OP_plus_uconst 168] [$rsp+0]
	#DEBUG_VALUE: capsuleCapsuleDistance:transformB <- [DW_OP_plus_uconst 168] [$rsp+0]
	.loc	2 0 36 is_stmt 0        # /home/chris/test-suite/MultiSource/Benchmarks/Bullet/btConvexConvexAlgorithm.cpp:0:36
	movq	%r8, 160(%rsp)          # 8-byte Spill
.Ltmp388:
	#DEBUG_VALUE: capsuleCapsuleDistance:transformA <- [DW_OP_plus_uconst 160] [$rsp+0]
	#DEBUG_VALUE: capsuleCapsuleDistance:transformA <- [DW_OP_plus_uconst 160] [$rsp+0]
	movl	%ecx, 156(%rsp)         # 4-byte Spill
.Ltmp389:
	#DEBUG_VALUE: capsuleCapsuleDistance:capsuleAxisB <- [DW_OP_plus_uconst 156] [$rsp+0]
	#DEBUG_VALUE: capsuleCapsuleDistance:capsuleAxisB <- [DW_OP_plus_uconst 156] [$rsp+0]
	movl	%edx, 152(%rsp)         # 4-byte Spill
.Ltmp390:
	#DEBUG_VALUE: capsuleCapsuleDistance:capsuleAxisA <- [DW_OP_plus_uconst 152] [$rsp+0]
	#DEBUG_VALUE: capsuleCapsuleDistance:capsuleAxisA <- [DW_OP_plus_uconst 152] [$rsp+0]
	movss	%xmm2, 148(%rsp)        # 4-byte Spill
	movss	%xmm1, 144(%rsp)        # 4-byte Spill
	movss	%xmm0, 140(%rsp)        # 4-byte Spill
	movq	%rsi, 128(%rsp)         # 8-byte Spill
	movq	%rax, 120(%rsp)         # 8-byte Spill
	movq	%r10, 112(%rsp)         # 8-byte Spill
	movq	%r11, 104(%rsp)         # 8-byte Spill
	movq	%rbx, 96(%rsp)          # 8-byte Spill
	movq	%r14, 88(%rsp)          # 8-byte Spill
	.loc	2 127 36                # /home/chris/test-suite/MultiSource/Benchmarks/Bullet/btConvexConvexAlgorithm.cpp:127:36
	callq	_ZNK11btTransform8getBasisEv
.Ltmp391:
	.loc	2 127 47                # /home/chris/test-suite/MultiSource/Benchmarks/Bullet/btConvexConvexAlgorithm.cpp:127:47
	movq	%rax, %rdi
	movl	152(%rsp), %esi         # 4-byte Reload
.Ltmp392:
	#DEBUG_VALUE: capsuleCapsuleDistance:capsuleAxisA <- $esi
	callq	_ZNK11btMatrix3x39getColumnEi
.Ltmp393:
	movlpd	%xmm0, 368(%rsp)
	movlpd	%xmm1, 376(%rsp)
	leaq	352(%rsp), %rsi
	movq	160(%rsp), %rdi         # 8-byte Reload
	movq	%rsi, 80(%rsp)          # 8-byte Spill
	.loc	2 128 38 is_stmt 1      # /home/chris/test-suite/MultiSource/Benchmarks/Bullet/btConvexConvexAlgorithm.cpp:128:38
	callq	_ZNK11btTransform9getOriginEv
.Ltmp394:
	.loc	2 128 27 is_stmt 0      # /home/chris/test-suite/MultiSource/Benchmarks/Bullet/btConvexConvexAlgorithm.cpp:128:27
	movups	(%rax), %xmm0
	movaps	%xmm0, 352(%rsp)
	movq	168(%rsp), %rdi         # 8-byte Reload
	.loc	2 129 36 is_stmt 1      # /home/chris/test-suite/MultiSource/Benchmarks/Bullet/btConvexConvexAlgorithm.cpp:129:36
	callq	_ZNK11btTransform8getBasisEv
.Ltmp395:
	.loc	2 129 47 is_stmt 0      # /home/chris/test-suite/MultiSource/Benchmarks/Bullet/btConvexConvexAlgorithm.cpp:129:47
	movq	%rax, %rdi
	movl	156(%rsp), %esi         # 4-byte Reload
.Ltmp396:
	#DEBUG_VALUE: capsuleCapsuleDistance:capsuleAxisB <- $esi
	callq	_ZNK11btMatrix3x39getColumnEi
.Ltmp397:
	movlpd	%xmm0, 336(%rsp)
	movlpd	%xmm1, 344(%rsp)
	leaq	320(%rsp), %rdi
	movq	168(%rsp), %rax         # 8-byte Reload
	movq	%rdi, 72(%rsp)          # 8-byte Spill
	.loc	2 130 38 is_stmt 1      # /home/chris/test-suite/MultiSource/Benchmarks/Bullet/btConvexConvexAlgorithm.cpp:130:38
	movq	%rax, %rdi
	callq	_ZNK11btTransform9getOriginEv
.Ltmp398:
	.loc	2 130 27 is_stmt 0      # /home/chris/test-suite/MultiSource/Benchmarks/Bullet/btConvexConvexAlgorithm.cpp:130:27
	movups	(%rax), %xmm0
	movaps	%xmm0, 320(%rsp)
	movq	72(%rsp), %rdi          # 8-byte Reload
	movq	80(%rsp), %rsi          # 8-byte Reload
	.loc	2 134 39 is_stmt 1      # /home/chris/test-suite/MultiSource/Benchmarks/Bullet/btConvexConvexAlgorithm.cpp:134:39
	callq	_ZmiRK9btVector3S1_
.Ltmp399:
	movlpd	%xmm0, 304(%rsp)
	movlpd	%xmm1, 312(%rsp)
	.loc	2 138 2                 # /home/chris/test-suite/MultiSource/Benchmarks/Bullet/btConvexConvexAlgorithm.cpp:138:2
	leaq	288(%rsp), %rax
	movq	%rax, %rsi
.Ltmp400:
	#DEBUG_VALUE: capsuleCapsuleDistance:ptsVector <- [DW_OP_deref] $rax
	.loc	2 138 12 is_stmt 0      # /home/chris/test-suite/MultiSource/Benchmarks/Bullet/btConvexConvexAlgorithm.cpp:138:12
	movq	%rax, %rdi
	movq	%rsi, 64(%rsp)          # 8-byte Spill
	callq	_ZN9btVector3C2Ev
.Ltmp401:
	.loc	2 140 2 is_stmt 1       # /home/chris/test-suite/MultiSource/Benchmarks/Bullet/btConvexConvexAlgorithm.cpp:140:2
	leaq	272(%rsp), %rax
	movq	%rax, %rsi
.Ltmp402:
	#DEBUG_VALUE: capsuleCapsuleDistance:offsetA <- [DW_OP_deref] $rax
	.loc	2 140 12 is_stmt 0      # /home/chris/test-suite/MultiSource/Benchmarks/Bullet/btConvexConvexAlgorithm.cpp:140:12
	movq	%rax, %rdi
	movq	%rsi, 56(%rsp)          # 8-byte Spill
	callq	_ZN9btVector3C2Ev
.Ltmp403:
	.loc	2 140 2                 # /home/chris/test-suite/MultiSource/Benchmarks/Bullet/btConvexConvexAlgorithm.cpp:140:2
	leaq	256(%rsp), %rax
	movq	%rax, %rsi
.Ltmp404:
	#DEBUG_VALUE: capsuleCapsuleDistance:offsetB <- [DW_OP_deref] $rax
	.loc	2 140 21                # /home/chris/test-suite/MultiSource/Benchmarks/Bullet/btConvexConvexAlgorithm.cpp:140:21
	movq	%rax, %rdi
	movq	%rsi, 48(%rsp)          # 8-byte Spill
	callq	_ZN9btVector3C2Ev
.Ltmp405:
	.loc	2 141 2 is_stmt 1       # /home/chris/test-suite/MultiSource/Benchmarks/Bullet/btConvexConvexAlgorithm.cpp:141:2
	leaq	252(%rsp), %rax
	movq	%rax, %rsi
	leaq	248(%rsp), %rdi
	movq	%rdi, %r8
.Ltmp406:
	#DEBUG_VALUE: capsuleCapsuleDistance:tA <- [DW_OP_deref] $rax
	#DEBUG_VALUE: capsuleCapsuleDistance:tB <- [DW_OP_deref] $rdi
	.loc	2 143 2                 # /home/chris/test-suite/MultiSource/Benchmarks/Bullet/btConvexConvexAlgorithm.cpp:143:2
	leaq	288(%rsp), %r9
	movq	%rdi, 40(%rsp)          # 8-byte Spill
.Ltmp407:
	#DEBUG_VALUE: capsuleCapsuleDistance:tB <- [DW_OP_plus_uconst 40, DW_OP_deref] [$rsp+0]
	#DEBUG_VALUE: capsuleCapsuleDistance:tB <- [DW_OP_plus_uconst 40, DW_OP_deref] [$rsp+0]
	movq	%r9, %rdi
	leaq	272(%rsp), %r9
	movq	%rsi, 32(%rsp)          # 8-byte Spill
	movq	%r9, %rsi
	leaq	256(%rsp), %rdx
	movq	%rax, %rcx
	movq	40(%rsp), %rax          # 8-byte Reload
.Ltmp408:
	.loc	2 0 2 is_stmt 0         # /home/chris/test-suite/MultiSource/Benchmarks/Bullet/btConvexConvexAlgorithm.cpp:0:2
	movq	%r8, 24(%rsp)           # 8-byte Spill
	.loc	2 143 2                 # /home/chris/test-suite/MultiSource/Benchmarks/Bullet/btConvexConvexAlgorithm.cpp:143:2
	movq	%rax, %r8
	movq	104(%rsp), %r9          # 8-byte Reload
	movq	120(%rsp), %r10         # 8-byte Reload
	movq	%r10, (%rsp)
	movss	140(%rsp), %xmm0        # 4-byte Reload
                                        # xmm0 = mem[0],zero,zero,zero
	movq	112(%rsp), %r11         # 8-byte Reload
	movq	%r11, 8(%rsp)
	movss	148(%rsp), %xmm1        # 4-byte Reload
                                        # xmm1 = mem[0],zero,zero,zero
	callq	_ZL21segmentsClosestPointsR9btVector3S0_S0_RfS1_RKS_S3_fS3_f
.Ltmp409:
	.loc	2 146 32 is_stmt 1      # /home/chris/test-suite/MultiSource/Benchmarks/Bullet/btConvexConvexAlgorithm.cpp:146:32
	leaq	288(%rsp), %rdi
	callq	_ZNK9btVector36lengthEv
.Ltmp410:
	.loc	2 0 32 is_stmt 0        # /home/chris/test-suite/MultiSource/Benchmarks/Bullet/btConvexConvexAlgorithm.cpp:0:32
	movss	144(%rsp), %xmm1        # 4-byte Reload
                                        # xmm1 = mem[0],zero,zero,zero
	.loc	2 146 41                # /home/chris/test-suite/MultiSource/Benchmarks/Bullet/btConvexConvexAlgorithm.cpp:146:41
	subss	%xmm1, %xmm0
	.loc	2 146 60                # /home/chris/test-suite/MultiSource/Benchmarks/Bullet/btConvexConvexAlgorithm.cpp:146:60
	movss	388(%rsp), %xmm2        # xmm2 = mem[0],zero,zero,zero
.Ltmp411:
	#DEBUG_VALUE: capsuleCapsuleDistance:capsuleRadiusB <- $xmm2
	.loc	2 146 58                # /home/chris/test-suite/MultiSource/Benchmarks/Bullet/btConvexConvexAlgorithm.cpp:146:58
	subss	%xmm2, %xmm0
.Ltmp412:
	#DEBUG_VALUE: capsuleCapsuleDistance:distance <- $xmm0
	.loc	2 0 58                  # /home/chris/test-suite/MultiSource/Benchmarks/Bullet/btConvexConvexAlgorithm.cpp:0:58
	movss	180(%rsp), %xmm2        # 4-byte Reload
                                        # xmm2 = mem[0],zero,zero,zero
.Ltmp413:
	.loc	2 148 16 is_stmt 1      # /home/chris/test-suite/MultiSource/Benchmarks/Bullet/btConvexConvexAlgorithm.cpp:148:16
	ucomiss	%xmm2, %xmm0
	#DEBUG_VALUE: capsuleCapsuleDistance:normalOnB <- undef
	#DEBUG_VALUE: capsuleCapsuleDistance:pointOnB <- undef
	#DEBUG_VALUE: capsuleCapsuleDistance:capsuleLengthA <- undef
	#DEBUG_VALUE: capsuleCapsuleDistance:capsuleRadiusA <- undef
	#DEBUG_VALUE: capsuleCapsuleDistance:capsuleLengthB <- undef
	#DEBUG_VALUE: capsuleCapsuleDistance:distanceThreshold <- undef
	movss	%xmm0, 20(%rsp)         # 4-byte Spill
.Ltmp414:
	#DEBUG_VALUE: capsuleCapsuleDistance:distance <- [DW_OP_plus_uconst 20] [$rsp+0]
	#DEBUG_VALUE: capsuleCapsuleDistance:distance <- [DW_OP_plus_uconst 20] [$rsp+0]
	.loc	2 148 7 is_stmt 0       # /home/chris/test-suite/MultiSource/Benchmarks/Bullet/btConvexConvexAlgorithm.cpp:148:7
	jbe	.LBB15_2
.Ltmp415:
# %bb.1:
	#DEBUG_VALUE: capsuleCapsuleDistance:distance <- [DW_OP_plus_uconst 20] [$rsp+0]
	#DEBUG_VALUE: capsuleCapsuleDistance:tB <- [DW_OP_plus_uconst 40, DW_OP_deref] [$rsp+0]
	#DEBUG_VALUE: capsuleCapsuleDistance:transformA <- [DW_OP_plus_uconst 160] [$rsp+0]
	#DEBUG_VALUE: capsuleCapsuleDistance:transformB <- [DW_OP_plus_uconst 168] [$rsp+0]
	.loc	2 149 3 is_stmt 1       # /home/chris/test-suite/MultiSource/Benchmarks/Bullet/btConvexConvexAlgorithm.cpp:149:3
	jmp	.LBB15_6
.Ltmp416:
.LBB15_2:
	#DEBUG_VALUE: capsuleCapsuleDistance:distance <- [DW_OP_plus_uconst 20] [$rsp+0]
	#DEBUG_VALUE: capsuleCapsuleDistance:tB <- [DW_OP_plus_uconst 40, DW_OP_deref] [$rsp+0]
	#DEBUG_VALUE: capsuleCapsuleDistance:transformA <- [DW_OP_plus_uconst 160] [$rsp+0]
	#DEBUG_VALUE: capsuleCapsuleDistance:transformB <- [DW_OP_plus_uconst 168] [$rsp+0]
	.loc	2 151 30                # /home/chris/test-suite/MultiSource/Benchmarks/Bullet/btConvexConvexAlgorithm.cpp:151:30
	leaq	288(%rsp), %rdi
	callq	_ZNK9btVector37length2Ev
.Ltmp417:
	.loc	2 0 30 is_stmt 0        # /home/chris/test-suite/MultiSource/Benchmarks/Bullet/btConvexConvexAlgorithm.cpp:0:30
	movss	.LCPI15_0(%rip), %xmm1  # xmm1 = mem[0],zero,zero,zero
.Ltmp418:
	#DEBUG_VALUE: capsuleCapsuleDistance:lenSqr <- $xmm0
	.loc	2 152 12 is_stmt 1      # /home/chris/test-suite/MultiSource/Benchmarks/Bullet/btConvexConvexAlgorithm.cpp:152:12
	ucomiss	%xmm0, %xmm1
	movss	%xmm0, 16(%rsp)         # 4-byte Spill
.Ltmp419:
	#DEBUG_VALUE: capsuleCapsuleDistance:lenSqr <- [DW_OP_plus_uconst 16] [$rsp+0]
	#DEBUG_VALUE: capsuleCapsuleDistance:lenSqr <- [DW_OP_plus_uconst 16] [$rsp+0]
	.loc	2 152 6 is_stmt 0       # /home/chris/test-suite/MultiSource/Benchmarks/Bullet/btConvexConvexAlgorithm.cpp:152:6
	jb	.LBB15_4
.Ltmp420:
# %bb.3:
	#DEBUG_VALUE: capsuleCapsuleDistance:lenSqr <- [DW_OP_plus_uconst 16] [$rsp+0]
	#DEBUG_VALUE: capsuleCapsuleDistance:distance <- [DW_OP_plus_uconst 20] [$rsp+0]
	#DEBUG_VALUE: capsuleCapsuleDistance:tB <- [DW_OP_plus_uconst 40, DW_OP_deref] [$rsp+0]
	#DEBUG_VALUE: capsuleCapsuleDistance:transformA <- [DW_OP_plus_uconst 160] [$rsp+0]
	#DEBUG_VALUE: capsuleCapsuleDistance:transformB <- [DW_OP_plus_uconst 168] [$rsp+0]
	.loc	2 155 13 is_stmt 1      # /home/chris/test-suite/MultiSource/Benchmarks/Bullet/btConvexConvexAlgorithm.cpp:155:13
	leaq	232(%rsp), %rdi
.Ltmp421:
	#DEBUG_VALUE: q <- [DW_OP_deref] $rdi
	callq	_ZN9btVector3C2Ev
.Ltmp422:
	.loc	2 0 13 is_stmt 0        # /home/chris/test-suite/MultiSource/Benchmarks/Bullet/btConvexConvexAlgorithm.cpp:0:13
	movq	120(%rsp), %rdi         # 8-byte Reload
	movq	184(%rsp), %rsi         # 8-byte Reload
	.loc	2 156 3 is_stmt 1       # /home/chris/test-suite/MultiSource/Benchmarks/Bullet/btConvexConvexAlgorithm.cpp:156:3
	leaq	232(%rsp), %rdx
	callq	_Z13btPlaneSpace1RK9btVector3RS_S2_
.Ltmp423:
	.loc	2 157 2                 # /home/chris/test-suite/MultiSource/Benchmarks/Bullet/btConvexConvexAlgorithm.cpp:157:2
	jmp	.LBB15_5
.Ltmp424:
.LBB15_4:
	#DEBUG_VALUE: capsuleCapsuleDistance:lenSqr <- [DW_OP_plus_uconst 16] [$rsp+0]
	#DEBUG_VALUE: capsuleCapsuleDistance:distance <- [DW_OP_plus_uconst 20] [$rsp+0]
	#DEBUG_VALUE: capsuleCapsuleDistance:tB <- [DW_OP_plus_uconst 40, DW_OP_deref] [$rsp+0]
	#DEBUG_VALUE: capsuleCapsuleDistance:transformA <- [DW_OP_plus_uconst 160] [$rsp+0]
	#DEBUG_VALUE: capsuleCapsuleDistance:transformB <- [DW_OP_plus_uconst 168] [$rsp+0]
	.loc	2 0 2 is_stmt 0         # /home/chris/test-suite/MultiSource/Benchmarks/Bullet/btConvexConvexAlgorithm.cpp:0:2
	movss	16(%rsp), %xmm0         # 4-byte Reload
                                        # xmm0 = mem[0],zero,zero,zero
.Ltmp425:
	.loc	2 160 26 is_stmt 1      # /home/chris/test-suite/MultiSource/Benchmarks/Bullet/btConvexConvexAlgorithm.cpp:160:26
	callq	_Z6btSqrtf
.Ltmp426:
	.loc	2 0 26 is_stmt 0        # /home/chris/test-suite/MultiSource/Benchmarks/Bullet/btConvexConvexAlgorithm.cpp:0:26
	movss	.LCPI15_1(%rip), %xmm1  # xmm1 = mem[0],zero,zero,zero
	.loc	2 160 25                # /home/chris/test-suite/MultiSource/Benchmarks/Bullet/btConvexConvexAlgorithm.cpp:160:25
	divss	%xmm0, %xmm1
	movss	%xmm1, 228(%rsp)
	leaq	288(%rsp), %rdi
	leaq	228(%rsp), %rsi
	.loc	2 160 24                # /home/chris/test-suite/MultiSource/Benchmarks/Bullet/btConvexConvexAlgorithm.cpp:160:24
	callq	_ZmlRK9btVector3RKf
.Ltmp427:
	.loc	2 0 24                  # /home/chris/test-suite/MultiSource/Benchmarks/Bullet/btConvexConvexAlgorithm.cpp:0:24
	movq	184(%rsp), %rax         # 8-byte Reload
	.loc	2 160 13                # /home/chris/test-suite/MultiSource/Benchmarks/Bullet/btConvexConvexAlgorithm.cpp:160:13
	movlpd	%xmm0, (%rax)
	movlpd	%xmm1, 8(%rax)
.Ltmp428:
.LBB15_5:
	#DEBUG_VALUE: capsuleCapsuleDistance:lenSqr <- [DW_OP_plus_uconst 16] [$rsp+0]
	#DEBUG_VALUE: capsuleCapsuleDistance:distance <- [DW_OP_plus_uconst 20] [$rsp+0]
	#DEBUG_VALUE: capsuleCapsuleDistance:tB <- [DW_OP_plus_uconst 40, DW_OP_deref] [$rsp+0]
	#DEBUG_VALUE: capsuleCapsuleDistance:transformA <- [DW_OP_plus_uconst 160] [$rsp+0]
	#DEBUG_VALUE: capsuleCapsuleDistance:transformB <- [DW_OP_plus_uconst 168] [$rsp+0]
	.loc	2 0 13                  # /home/chris/test-suite/MultiSource/Benchmarks/Bullet/btConvexConvexAlgorithm.cpp:0:13
	movq	168(%rsp), %rdi         # 8-byte Reload
	.loc	2 162 24 is_stmt 1      # /home/chris/test-suite/MultiSource/Benchmarks/Bullet/btConvexConvexAlgorithm.cpp:162:24
	callq	_ZNK11btTransform9getOriginEv
.Ltmp429:
	.loc	2 0 24 is_stmt 0        # /home/chris/test-suite/MultiSource/Benchmarks/Bullet/btConvexConvexAlgorithm.cpp:0:24
	leaq	256(%rsp), %rsi
	.loc	2 162 35                # /home/chris/test-suite/MultiSource/Benchmarks/Bullet/btConvexConvexAlgorithm.cpp:162:35
	movq	%rax, %rdi
	callq	_ZplRK9btVector3S1_
.Ltmp430:
	movlpd	%xmm0, 208(%rsp)
	movlpd	%xmm1, 216(%rsp)
.Ltmp431:
	#DEBUG_VALUE: capsuleCapsuleDistance:capsuleRadiusB <- [DW_OP_plus_uconst 388, DW_OP_deref] $rsp
	.loc	2 0 35                  # /home/chris/test-suite/MultiSource/Benchmarks/Bullet/btConvexConvexAlgorithm.cpp:0:35
	leaq	388(%rsp), %rsi
	movq	184(%rsp), %rdi         # 8-byte Reload
	.loc	2 162 56                # /home/chris/test-suite/MultiSource/Benchmarks/Bullet/btConvexConvexAlgorithm.cpp:162:56
	callq	_ZmlRK9btVector3RKf
.Ltmp432:
	movlpd	%xmm0, 192(%rsp)
	movlpd	%xmm1, 200(%rsp)
	movq	96(%rsp), %rdi          # 8-byte Reload
	movq	88(%rsp), %rsi          # 8-byte Reload
	.loc	2 162 44                # /home/chris/test-suite/MultiSource/Benchmarks/Bullet/btConvexConvexAlgorithm.cpp:162:44
	callq	_ZplRK9btVector3S1_
.Ltmp433:
	.loc	2 0 44                  # /home/chris/test-suite/MultiSource/Benchmarks/Bullet/btConvexConvexAlgorithm.cpp:0:44
	movq	128(%rsp), %rax         # 8-byte Reload
	.loc	2 162 11                # /home/chris/test-suite/MultiSource/Benchmarks/Bullet/btConvexConvexAlgorithm.cpp:162:11
	movlpd	%xmm0, (%rax)
	movlpd	%xmm1, 8(%rax)
.Ltmp434:
.LBB15_6:
	#DEBUG_VALUE: capsuleCapsuleDistance:distance <- [DW_OP_plus_uconst 20] [$rsp+0]
	#DEBUG_VALUE: capsuleCapsuleDistance:tB <- [DW_OP_plus_uconst 40, DW_OP_deref] [$rsp+0]
	#DEBUG_VALUE: capsuleCapsuleDistance:transformA <- [DW_OP_plus_uconst 160] [$rsp+0]
	#DEBUG_VALUE: capsuleCapsuleDistance:transformB <- [DW_OP_plus_uconst 168] [$rsp+0]
	.loc	2 0 11                  # /home/chris/test-suite/MultiSource/Benchmarks/Bullet/btConvexConvexAlgorithm.cpp:0:11
	movss	20(%rsp), %xmm0         # 4-byte Reload
                                        # xmm0 = mem[0],zero,zero,zero
	.loc	2 165 1 is_stmt 1       # /home/chris/test-suite/MultiSource/Benchmarks/Bullet/btConvexConvexAlgorithm.cpp:165:1
	addq	$392, %rsp              # imm = 0x188
	.cfi_def_cfa_offset 24
	popq	%rbx
	.cfi_def_cfa_offset 16
	popq	%r14
	.cfi_def_cfa_offset 8
	retq
.Ltmp435:
.Lfunc_end15:
	.size	_ZL22capsuleCapsuleDistanceR9btVector3S0_ffffiiRK11btTransformS3_f, .Lfunc_end15-_ZL22capsuleCapsuleDistanceR9btVector3S0_ffffiiRK11btTransformS3_f
	.cfi_endproc
                                        # -- End function
	.section	.text._ZNK14btCapsuleShape13getHalfHeightEv,"axG",@progbits,_ZNK14btCapsuleShape13getHalfHeightEv,comdat
	.weak	_ZNK14btCapsuleShape13getHalfHeightEv # -- Begin function _ZNK14btCapsuleShape13getHalfHeightEv
	.p2align	4, 0x90
	.type	_ZNK14btCapsuleShape13getHalfHeightEv,@function
_ZNK14btCapsuleShape13getHalfHeightEv:  # @_ZNK14btCapsuleShape13getHalfHeightEv
.Lfunc_begin16:
	.loc	35 76 0                 # /home/chris/test-suite/MultiSource/Benchmarks/Bullet/include/BulletCollision/CollisionShapes/btCapsuleShape.h:76:0
	.cfi_startproc
# %bb.0:
	#DEBUG_VALUE: getHalfHeight:this <- $rdi
	pushq	%rax
	.cfi_def_cfa_offset 16
.Ltmp436:
	.loc	35 77 10 prologue_end   # /home/chris/test-suite/MultiSource/Benchmarks/Bullet/include/BulletCollision/CollisionShapes/btCapsuleShape.h:77:10
	movq	%rdi, %rax
	addq	$40, %rax
	movq	%rdi, (%rsp)            # 8-byte Spill
.Ltmp437:
	#DEBUG_VALUE: getHalfHeight:this <- [$rsp+0]
	#DEBUG_VALUE: getHalfHeight:this <- [$rsp+0]
	movq	%rax, %rdi
	callq	_ZNK9btVector3cvPKfEv
.Ltmp438:
	.loc	35 0 10 is_stmt 0       # /home/chris/test-suite/MultiSource/Benchmarks/Bullet/include/BulletCollision/CollisionShapes/btCapsuleShape.h:0:10
	movq	(%rsp), %rcx            # 8-byte Reload
	.loc	35 77 10                # /home/chris/test-suite/MultiSource/Benchmarks/Bullet/include/BulletCollision/CollisionShapes/btCapsuleShape.h:77:10
	movslq	64(%rcx), %rdx
	movss	(%rax,%rdx,4), %xmm0    # xmm0 = mem[0],zero,zero,zero
	.loc	35 77 3                 # /home/chris/test-suite/MultiSource/Benchmarks/Bullet/include/BulletCollision/CollisionShapes/btCapsuleShape.h:77:3
	popq	%rax
	.cfi_def_cfa_offset 8
	retq
.Ltmp439:
.Lfunc_end16:
	.size	_ZNK14btCapsuleShape13getHalfHeightEv, .Lfunc_end16-_ZNK14btCapsuleShape13getHalfHeightEv
	.cfi_endproc
                                        # -- End function
	.section	.text._ZNK14btCapsuleShape9getRadiusEv,"axG",@progbits,_ZNK14btCapsuleShape9getRadiusEv,comdat
	.weak	_ZNK14btCapsuleShape9getRadiusEv # -- Begin function _ZNK14btCapsuleShape9getRadiusEv
	.p2align	4, 0x90
	.type	_ZNK14btCapsuleShape9getRadiusEv,@function
_ZNK14btCapsuleShape9getRadiusEv:       # @_ZNK14btCapsuleShape9getRadiusEv
.Lfunc_begin17:
	.loc	35 70 0 is_stmt 1       # /home/chris/test-suite/MultiSource/Benchmarks/Bullet/include/BulletCollision/CollisionShapes/btCapsuleShape.h:70:0
	.cfi_startproc
# %bb.0:
	#DEBUG_VALUE: getRadius:this <- $rdi
	pushq	%rax
	.cfi_def_cfa_offset 16
.Ltmp440:
	.loc	35 71 21 prologue_end   # /home/chris/test-suite/MultiSource/Benchmarks/Bullet/include/BulletCollision/CollisionShapes/btCapsuleShape.h:71:21
	movl	64(%rdi), %eax
	.loc	35 71 29 is_stmt 0      # /home/chris/test-suite/MultiSource/Benchmarks/Bullet/include/BulletCollision/CollisionShapes/btCapsuleShape.h:71:29
	addl	$2, %eax
	.loc	35 71 32                # /home/chris/test-suite/MultiSource/Benchmarks/Bullet/include/BulletCollision/CollisionShapes/btCapsuleShape.h:71:32
	cltd
	movl	$3, %ecx
	idivl	%ecx
.Ltmp441:
	#DEBUG_VALUE: getRadius:radiusAxis <- $edx
	.loc	35 72 10 is_stmt 1      # /home/chris/test-suite/MultiSource/Benchmarks/Bullet/include/BulletCollision/CollisionShapes/btCapsuleShape.h:72:10
	addq	$40, %rdi
.Ltmp442:
	.loc	35 0 10 is_stmt 0       # /home/chris/test-suite/MultiSource/Benchmarks/Bullet/include/BulletCollision/CollisionShapes/btCapsuleShape.h:0:10
	movl	%edx, 4(%rsp)           # 4-byte Spill
.Ltmp443:
	#DEBUG_VALUE: getRadius:radiusAxis <- [DW_OP_plus_uconst 4] [$rsp+0]
	#DEBUG_VALUE: getRadius:radiusAxis <- [DW_OP_plus_uconst 4] [$rsp+0]
	.loc	35 72 10                # /home/chris/test-suite/MultiSource/Benchmarks/Bullet/include/BulletCollision/CollisionShapes/btCapsuleShape.h:72:10
	callq	_ZNK9btVector3cvPKfEv
.Ltmp444:
	.loc	35 0 10                 # /home/chris/test-suite/MultiSource/Benchmarks/Bullet/include/BulletCollision/CollisionShapes/btCapsuleShape.h:0:10
	movl	4(%rsp), %ecx           # 4-byte Reload
	.loc	35 72 10                # /home/chris/test-suite/MultiSource/Benchmarks/Bullet/include/BulletCollision/CollisionShapes/btCapsuleShape.h:72:10
	movslq	%ecx, %rsi
	movss	(%rax,%rsi,4), %xmm0    # xmm0 = mem[0],zero,zero,zero
	.loc	35 72 3                 # /home/chris/test-suite/MultiSource/Benchmarks/Bullet/include/BulletCollision/CollisionShapes/btCapsuleShape.h:72:3
	popq	%rax
	.cfi_def_cfa_offset 8
	retq
.Ltmp445:
.Lfunc_end17:
	.size	_ZNK14btCapsuleShape9getRadiusEv, .Lfunc_end17-_ZNK14btCapsuleShape9getRadiusEv
	.cfi_endproc
                                        # -- End function
	.section	.text._ZNK14btCapsuleShape9getUpAxisEv,"axG",@progbits,_ZNK14btCapsuleShape9getUpAxisEv,comdat
	.weak	_ZNK14btCapsuleShape9getUpAxisEv # -- Begin function _ZNK14btCapsuleShape9getUpAxisEv
	.p2align	4, 0x90
	.type	_ZNK14btCapsuleShape9getUpAxisEv,@function
_ZNK14btCapsuleShape9getUpAxisEv:       # @_ZNK14btCapsuleShape9getUpAxisEv
.Lfunc_begin18:
	.loc	35 65 0 is_stmt 1       # /home/chris/test-suite/MultiSource/Benchmarks/Bullet/include/BulletCollision/CollisionShapes/btCapsuleShape.h:65:0
	.cfi_startproc
# %bb.0:
	#DEBUG_VALUE: getUpAxis:this <- $rdi
	.loc	35 66 10 prologue_end   # /home/chris/test-suite/MultiSource/Benchmarks/Bullet/include/BulletCollision/CollisionShapes/btCapsuleShape.h:66:10
	movl	64(%rdi), %eax
	.loc	35 66 3 is_stmt 0       # /home/chris/test-suite/MultiSource/Benchmarks/Bullet/include/BulletCollision/CollisionShapes/btCapsuleShape.h:66:3
	retq
.Ltmp446:
.Lfunc_end18:
	.size	_ZNK14btCapsuleShape9getUpAxisEv, .Lfunc_end18-_ZNK14btCapsuleShape9getUpAxisEv
	.cfi_endproc
                                        # -- End function
	.section	.text._ZN17btCollisionObject17getWorldTransformEv,"axG",@progbits,_ZN17btCollisionObject17getWorldTransformEv,comdat
	.weak	_ZN17btCollisionObject17getWorldTransformEv # -- Begin function _ZN17btCollisionObject17getWorldTransformEv
	.p2align	4, 0x90
	.type	_ZN17btCollisionObject17getWorldTransformEv,@function
_ZN17btCollisionObject17getWorldTransformEv: # @_ZN17btCollisionObject17getWorldTransformEv
.Lfunc_begin19:
	.loc	32 262 0 is_stmt 1      # /home/chris/test-suite/MultiSource/Benchmarks/Bullet/include/BulletCollision/CollisionDispatch/btCollisionObject.h:262:0
	.cfi_startproc
# %bb.0:
	#DEBUG_VALUE: getWorldTransform:this <- $rdi
	.loc	32 263 10 prologue_end  # /home/chris/test-suite/MultiSource/Benchmarks/Bullet/include/BulletCollision/CollisionDispatch/btCollisionObject.h:263:10
	addq	$8, %rdi
.Ltmp447:
	.loc	32 263 3 is_stmt 0      # /home/chris/test-suite/MultiSource/Benchmarks/Bullet/include/BulletCollision/CollisionDispatch/btCollisionObject.h:263:3
	movq	%rdi, %rax
	retq
.Ltmp448:
.Lfunc_end19:
	.size	_ZN17btCollisionObject17getWorldTransformEv, .Lfunc_end19-_ZN17btCollisionObject17getWorldTransformEv
	.cfi_endproc
                                        # -- End function
	.section	.text._ZN16btManifoldResult20refreshContactPointsEv,"axG",@progbits,_ZN16btManifoldResult20refreshContactPointsEv,comdat
	.weak	_ZN16btManifoldResult20refreshContactPointsEv # -- Begin function _ZN16btManifoldResult20refreshContactPointsEv
	.p2align	4, 0x90
	.type	_ZN16btManifoldResult20refreshContactPointsEv,@function
_ZN16btManifoldResult20refreshContactPointsEv: # @_ZN16btManifoldResult20refreshContactPointsEv
.Lfunc_begin20:
	.loc	33 98 0 is_stmt 1       # /home/chris/test-suite/MultiSource/Benchmarks/Bullet/include/BulletCollision/CollisionDispatch/btManifoldResult.h:98:0
	.cfi_startproc
# %bb.0:
	#DEBUG_VALUE: refreshContactPoints:this <- $rdi
	subq	$24, %rsp
	.cfi_def_cfa_offset 32
.Ltmp449:
	.loc	33 100 8 prologue_end   # /home/chris/test-suite/MultiSource/Benchmarks/Bullet/include/BulletCollision/CollisionDispatch/btManifoldResult.h:100:8
	movq	%rdi, %rax
	addq	$8, %rax
	movq	8(%rdi), %rcx
	movq	%rdi, 16(%rsp)          # 8-byte Spill
.Ltmp450:
	#DEBUG_VALUE: refreshContactPoints:this <- [DW_OP_plus_uconst 16] [$rsp+0]
	#DEBUG_VALUE: refreshContactPoints:this <- [DW_OP_plus_uconst 16] [$rsp+0]
	.loc	33 100 23 is_stmt 0     # /home/chris/test-suite/MultiSource/Benchmarks/Bullet/include/BulletCollision/CollisionDispatch/btManifoldResult.h:100:23
	movq	%rcx, %rdi
	movq	%rax, 8(%rsp)           # 8-byte Spill
	callq	_ZNK20btPersistentManifold14getNumContactsEv
.Ltmp451:
	.loc	33 100 8                # /home/chris/test-suite/MultiSource/Benchmarks/Bullet/include/BulletCollision/CollisionDispatch/btManifoldResult.h:100:8
	cmpl	$0, %eax
.Ltmp452:
	.loc	33 100 7                # /home/chris/test-suite/MultiSource/Benchmarks/Bullet/include/BulletCollision/CollisionDispatch/btManifoldResult.h:100:7
	je	.LBB20_5
.Ltmp453:
# %bb.1:
	#DEBUG_VALUE: refreshContactPoints:this <- [DW_OP_plus_uconst 16] [$rsp+0]
	.loc	33 0 7                  # /home/chris/test-suite/MultiSource/Benchmarks/Bullet/include/BulletCollision/CollisionDispatch/btManifoldResult.h:0:7
	movq	8(%rsp), %rax           # 8-byte Reload
	.loc	33 103 20 is_stmt 1     # /home/chris/test-suite/MultiSource/Benchmarks/Bullet/include/BulletCollision/CollisionDispatch/btManifoldResult.h:103:20
	movq	(%rax), %rdi
	.loc	33 103 35 is_stmt 0     # /home/chris/test-suite/MultiSource/Benchmarks/Bullet/include/BulletCollision/CollisionDispatch/btManifoldResult.h:103:35
	callq	_ZN20btPersistentManifold8getBody0Ev
.Ltmp454:
	.loc	33 0 35                 # /home/chris/test-suite/MultiSource/Benchmarks/Bullet/include/BulletCollision/CollisionDispatch/btManifoldResult.h:0:35
	movq	16(%rsp), %rcx          # 8-byte Reload
	.loc	33 103 49               # /home/chris/test-suite/MultiSource/Benchmarks/Bullet/include/BulletCollision/CollisionDispatch/btManifoldResult.h:103:49
	movq	144(%rcx), %rdx
	.loc	33 103 46               # /home/chris/test-suite/MultiSource/Benchmarks/Bullet/include/BulletCollision/CollisionDispatch/btManifoldResult.h:103:46
	cmpq	%rdx, %rax
	setne	%sil
	movq	8(%rsp), %rax           # 8-byte Reload
.Ltmp455:
	.loc	33 0 0                  # /home/chris/test-suite/MultiSource/Benchmarks/Bullet/include/BulletCollision/CollisionDispatch/btManifoldResult.h:0:0
	movq	(%rax), %rdx
.Ltmp456:
	.loc	33 105 7 is_stmt 1      # /home/chris/test-suite/MultiSource/Benchmarks/Bullet/include/BulletCollision/CollisionDispatch/btManifoldResult.h:105:7
	testb	$1, %sil
	movq	%rdx, (%rsp)            # 8-byte Spill
	jne	.LBB20_2
	jmp	.LBB20_3
.Ltmp457:
.LBB20_2:
	#DEBUG_VALUE: refreshContactPoints:this <- [DW_OP_plus_uconst 16] [$rsp+0]
	.loc	33 0 7 is_stmt 0        # /home/chris/test-suite/MultiSource/Benchmarks/Bullet/include/BulletCollision/CollisionDispatch/btManifoldResult.h:0:7
	movq	16(%rsp), %rax          # 8-byte Reload
.Ltmp458:
	.loc	33 107 40 is_stmt 1     # /home/chris/test-suite/MultiSource/Benchmarks/Bullet/include/BulletCollision/CollisionDispatch/btManifoldResult.h:107:40
	addq	$80, %rax
	movq	16(%rsp), %rcx          # 8-byte Reload
	.loc	33 107 53 is_stmt 0     # /home/chris/test-suite/MultiSource/Benchmarks/Bullet/include/BulletCollision/CollisionDispatch/btManifoldResult.h:107:53
	addq	$16, %rcx
	movq	(%rsp), %rdi            # 8-byte Reload
	.loc	33 107 19               # /home/chris/test-suite/MultiSource/Benchmarks/Bullet/include/BulletCollision/CollisionDispatch/btManifoldResult.h:107:19
	movq	%rax, %rsi
	movq	%rcx, %rdx
	callq	_ZN20btPersistentManifold20refreshContactPointsERK11btTransformS2_
.Ltmp459:
	.loc	33 108 3 is_stmt 1      # /home/chris/test-suite/MultiSource/Benchmarks/Bullet/include/BulletCollision/CollisionDispatch/btManifoldResult.h:108:3
	jmp	.LBB20_4
.Ltmp460:
.LBB20_3:
	#DEBUG_VALUE: refreshContactPoints:this <- [DW_OP_plus_uconst 16] [$rsp+0]
	.loc	33 0 3 is_stmt 0        # /home/chris/test-suite/MultiSource/Benchmarks/Bullet/include/BulletCollision/CollisionDispatch/btManifoldResult.h:0:3
	movq	16(%rsp), %rax          # 8-byte Reload
.Ltmp461:
	.loc	33 110 40 is_stmt 1     # /home/chris/test-suite/MultiSource/Benchmarks/Bullet/include/BulletCollision/CollisionDispatch/btManifoldResult.h:110:40
	addq	$16, %rax
	movq	16(%rsp), %rcx          # 8-byte Reload
	.loc	33 110 53 is_stmt 0     # /home/chris/test-suite/MultiSource/Benchmarks/Bullet/include/BulletCollision/CollisionDispatch/btManifoldResult.h:110:53
	addq	$80, %rcx
	movq	(%rsp), %rdi            # 8-byte Reload
	.loc	33 110 19               # /home/chris/test-suite/MultiSource/Benchmarks/Bullet/include/BulletCollision/CollisionDispatch/btManifoldResult.h:110:19
	movq	%rax, %rsi
	movq	%rcx, %rdx
	callq	_ZN20btPersistentManifold20refreshContactPointsERK11btTransformS2_
.Ltmp462:
.LBB20_4:
	#DEBUG_VALUE: refreshContactPoints:this <- [DW_OP_plus_uconst 16] [$rsp+0]
	.loc	33 0 19                 # /home/chris/test-suite/MultiSource/Benchmarks/Bullet/include/BulletCollision/CollisionDispatch/btManifoldResult.h:0:19
	jmp	.LBB20_5
.Ltmp463:
.LBB20_5:
	#DEBUG_VALUE: refreshContactPoints:this <- [DW_OP_plus_uconst 16] [$rsp+0]
	.loc	33 112 2 is_stmt 1      # /home/chris/test-suite/MultiSource/Benchmarks/Bullet/include/BulletCollision/CollisionDispatch/btManifoldResult.h:112:2
	addq	$24, %rsp
	.cfi_def_cfa_offset 8
	retq
.Ltmp464:
.Lfunc_end20:
	.size	_ZN16btManifoldResult20refreshContactPointsEv, .Lfunc_end20-_ZN16btManifoldResult20refreshContactPointsEv
	.cfi_endproc
                                        # -- End function
	.section	.rodata.cst4,"aM",@progbits,4
	.p2align	2               # -- Begin function _ZN30btConvexSeparatingDistanceUtil24updateSeparatingDistanceERK11btTransformS2_
.LCPI21_0:
	.long	1065353216              # float 1
	.section	.text._ZN30btConvexSeparatingDistanceUtil24updateSeparatingDistanceERK11btTransformS2_,"axG",@progbits,_ZN30btConvexSeparatingDistanceUtil24updateSeparatingDistanceERK11btTransformS2_,comdat
	.weak	_ZN30btConvexSeparatingDistanceUtil24updateSeparatingDistanceERK11btTransformS2_
	.p2align	4, 0x90
	.type	_ZN30btConvexSeparatingDistanceUtil24updateSeparatingDistanceERK11btTransformS2_,@function
_ZN30btConvexSeparatingDistanceUtil24updateSeparatingDistanceERK11btTransformS2_: # @_ZN30btConvexSeparatingDistanceUtil24updateSeparatingDistanceERK11btTransformS2_
.Lfunc_begin21:
	.loc	25 176 0                # /home/chris/test-suite/MultiSource/Benchmarks/Bullet/include/LinearMath/btTransformUtil.h:176:0
	.cfi_startproc
# %bb.0:
	#DEBUG_VALUE: updateSeparatingDistance:transA <- $rsi
	#DEBUG_VALUE: updateSeparatingDistance:transB <- $rdx
	subq	$280, %rsp              # imm = 0x118
	.cfi_def_cfa_offset 288
	movq	%rdi, 160(%rsp)         # 8-byte Spill
.Ltmp465:
	.loc	25 177 36 prologue_end  # /home/chris/test-suite/MultiSource/Benchmarks/Bullet/include/LinearMath/btTransformUtil.h:177:36
	movq	%rsi, %rdi
	movq	%rsi, 152(%rsp)         # 8-byte Spill
.Ltmp466:
	#DEBUG_VALUE: updateSeparatingDistance:transA <- [DW_OP_plus_uconst 152] [$rsp+0]
	#DEBUG_VALUE: updateSeparatingDistance:transA <- [DW_OP_plus_uconst 152] [$rsp+0]
	.loc	25 0 36 is_stmt 0       # /home/chris/test-suite/MultiSource/Benchmarks/Bullet/include/LinearMath/btTransformUtil.h:0:36
	movq	%rdx, 144(%rsp)         # 8-byte Spill
.Ltmp467:
	#DEBUG_VALUE: updateSeparatingDistance:transB <- [DW_OP_plus_uconst 144] [$rsp+0]
	#DEBUG_VALUE: updateSeparatingDistance:transB <- [DW_OP_plus_uconst 144] [$rsp+0]
	.loc	25 177 36               # /home/chris/test-suite/MultiSource/Benchmarks/Bullet/include/LinearMath/btTransformUtil.h:177:36
	callq	_ZNK11btTransform9getOriginEv
.Ltmp468:
	#DEBUG_VALUE: updateSeparatingDistance:toPosA <- $rax
	.loc	25 0 36                 # /home/chris/test-suite/MultiSource/Benchmarks/Bullet/include/LinearMath/btTransformUtil.h:0:36
	movq	144(%rsp), %rdi         # 8-byte Reload
	movq	%rax, 136(%rsp)         # 8-byte Spill
.Ltmp469:
	#DEBUG_VALUE: updateSeparatingDistance:toPosA <- [DW_OP_plus_uconst 136] [$rsp+0]
	.loc	25 178 36 is_stmt 1     # /home/chris/test-suite/MultiSource/Benchmarks/Bullet/include/LinearMath/btTransformUtil.h:178:36
	callq	_ZNK11btTransform9getOriginEv
.Ltmp470:
	#DEBUG_VALUE: updateSeparatingDistance:toPosB <- $rax
	.loc	25 0 36 is_stmt 0       # /home/chris/test-suite/MultiSource/Benchmarks/Bullet/include/LinearMath/btTransformUtil.h:0:36
	leaq	264(%rsp), %rcx
	movq	152(%rsp), %rdi         # 8-byte Reload
	movq	%rax, 128(%rsp)         # 8-byte Spill
.Ltmp471:
	#DEBUG_VALUE: updateSeparatingDistance:toPosB <- [DW_OP_plus_uconst 128] [$rsp+0]
	movq	%rcx, 120(%rsp)         # 8-byte Spill
	.loc	25 179 32 is_stmt 1     # /home/chris/test-suite/MultiSource/Benchmarks/Bullet/include/LinearMath/btTransformUtil.h:179:32
	callq	_ZNK11btTransform11getRotationEv
.Ltmp472:
	movlpd	%xmm0, 264(%rsp)
	movlpd	%xmm1, 272(%rsp)
	leaq	248(%rsp), %rax
	movq	144(%rsp), %rdi         # 8-byte Reload
	movq	%rax, 112(%rsp)         # 8-byte Spill
	.loc	25 180 32               # /home/chris/test-suite/MultiSource/Benchmarks/Bullet/include/LinearMath/btTransformUtil.h:180:32
	callq	_ZNK11btTransform11getRotationEv
.Ltmp473:
	movlpd	%xmm0, 248(%rsp)
	movlpd	%xmm1, 256(%rsp)
	movq	160(%rsp), %rax         # 8-byte Reload
.Ltmp474:
	.loc	25 182 7                # /home/chris/test-suite/MultiSource/Benchmarks/Bullet/include/LinearMath/btTransformUtil.h:182:7
	addq	$88, %rax
	movq	160(%rsp), %rcx         # 8-byte Reload
	movss	88(%rcx), %xmm0         # xmm0 = mem[0],zero,zero,zero
	.loc	25 182 27 is_stmt 0     # /home/chris/test-suite/MultiSource/Benchmarks/Bullet/include/LinearMath/btTransformUtil.h:182:27
	xorps	%xmm1, %xmm1
	ucomiss	%xmm1, %xmm0
	#DEBUG_VALUE: updateSeparatingDistance:this <- undef
	movq	%rax, 104(%rsp)         # 8-byte Spill
.Ltmp475:
	.loc	25 182 7                # /home/chris/test-suite/MultiSource/Benchmarks/Bullet/include/LinearMath/btTransformUtil.h:182:7
	jbe	.LBB21_4
.Ltmp476:
# %bb.1:
	#DEBUG_VALUE: updateSeparatingDistance:toPosB <- [DW_OP_plus_uconst 128] [$rsp+0]
	#DEBUG_VALUE: updateSeparatingDistance:toPosA <- [DW_OP_plus_uconst 136] [$rsp+0]
	#DEBUG_VALUE: updateSeparatingDistance:transB <- [DW_OP_plus_uconst 144] [$rsp+0]
	#DEBUG_VALUE: updateSeparatingDistance:transA <- [DW_OP_plus_uconst 152] [$rsp+0]
	.loc	25 0 7                  # /home/chris/test-suite/MultiSource/Benchmarks/Bullet/include/LinearMath/btTransformUtil.h:0:7
	leaq	232(%rsp), %rax
.Ltmp477:
	.loc	25 186 14 is_stmt 1     # /home/chris/test-suite/MultiSource/Benchmarks/Bullet/include/LinearMath/btTransformUtil.h:186:14
	movq	%rax, %rdi
	movq	%rax, 96(%rsp)          # 8-byte Spill
	callq	_ZN9btVector3C2Ev
.Ltmp478:
	.loc	25 0 14 is_stmt 0       # /home/chris/test-suite/MultiSource/Benchmarks/Bullet/include/LinearMath/btTransformUtil.h:0:14
	leaq	216(%rsp), %rax
	.loc	25 186 22               # /home/chris/test-suite/MultiSource/Benchmarks/Bullet/include/LinearMath/btTransformUtil.h:186:22
	movq	%rax, %rdi
	movq	%rax, 88(%rsp)          # 8-byte Spill
	callq	_ZN9btVector3C2Ev
.Ltmp479:
	.loc	25 0 22                 # /home/chris/test-suite/MultiSource/Benchmarks/Bullet/include/LinearMath/btTransformUtil.h:0:22
	leaq	200(%rsp), %rax
	.loc	25 186 30               # /home/chris/test-suite/MultiSource/Benchmarks/Bullet/include/LinearMath/btTransformUtil.h:186:30
	movq	%rax, %rdi
	movq	%rax, 80(%rsp)          # 8-byte Spill
	callq	_ZN9btVector3C2Ev
.Ltmp480:
	.loc	25 0 30                 # /home/chris/test-suite/MultiSource/Benchmarks/Bullet/include/LinearMath/btTransformUtil.h:0:30
	leaq	184(%rsp), %rax
	.loc	25 186 38               # /home/chris/test-suite/MultiSource/Benchmarks/Bullet/include/LinearMath/btTransformUtil.h:186:38
	movq	%rax, %rdi
	movq	%rax, 72(%rsp)          # 8-byte Spill
	callq	_ZN9btVector3C2Ev
.Ltmp481:
	.loc	25 0 38                 # /home/chris/test-suite/MultiSource/Benchmarks/Bullet/include/LinearMath/btTransformUtil.h:0:38
	movq	160(%rsp), %rax         # 8-byte Reload
	.loc	25 187 49 is_stmt 1     # /home/chris/test-suite/MultiSource/Benchmarks/Bullet/include/LinearMath/btTransformUtil.h:187:49
	addq	$32, %rax
	leaq	264(%rsp), %rcx
	movss	.LCPI21_0(%rip), %xmm0  # xmm0 = mem[0],zero,zero,zero
	.loc	25 187 4 is_stmt 0      # /home/chris/test-suite/MultiSource/Benchmarks/Bullet/include/LinearMath/btTransformUtil.h:187:4
	movq	%rax, %rdi
	movq	136(%rsp), %rsi         # 8-byte Reload
.Ltmp482:
	#DEBUG_VALUE: updateSeparatingDistance:toPosA <- $rsi
	.loc	25 0 4                  # /home/chris/test-suite/MultiSource/Benchmarks/Bullet/include/LinearMath/btTransformUtil.h:0:4
	movq	160(%rsp), %rdx         # 8-byte Reload
	movss	%xmm0, 68(%rsp)         # 4-byte Spill
	movq	96(%rsp), %r8           # 8-byte Reload
	movq	88(%rsp), %r9           # 8-byte Reload
	.loc	25 187 4                # /home/chris/test-suite/MultiSource/Benchmarks/Bullet/include/LinearMath/btTransformUtil.h:187:4
	callq	_ZN15btTransformUtil27calculateVelocityQuaternionERK9btVector3S2_RK12btQuaternionS5_fRS0_S6_
.Ltmp483:
	.loc	25 0 4                  # /home/chris/test-suite/MultiSource/Benchmarks/Bullet/include/LinearMath/btTransformUtil.h:0:4
	movq	160(%rsp), %rax         # 8-byte Reload
	.loc	25 188 49 is_stmt 1     # /home/chris/test-suite/MultiSource/Benchmarks/Bullet/include/LinearMath/btTransformUtil.h:188:49
	addq	$48, %rax
	movq	160(%rsp), %rcx         # 8-byte Reload
	.loc	25 188 63 is_stmt 0     # /home/chris/test-suite/MultiSource/Benchmarks/Bullet/include/LinearMath/btTransformUtil.h:188:63
	addq	$16, %rcx
	leaq	248(%rsp), %rdx
	.loc	25 188 4                # /home/chris/test-suite/MultiSource/Benchmarks/Bullet/include/LinearMath/btTransformUtil.h:188:4
	movq	%rax, %rdi
	movq	128(%rsp), %rsi         # 8-byte Reload
.Ltmp484:
	#DEBUG_VALUE: updateSeparatingDistance:toPosB <- $rsi
	.loc	25 0 4                  # /home/chris/test-suite/MultiSource/Benchmarks/Bullet/include/LinearMath/btTransformUtil.h:0:4
	movq	%rdx, 56(%rsp)          # 8-byte Spill
	.loc	25 188 4                # /home/chris/test-suite/MultiSource/Benchmarks/Bullet/include/LinearMath/btTransformUtil.h:188:4
	movq	%rcx, %rdx
	movq	56(%rsp), %rcx          # 8-byte Reload
	movss	68(%rsp), %xmm0         # 4-byte Reload
                                        # xmm0 = mem[0],zero,zero,zero
	movq	80(%rsp), %r8           # 8-byte Reload
	movq	72(%rsp), %r9           # 8-byte Reload
	callq	_ZN15btTransformUtil27calculateVelocityQuaternionERK9btVector3S2_RK12btQuaternionS5_fRS0_S6_
.Ltmp485:
	.loc	25 0 4                  # /home/chris/test-suite/MultiSource/Benchmarks/Bullet/include/LinearMath/btTransformUtil.h:0:4
	movq	88(%rsp), %rdi          # 8-byte Reload
	.loc	25 189 51 is_stmt 1     # /home/chris/test-suite/MultiSource/Benchmarks/Bullet/include/LinearMath/btTransformUtil.h:189:51
	callq	_ZNK9btVector36lengthEv
.Ltmp486:
	.loc	25 0 51 is_stmt 0       # /home/chris/test-suite/MultiSource/Benchmarks/Bullet/include/LinearMath/btTransformUtil.h:0:51
	movq	160(%rsp), %rax         # 8-byte Reload
	.loc	25 189 62               # /home/chris/test-suite/MultiSource/Benchmarks/Bullet/include/LinearMath/btTransformUtil.h:189:62
	movss	80(%rax), %xmm1         # xmm1 = mem[0],zero,zero,zero
	.loc	25 189 60               # /home/chris/test-suite/MultiSource/Benchmarks/Bullet/include/LinearMath/btTransformUtil.h:189:60
	mulss	%xmm1, %xmm0
	movq	72(%rsp), %rdi          # 8-byte Reload
	movss	%xmm0, 52(%rsp)         # 4-byte Spill
	.loc	25 189 90               # /home/chris/test-suite/MultiSource/Benchmarks/Bullet/include/LinearMath/btTransformUtil.h:189:90
	callq	_ZNK9btVector36lengthEv
.Ltmp487:
	.loc	25 0 90                 # /home/chris/test-suite/MultiSource/Benchmarks/Bullet/include/LinearMath/btTransformUtil.h:0:90
	movq	160(%rsp), %rax         # 8-byte Reload
	.loc	25 189 101              # /home/chris/test-suite/MultiSource/Benchmarks/Bullet/include/LinearMath/btTransformUtil.h:189:101
	movss	84(%rax), %xmm1         # xmm1 = mem[0],zero,zero,zero
	.loc	25 189 99               # /home/chris/test-suite/MultiSource/Benchmarks/Bullet/include/LinearMath/btTransformUtil.h:189:99
	mulss	%xmm1, %xmm0
	movss	52(%rsp), %xmm1         # 4-byte Reload
                                        # xmm1 = mem[0],zero,zero,zero
	.loc	25 189 80               # /home/chris/test-suite/MultiSource/Benchmarks/Bullet/include/LinearMath/btTransformUtil.h:189:80
	addss	%xmm0, %xmm1
.Ltmp488:
	#DEBUG_VALUE: maxAngularProjectedVelocity <- $xmm1
	.loc	25 0 80                 # /home/chris/test-suite/MultiSource/Benchmarks/Bullet/include/LinearMath/btTransformUtil.h:0:80
	movq	80(%rsp), %rdi          # 8-byte Reload
	movq	96(%rsp), %rsi          # 8-byte Reload
	movss	%xmm1, 48(%rsp)         # 4-byte Spill
.Ltmp489:
	#DEBUG_VALUE: maxAngularProjectedVelocity <- [DW_OP_plus_uconst 48] [$rsp+0]
	#DEBUG_VALUE: maxAngularProjectedVelocity <- [DW_OP_plus_uconst 48] [$rsp+0]
	.loc	25 190 34 is_stmt 1     # /home/chris/test-suite/MultiSource/Benchmarks/Bullet/include/LinearMath/btTransformUtil.h:190:34
	callq	_ZmiRK9btVector3S1_
.Ltmp490:
	#DEBUG_VALUE: relLinVel <- [DW_OP_LLVM_fragment 0 64] undef
	#DEBUG_VALUE: relLinVel <- [DW_OP_LLVM_fragment 64 64] undef
	.loc	25 0 34 is_stmt 0       # /home/chris/test-suite/MultiSource/Benchmarks/Bullet/include/LinearMath/btTransformUtil.h:0:34
	movq	80(%rsp), %rdi          # 8-byte Reload
	movq	96(%rsp), %rsi          # 8-byte Reload
	movaps	%xmm0, 32(%rsp)         # 16-byte Spill
	movaps	%xmm1, 16(%rsp)         # 16-byte Spill
	.loc	25 191 41 is_stmt 1     # /home/chris/test-suite/MultiSource/Benchmarks/Bullet/include/LinearMath/btTransformUtil.h:191:41
	callq	_ZmiRK9btVector3S1_
.Ltmp491:
	movlpd	%xmm0, 168(%rsp)
	movlpd	%xmm1, 176(%rsp)
	movq	160(%rsp), %rax         # 8-byte Reload
	.loc	25 191 55 is_stmt 0     # /home/chris/test-suite/MultiSource/Benchmarks/Bullet/include/LinearMath/btTransformUtil.h:191:55
	addq	$64, %rax
	.loc	25 191 51               # /home/chris/test-suite/MultiSource/Benchmarks/Bullet/include/LinearMath/btTransformUtil.h:191:51
	leaq	168(%rsp), %rdi
	movq	%rax, %rsi
	callq	_ZNK9btVector33dotERKS_
.Ltmp492:
	#DEBUG_VALUE: relLinVelocLength <- $xmm0
	.loc	25 192 25 is_stmt 1     # /home/chris/test-suite/MultiSource/Benchmarks/Bullet/include/LinearMath/btTransformUtil.h:192:25
	xorps	%xmm1, %xmm1
	ucomiss	%xmm0, %xmm1
	movss	%xmm0, 12(%rsp)         # 4-byte Spill
.Ltmp493:
	#DEBUG_VALUE: relLinVelocLength <- [DW_OP_plus_uconst 12] [$rsp+0]
	.loc	25 192 8 is_stmt 0      # /home/chris/test-suite/MultiSource/Benchmarks/Bullet/include/LinearMath/btTransformUtil.h:192:8
	jbe	.LBB21_3
.Ltmp494:
# %bb.2:
	#DEBUG_VALUE: relLinVelocLength <- [DW_OP_plus_uconst 12] [$rsp+0]
	#DEBUG_VALUE: maxAngularProjectedVelocity <- [DW_OP_plus_uconst 48] [$rsp+0]
	#DEBUG_VALUE: updateSeparatingDistance:transB <- [DW_OP_plus_uconst 144] [$rsp+0]
	#DEBUG_VALUE: updateSeparatingDistance:transA <- [DW_OP_plus_uconst 152] [$rsp+0]
	#DEBUG_VALUE: relLinVelocLength <- 0.000000e+00
	.loc	25 195 4 is_stmt 1      # /home/chris/test-suite/MultiSource/Benchmarks/Bullet/include/LinearMath/btTransformUtil.h:195:4
	xorps	%xmm0, %xmm0
	movss	%xmm0, 12(%rsp)         # 4-byte Spill
	jmp	.LBB21_3
.Ltmp495:
.LBB21_3:
	#DEBUG_VALUE: maxAngularProjectedVelocity <- [DW_OP_plus_uconst 48] [$rsp+0]
	#DEBUG_VALUE: updateSeparatingDistance:transB <- [DW_OP_plus_uconst 144] [$rsp+0]
	#DEBUG_VALUE: updateSeparatingDistance:transA <- [DW_OP_plus_uconst 152] [$rsp+0]
	.loc	25 0 4 is_stmt 0        # /home/chris/test-suite/MultiSource/Benchmarks/Bullet/include/LinearMath/btTransformUtil.h:0:4
	movss	12(%rsp), %xmm0         # 4-byte Reload
                                        # xmm0 = mem[0],zero,zero,zero
.Ltmp496:
	#DEBUG_VALUE: relLinVelocLength <- $xmm0
	movss	48(%rsp), %xmm1         # 4-byte Reload
                                        # xmm1 = mem[0],zero,zero,zero
	.loc	25 197 59 is_stmt 1     # /home/chris/test-suite/MultiSource/Benchmarks/Bullet/include/LinearMath/btTransformUtil.h:197:59
	addss	%xmm0, %xmm1
.Ltmp497:
	#DEBUG_VALUE: projectedMotion <- $xmm1
	.loc	25 0 59 is_stmt 0       # /home/chris/test-suite/MultiSource/Benchmarks/Bullet/include/LinearMath/btTransformUtil.h:0:59
	movq	104(%rsp), %rax         # 8-byte Reload
	.loc	25 198 25 is_stmt 1     # /home/chris/test-suite/MultiSource/Benchmarks/Bullet/include/LinearMath/btTransformUtil.h:198:25
	movss	(%rax), %xmm0           # xmm0 = mem[0],zero,zero,zero
.Ltmp498:
	subss	%xmm1, %xmm0
	movss	%xmm0, (%rax)
.Ltmp499:
.LBB21_4:
	#DEBUG_VALUE: updateSeparatingDistance:transB <- [DW_OP_plus_uconst 144] [$rsp+0]
	#DEBUG_VALUE: updateSeparatingDistance:transA <- [DW_OP_plus_uconst 152] [$rsp+0]
	.loc	25 0 25 is_stmt 0       # /home/chris/test-suite/MultiSource/Benchmarks/Bullet/include/LinearMath/btTransformUtil.h:0:25
	movq	136(%rsp), %rax         # 8-byte Reload
	.loc	25 201 10 is_stmt 1     # /home/chris/test-suite/MultiSource/Benchmarks/Bullet/include/LinearMath/btTransformUtil.h:201:10
	movq	(%rax), %rcx
	movq	160(%rsp), %rdx         # 8-byte Reload
	movq	%rcx, 32(%rdx)
	movq	8(%rax), %rcx
	movq	%rcx, 40(%rdx)
	movq	128(%rsp), %rcx         # 8-byte Reload
	.loc	25 202 10               # /home/chris/test-suite/MultiSource/Benchmarks/Bullet/include/LinearMath/btTransformUtil.h:202:10
	movq	(%rcx), %rsi
	movq	%rsi, 48(%rdx)
	movq	8(%rcx), %rsi
	movq	%rsi, 56(%rdx)
	movq	120(%rsp), %rsi         # 8-byte Reload
	.loc	25 203 10               # /home/chris/test-suite/MultiSource/Benchmarks/Bullet/include/LinearMath/btTransformUtil.h:203:10
	movq	(%rsi), %rdi
	movq	%rdi, (%rdx)
	movq	8(%rsi), %rdi
	movq	%rdi, 8(%rdx)
	movq	112(%rsp), %rdi         # 8-byte Reload
	.loc	25 204 10               # /home/chris/test-suite/MultiSource/Benchmarks/Bullet/include/LinearMath/btTransformUtil.h:204:10
	movq	(%rdi), %r8
	movq	%r8, 16(%rdx)
	movq	8(%rdi), %r8
	movq	%r8, 24(%rdx)
	.loc	25 205 2                # /home/chris/test-suite/MultiSource/Benchmarks/Bullet/include/LinearMath/btTransformUtil.h:205:2
	addq	$280, %rsp              # imm = 0x118
	.cfi_def_cfa_offset 8
	retq
.Ltmp500:
.Lfunc_end21:
	.size	_ZN30btConvexSeparatingDistanceUtil24updateSeparatingDistanceERK11btTransformS2_, .Lfunc_end21-_ZN30btConvexSeparatingDistanceUtil24updateSeparatingDistanceERK11btTransformS2_
	.cfi_endproc
                                        # -- End function
	.section	.text._ZN30btConvexSeparatingDistanceUtil33getConservativeSeparatingDistanceEv,"axG",@progbits,_ZN30btConvexSeparatingDistanceUtil33getConservativeSeparatingDistanceEv,comdat
	.weak	_ZN30btConvexSeparatingDistanceUtil33getConservativeSeparatingDistanceEv # -- Begin function _ZN30btConvexSeparatingDistanceUtil33getConservativeSeparatingDistanceEv
	.p2align	4, 0x90
	.type	_ZN30btConvexSeparatingDistanceUtil33getConservativeSeparatingDistanceEv,@function
_ZN30btConvexSeparatingDistanceUtil33getConservativeSeparatingDistanceEv: # @_ZN30btConvexSeparatingDistanceUtil33getConservativeSeparatingDistanceEv
.Lfunc_begin22:
	.loc	25 171 0                # /home/chris/test-suite/MultiSource/Benchmarks/Bullet/include/LinearMath/btTransformUtil.h:171:0
	.cfi_startproc
# %bb.0:
	#DEBUG_VALUE: getConservativeSeparatingDistance:this <- $rdi
	.loc	25 172 10 prologue_end  # /home/chris/test-suite/MultiSource/Benchmarks/Bullet/include/LinearMath/btTransformUtil.h:172:10
	movss	88(%rdi), %xmm0         # xmm0 = mem[0],zero,zero,zero
	.loc	25 172 3 is_stmt 0      # /home/chris/test-suite/MultiSource/Benchmarks/Bullet/include/LinearMath/btTransformUtil.h:172:3
	retq
.Ltmp501:
.Lfunc_end22:
	.size	_ZN30btConvexSeparatingDistanceUtil33getConservativeSeparatingDistanceEv, .Lfunc_end22-_ZN30btConvexSeparatingDistanceUtil33getConservativeSeparatingDistanceEv
	.cfi_endproc
                                        # -- End function
	.section	.rodata.cst4,"aM",@progbits,4
	.p2align	2               # -- Begin function _ZN36btDiscreteCollisionDetectorInterface17ClosestPointInputC2Ev
.LCPI23_0:
	.long	1566444395              # float 9.99999984E+17
	.section	.text._ZN36btDiscreteCollisionDetectorInterface17ClosestPointInputC2Ev,"axG",@progbits,_ZN36btDiscreteCollisionDetectorInterface17ClosestPointInputC2Ev,comdat
	.weak	_ZN36btDiscreteCollisionDetectorInterface17ClosestPointInputC2Ev
	.p2align	4, 0x90
	.type	_ZN36btDiscreteCollisionDetectorInterface17ClosestPointInputC2Ev,@function
_ZN36btDiscreteCollisionDetectorInterface17ClosestPointInputC2Ev: # @_ZN36btDiscreteCollisionDetectorInterface17ClosestPointInputC2Ev
.Lfunc_begin23:
	.loc	36 47 0 is_stmt 1       # /home/chris/test-suite/MultiSource/Benchmarks/Bullet/include/BulletCollision/NarrowPhaseCollision/btDiscreteCollisionDetectorInterface.h:47:0
	.cfi_startproc
# %bb.0:
	#DEBUG_VALUE: ClosestPointInput:this <- $rdi
	pushq	%rax
	.cfi_def_cfa_offset 16
	movq	%rdi, (%rsp)            # 8-byte Spill
.Ltmp502:
	#DEBUG_VALUE: ClosestPointInput:this <- [$rsp+0]
	.loc	36 44 3 prologue_end    # /home/chris/test-suite/MultiSource/Benchmarks/Bullet/include/BulletCollision/NarrowPhaseCollision/btDiscreteCollisionDetectorInterface.h:44:3
	callq	_ZN11btTransformC2Ev
.Ltmp503:
	.loc	36 0 3 is_stmt 0        # /home/chris/test-suite/MultiSource/Benchmarks/Bullet/include/BulletCollision/NarrowPhaseCollision/btDiscreteCollisionDetectorInterface.h:0:3
	movq	(%rsp), %rax            # 8-byte Reload
	.loc	36 44 3                 # /home/chris/test-suite/MultiSource/Benchmarks/Bullet/include/BulletCollision/NarrowPhaseCollision/btDiscreteCollisionDetectorInterface.h:44:3
	addq	$64, %rax
	movq	%rax, %rdi
	callq	_ZN11btTransformC2Ev
.Ltmp504:
	.loc	36 0 3                  # /home/chris/test-suite/MultiSource/Benchmarks/Bullet/include/BulletCollision/NarrowPhaseCollision/btDiscreteCollisionDetectorInterface.h:0:3
	movss	.LCPI23_0(%rip), %xmm0  # xmm0 = mem[0],zero,zero,zero
	movq	(%rsp), %rax            # 8-byte Reload
	.loc	36 45 5 is_stmt 1       # /home/chris/test-suite/MultiSource/Benchmarks/Bullet/include/BulletCollision/NarrowPhaseCollision/btDiscreteCollisionDetectorInterface.h:45:5
	movss	%xmm0, 128(%rax)
	.loc	36 46 4                 # /home/chris/test-suite/MultiSource/Benchmarks/Bullet/include/BulletCollision/NarrowPhaseCollision/btDiscreteCollisionDetectorInterface.h:46:4
	movq	$0, 136(%rax)
	.loc	36 48 3                 # /home/chris/test-suite/MultiSource/Benchmarks/Bullet/include/BulletCollision/NarrowPhaseCollision/btDiscreteCollisionDetectorInterface.h:48:3
	popq	%rax
	.cfi_def_cfa_offset 8
	retq
.Ltmp505:
.Lfunc_end23:
	.size	_ZN36btDiscreteCollisionDetectorInterface17ClosestPointInputC2Ev, .Lfunc_end23-_ZN36btDiscreteCollisionDetectorInterface17ClosestPointInputC2Ev
	.cfi_endproc
                                        # -- End function
	.section	.text._ZN17btGjkPairDetector13setMinkowskiAEP13btConvexShape,"axG",@progbits,_ZN17btGjkPairDetector13setMinkowskiAEP13btConvexShape,comdat
	.weak	_ZN17btGjkPairDetector13setMinkowskiAEP13btConvexShape # -- Begin function _ZN17btGjkPairDetector13setMinkowskiAEP13btConvexShape
	.p2align	4, 0x90
	.type	_ZN17btGjkPairDetector13setMinkowskiAEP13btConvexShape,@function
_ZN17btGjkPairDetector13setMinkowskiAEP13btConvexShape: # @_ZN17btGjkPairDetector13setMinkowskiAEP13btConvexShape
.Lfunc_begin24:
	.loc	37 67 0                 # /home/chris/test-suite/MultiSource/Benchmarks/Bullet/include/BulletCollision/NarrowPhaseCollision/btGjkPairDetector.h:67:0
	.cfi_startproc
# %bb.0:
	#DEBUG_VALUE: setMinkowskiA:this <- $rdi
	#DEBUG_VALUE: setMinkowskiA:minkA <- $rsi
	.loc	37 68 16 prologue_end   # /home/chris/test-suite/MultiSource/Benchmarks/Bullet/include/BulletCollision/NarrowPhaseCollision/btGjkPairDetector.h:68:16
	movq	%rsi, 40(%rdi)
	.loc	37 69 2                 # /home/chris/test-suite/MultiSource/Benchmarks/Bullet/include/BulletCollision/NarrowPhaseCollision/btGjkPairDetector.h:69:2
	retq
.Ltmp506:
.Lfunc_end24:
	.size	_ZN17btGjkPairDetector13setMinkowskiAEP13btConvexShape, .Lfunc_end24-_ZN17btGjkPairDetector13setMinkowskiAEP13btConvexShape
	.cfi_endproc
                                        # -- End function
	.section	.text._ZN17btGjkPairDetector13setMinkowskiBEP13btConvexShape,"axG",@progbits,_ZN17btGjkPairDetector13setMinkowskiBEP13btConvexShape,comdat
	.weak	_ZN17btGjkPairDetector13setMinkowskiBEP13btConvexShape # -- Begin function _ZN17btGjkPairDetector13setMinkowskiBEP13btConvexShape
	.p2align	4, 0x90
	.type	_ZN17btGjkPairDetector13setMinkowskiBEP13btConvexShape,@function
_ZN17btGjkPairDetector13setMinkowskiBEP13btConvexShape: # @_ZN17btGjkPairDetector13setMinkowskiBEP13btConvexShape
.Lfunc_begin25:
	.loc	37 72 0                 # /home/chris/test-suite/MultiSource/Benchmarks/Bullet/include/BulletCollision/NarrowPhaseCollision/btGjkPairDetector.h:72:0
	.cfi_startproc
# %bb.0:
	#DEBUG_VALUE: setMinkowskiB:this <- $rdi
	#DEBUG_VALUE: setMinkowskiB:minkB <- $rsi
	.loc	37 73 16 prologue_end   # /home/chris/test-suite/MultiSource/Benchmarks/Bullet/include/BulletCollision/NarrowPhaseCollision/btGjkPairDetector.h:73:16
	movq	%rsi, 48(%rdi)
	.loc	37 74 2                 # /home/chris/test-suite/MultiSource/Benchmarks/Bullet/include/BulletCollision/NarrowPhaseCollision/btGjkPairDetector.h:74:2
	retq
.Ltmp507:
.Lfunc_end25:
	.size	_ZN17btGjkPairDetector13setMinkowskiBEP13btConvexShape, .Lfunc_end25-_ZN17btGjkPairDetector13setMinkowskiBEP13btConvexShape
	.cfi_endproc
                                        # -- End function
	.section	.text._ZN11btTransformaSERKS_,"axG",@progbits,_ZN11btTransformaSERKS_,comdat
	.weak	_ZN11btTransformaSERKS_ # -- Begin function _ZN11btTransformaSERKS_
	.p2align	4, 0x90
	.type	_ZN11btTransformaSERKS_,@function
_ZN11btTransformaSERKS_:                # @_ZN11btTransformaSERKS_
.Lfunc_begin26:
	.loc	12 58 0                 # /home/chris/test-suite/MultiSource/Benchmarks/Bullet/include/LinearMath/btTransform.h:58:0
	.cfi_startproc
# %bb.0:
	#DEBUG_VALUE: operator=:this <- $rdi
	#DEBUG_VALUE: operator=:other <- $rsi
	subq	$24, %rsp
	.cfi_def_cfa_offset 32
	movq	%rdi, 16(%rsp)          # 8-byte Spill
.Ltmp508:
	#DEBUG_VALUE: operator=:this <- [DW_OP_plus_uconst 16] [$rsp+0]
	movq	%rsi, 8(%rsp)           # 8-byte Spill
.Ltmp509:
	#DEBUG_VALUE: operator=:other <- [DW_OP_plus_uconst 8] [$rsp+0]
	.loc	12 59 11 prologue_end   # /home/chris/test-suite/MultiSource/Benchmarks/Bullet/include/LinearMath/btTransform.h:59:11
	callq	_ZN11btMatrix3x3aSERKS_
.Ltmp510:
	.loc	12 0 11 is_stmt 0       # /home/chris/test-suite/MultiSource/Benchmarks/Bullet/include/LinearMath/btTransform.h:0:11
	movq	8(%rsp), %rcx           # 8-byte Reload
	.loc	12 60 12 is_stmt 1      # /home/chris/test-suite/MultiSource/Benchmarks/Bullet/include/LinearMath/btTransform.h:60:12
	movq	48(%rcx), %rdx
	movq	16(%rsp), %rsi          # 8-byte Reload
	movq	%rdx, 48(%rsi)
	movq	56(%rcx), %rdx
	movq	%rdx, 56(%rsi)
	movq	%rax, (%rsp)            # 8-byte Spill
	.loc	12 61 3                 # /home/chris/test-suite/MultiSource/Benchmarks/Bullet/include/LinearMath/btTransform.h:61:3
	movq	%rsi, %rax
	addq	$24, %rsp
	.cfi_def_cfa_offset 8
	retq
.Ltmp511:
.Lfunc_end26:
	.size	_ZN11btTransformaSERKS_, .Lfunc_end26-_ZN11btTransformaSERKS_
	.cfi_endproc
                                        # -- End function
	.section	.text._ZNK17btGjkPairDetector27getCachedSeparatingDistanceEv,"axG",@progbits,_ZNK17btGjkPairDetector27getCachedSeparatingDistanceEv,comdat
	.weak	_ZNK17btGjkPairDetector27getCachedSeparatingDistanceEv # -- Begin function _ZNK17btGjkPairDetector27getCachedSeparatingDistanceEv
	.p2align	4, 0x90
	.type	_ZNK17btGjkPairDetector27getCachedSeparatingDistanceEv,@function
_ZNK17btGjkPairDetector27getCachedSeparatingDistanceEv: # @_ZNK17btGjkPairDetector27getCachedSeparatingDistanceEv
.Lfunc_begin27:
	.loc	37 85 0                 # /home/chris/test-suite/MultiSource/Benchmarks/Bullet/include/BulletCollision/NarrowPhaseCollision/btGjkPairDetector.h:85:0
	.cfi_startproc
# %bb.0:
	#DEBUG_VALUE: getCachedSeparatingDistance:this <- $rdi
	.loc	37 86 10 prologue_end   # /home/chris/test-suite/MultiSource/Benchmarks/Bullet/include/BulletCollision/NarrowPhaseCollision/btGjkPairDetector.h:86:10
	movss	76(%rdi), %xmm0         # xmm0 = mem[0],zero,zero,zero
	.loc	37 86 3 is_stmt 0       # /home/chris/test-suite/MultiSource/Benchmarks/Bullet/include/BulletCollision/NarrowPhaseCollision/btGjkPairDetector.h:86:3
	retq
.Ltmp512:
.Lfunc_end27:
	.size	_ZNK17btGjkPairDetector27getCachedSeparatingDistanceEv, .Lfunc_end27-_ZNK17btGjkPairDetector27getCachedSeparatingDistanceEv
	.cfi_endproc
                                        # -- End function
	.section	.text._ZNK17btGjkPairDetector23getCachedSeparatingAxisEv,"axG",@progbits,_ZNK17btGjkPairDetector23getCachedSeparatingAxisEv,comdat
	.weak	_ZNK17btGjkPairDetector23getCachedSeparatingAxisEv # -- Begin function _ZNK17btGjkPairDetector23getCachedSeparatingAxisEv
	.p2align	4, 0x90
	.type	_ZNK17btGjkPairDetector23getCachedSeparatingAxisEv,@function
_ZNK17btGjkPairDetector23getCachedSeparatingAxisEv: # @_ZNK17btGjkPairDetector23getCachedSeparatingAxisEv
.Lfunc_begin28:
	.loc	37 81 0 is_stmt 1       # /home/chris/test-suite/MultiSource/Benchmarks/Bullet/include/BulletCollision/NarrowPhaseCollision/btGjkPairDetector.h:81:0
	.cfi_startproc
# %bb.0:
	#DEBUG_VALUE: getCachedSeparatingAxis:this <- $rdi
	.loc	37 82 10 prologue_end   # /home/chris/test-suite/MultiSource/Benchmarks/Bullet/include/BulletCollision/NarrowPhaseCollision/btGjkPairDetector.h:82:10
	addq	$8, %rdi
.Ltmp513:
	.loc	37 82 3 is_stmt 0       # /home/chris/test-suite/MultiSource/Benchmarks/Bullet/include/BulletCollision/NarrowPhaseCollision/btGjkPairDetector.h:82:3
	movq	%rdi, %rax
	retq
.Ltmp514:
.Lfunc_end28:
	.size	_ZNK17btGjkPairDetector23getCachedSeparatingAxisEv, .Lfunc_end28-_ZNK17btGjkPairDetector23getCachedSeparatingAxisEv
	.cfi_endproc
                                        # -- End function
	.section	.text._ZNK9btVector310normalizedEv,"axG",@progbits,_ZNK9btVector310normalizedEv,comdat
	.weak	_ZNK9btVector310normalizedEv # -- Begin function _ZNK9btVector310normalizedEv
	.p2align	4, 0x90
	.type	_ZNK9btVector310normalizedEv,@function
_ZNK9btVector310normalizedEv:           # @_ZNK9btVector310normalizedEv
.Lfunc_begin29:
	.loc	5 445 0 is_stmt 1       # /home/chris/test-suite/MultiSource/Benchmarks/Bullet/include/LinearMath/btVector3.h:445:0
	.cfi_startproc
# %bb.0:
	#DEBUG_VALUE: normalized:this <- $rdi
	subq	$24, %rsp
	.cfi_def_cfa_offset 32
	movq	%rdi, 8(%rsp)           # 8-byte Spill
.Ltmp515:
	#DEBUG_VALUE: normalized:this <- [DW_OP_plus_uconst 8] [$rsp+0]
	.loc	5 446 17 prologue_end   # /home/chris/test-suite/MultiSource/Benchmarks/Bullet/include/LinearMath/btVector3.h:446:17
	callq	_ZNK9btVector36lengthEv
.Ltmp516:
	movss	%xmm0, 20(%rsp)
	leaq	20(%rsp), %rsi
	movq	8(%rsp), %rdi           # 8-byte Reload
	.loc	5 446 15 is_stmt 0      # /home/chris/test-suite/MultiSource/Benchmarks/Bullet/include/LinearMath/btVector3.h:446:15
	callq	_ZdvRK9btVector3RKf
.Ltmp517:
	.loc	5 446 2                 # /home/chris/test-suite/MultiSource/Benchmarks/Bullet/include/LinearMath/btVector3.h:446:2
	addq	$24, %rsp
	.cfi_def_cfa_offset 8
	retq
.Ltmp518:
.Lfunc_end29:
	.size	_ZNK9btVector310normalizedEv, .Lfunc_end29-_ZNK9btVector310normalizedEv
	.cfi_endproc
                                        # -- End function
	.section	.rodata.cst4,"aM",@progbits,4
	.p2align	2               # -- Begin function _Z13btPlaneSpace1RK9btVector3RS_S2_
.LCPI30_0:
	.long	1060439283              # float 0.707106769
.LCPI30_1:
	.long	1065353216              # float 1
	.section	.text._Z13btPlaneSpace1RK9btVector3RS_S2_,"axG",@progbits,_Z13btPlaneSpace1RK9btVector3RS_S2_,comdat
	.weak	_Z13btPlaneSpace1RK9btVector3RS_S2_
	.p2align	4, 0x90
	.type	_Z13btPlaneSpace1RK9btVector3RS_S2_,@function
_Z13btPlaneSpace1RK9btVector3RS_S2_:    # @_Z13btPlaneSpace1RK9btVector3RS_S2_
.Lfunc_begin30:
	.loc	5 641 0 is_stmt 1       # /home/chris/test-suite/MultiSource/Benchmarks/Bullet/include/LinearMath/btVector3.h:641:0
	.cfi_startproc
# %bb.0:
	#DEBUG_VALUE: btPlaneSpace1:n <- $rdi
	#DEBUG_VALUE: btPlaneSpace1:p <- $rsi
	#DEBUG_VALUE: btPlaneSpace1:q <- $rdx
	subq	$136, %rsp
	.cfi_def_cfa_offset 144
	movq	%rdi, 80(%rsp)          # 8-byte Spill
.Ltmp519:
	#DEBUG_VALUE: btPlaneSpace1:n <- [DW_OP_plus_uconst 80] [$rsp+0]
	movq	%rsi, 72(%rsp)          # 8-byte Spill
.Ltmp520:
	#DEBUG_VALUE: btPlaneSpace1:p <- [DW_OP_plus_uconst 72] [$rsp+0]
	#DEBUG_VALUE: btPlaneSpace1:p <- [DW_OP_plus_uconst 72] [$rsp+0]
	movq	%rdx, 64(%rsp)          # 8-byte Spill
.Ltmp521:
	#DEBUG_VALUE: btPlaneSpace1:q <- [DW_OP_plus_uconst 64] [$rsp+0]
	#DEBUG_VALUE: btPlaneSpace1:q <- [DW_OP_plus_uconst 64] [$rsp+0]
	.loc	5 642 16 prologue_end   # /home/chris/test-suite/MultiSource/Benchmarks/Bullet/include/LinearMath/btVector3.h:642:16
	callq	_ZNK9btVector31zEv
.Ltmp522:
	movss	(%rax), %xmm0           # xmm0 = mem[0],zero,zero,zero
	.loc	5 642 7 is_stmt 0       # /home/chris/test-suite/MultiSource/Benchmarks/Bullet/include/LinearMath/btVector3.h:642:7
	callq	_Z6btFabsf
.Ltmp523:
	.loc	5 0 7                   # /home/chris/test-suite/MultiSource/Benchmarks/Bullet/include/LinearMath/btVector3.h:0:7
	movss	.LCPI30_0(%rip), %xmm1  # xmm1 = mem[0],zero,zero,zero
	.loc	5 642 21                # /home/chris/test-suite/MultiSource/Benchmarks/Bullet/include/LinearMath/btVector3.h:642:21
	ucomiss	%xmm1, %xmm0
.Ltmp524:
	.loc	5 642 7                 # /home/chris/test-suite/MultiSource/Benchmarks/Bullet/include/LinearMath/btVector3.h:642:7
	jbe	.LBB30_2
.Ltmp525:
# %bb.1:
	#DEBUG_VALUE: btPlaneSpace1:q <- [DW_OP_plus_uconst 64] [$rsp+0]
	#DEBUG_VALUE: btPlaneSpace1:p <- [DW_OP_plus_uconst 72] [$rsp+0]
	#DEBUG_VALUE: btPlaneSpace1:n <- [DW_OP_plus_uconst 80] [$rsp+0]
	.loc	5 0 7                   # /home/chris/test-suite/MultiSource/Benchmarks/Bullet/include/LinearMath/btVector3.h:0:7
	movq	80(%rsp), %rdi          # 8-byte Reload
.Ltmp526:
	.loc	5 644 18 is_stmt 1      # /home/chris/test-suite/MultiSource/Benchmarks/Bullet/include/LinearMath/btVector3.h:644:18
	callq	_ZNK9btVector3cvPKfEv
.Ltmp527:
	movss	4(%rax), %xmm0          # xmm0 = mem[0],zero,zero,zero
	movq	80(%rsp), %rdi          # 8-byte Reload
	movss	%xmm0, 60(%rsp)         # 4-byte Spill
	.loc	5 644 23 is_stmt 0      # /home/chris/test-suite/MultiSource/Benchmarks/Bullet/include/LinearMath/btVector3.h:644:23
	callq	_ZNK9btVector3cvPKfEv
.Ltmp528:
	.loc	5 0 23                  # /home/chris/test-suite/MultiSource/Benchmarks/Bullet/include/LinearMath/btVector3.h:0:23
	movss	60(%rsp), %xmm0         # 4-byte Reload
                                        # xmm0 = mem[0],zero,zero,zero
	.loc	5 644 22                # /home/chris/test-suite/MultiSource/Benchmarks/Bullet/include/LinearMath/btVector3.h:644:22
	mulss	4(%rax), %xmm0
	movq	80(%rsp), %rdi          # 8-byte Reload
	movss	%xmm0, 56(%rsp)         # 4-byte Spill
	.loc	5 644 30                # /home/chris/test-suite/MultiSource/Benchmarks/Bullet/include/LinearMath/btVector3.h:644:30
	callq	_ZNK9btVector3cvPKfEv
.Ltmp529:
	movss	8(%rax), %xmm0          # xmm0 = mem[0],zero,zero,zero
	movq	80(%rsp), %rdi          # 8-byte Reload
	movss	%xmm0, 52(%rsp)         # 4-byte Spill
	.loc	5 644 35                # /home/chris/test-suite/MultiSource/Benchmarks/Bullet/include/LinearMath/btVector3.h:644:35
	callq	_ZNK9btVector3cvPKfEv
.Ltmp530:
	.loc	5 0 35                  # /home/chris/test-suite/MultiSource/Benchmarks/Bullet/include/LinearMath/btVector3.h:0:35
	movss	52(%rsp), %xmm0         # 4-byte Reload
                                        # xmm0 = mem[0],zero,zero,zero
	.loc	5 644 34                # /home/chris/test-suite/MultiSource/Benchmarks/Bullet/include/LinearMath/btVector3.h:644:34
	mulss	8(%rax), %xmm0
	movss	56(%rsp), %xmm1         # 4-byte Reload
                                        # xmm1 = mem[0],zero,zero,zero
	.loc	5 644 28                # /home/chris/test-suite/MultiSource/Benchmarks/Bullet/include/LinearMath/btVector3.h:644:28
	addss	%xmm0, %xmm1
.Ltmp531:
	#DEBUG_VALUE: a <- $xmm1
	.loc	5 645 18 is_stmt 1      # /home/chris/test-suite/MultiSource/Benchmarks/Bullet/include/LinearMath/btVector3.h:645:18
	movaps	%xmm1, %xmm0
	movss	%xmm1, 48(%rsp)         # 4-byte Spill
.Ltmp532:
	#DEBUG_VALUE: a <- [DW_OP_plus_uconst 48] [$rsp+0]
	#DEBUG_VALUE: a <- [DW_OP_plus_uconst 48] [$rsp+0]
	callq	_Z6btSqrtf
.Ltmp533:
	.loc	5 0 18 is_stmt 0        # /home/chris/test-suite/MultiSource/Benchmarks/Bullet/include/LinearMath/btVector3.h:0:18
	movss	.LCPI30_1(%rip), %xmm1  # xmm1 = mem[0],zero,zero,zero
	.loc	5 645 18                # /home/chris/test-suite/MultiSource/Benchmarks/Bullet/include/LinearMath/btVector3.h:645:18
	divss	%xmm0, %xmm1
.Ltmp534:
	#DEBUG_VALUE: k <- $xmm1
	.loc	5 646 16 is_stmt 1      # /home/chris/test-suite/MultiSource/Benchmarks/Bullet/include/LinearMath/btVector3.h:646:16
	xorps	%xmm0, %xmm0
	movss	%xmm0, 132(%rsp)
	movq	80(%rsp), %rdi          # 8-byte Reload
	movss	%xmm1, 44(%rsp)         # 4-byte Spill
.Ltmp535:
	#DEBUG_VALUE: k <- [DW_OP_plus_uconst 44] [$rsp+0]
