	.text
	.file	"SwfHandler.cpp"
	.file	1 "/home/chris/test-suite/MultiSource/Benchmarks/7zip/CPP/Windows/../Common" "MyWindows.h"
	.file	2 "/home/chris/test-suite/MultiSource/Benchmarks/7zip/CPP/include_windows" "windows.h"
	.file	3 "/home/chris/test-suite/MultiSource/Benchmarks/7zip/CPP/Common/../../C" "Types.h"
	.file	4 "/home/chris/test-suite/MultiSource/Benchmarks/7zip/CPP/7zip/Archive" "SwfHandler.cpp"
	.file	5 "/home/chris/test-suite/MultiSource/Benchmarks/7zip/CPP/7zip/Archive/../Common" "RegisterArc.h"
	.file	6 "/home/chris/test-suite/MultiSource/Benchmarks/7zip/CPP/Common" "MyGuidDef.h"
	.file	7 "/home/chris/test-suite/MultiSource/Benchmarks/7zip/CPP/7zip/Archive/../Common/../Archive" "IArchive.h"
	.file	8 "/data/proj/compiler/llvm" "llvm-project/build/lib/clang/10.0.0/include/stddef.h"
	.file	9 "/home/chris/test-suite/MultiSource/Benchmarks/7zip/CPP/Common" "Buffer.h"
	.file	10 "/usr/include" "stdlib.h"
	.file	11 "/usr/lib/gcc/x86_64-linux-gnu/7.4.0/../../../../include/c++/7.4.0/bits" "std_abs.h"
	.file	12 "/usr/lib/gcc/x86_64-linux-gnu/7.4.0/../../../../include/c++/7.4.0" "cstdlib"
	.file	13 "/usr/include/x86_64-linux-gnu/bits" "stdlib-float.h"
	.file	14 "/usr/include/x86_64-linux-gnu/bits" "stdlib-bsearch.h"
	.file	15 "/usr/lib/gcc/x86_64-linux-gnu/7.4.0/../../../../include/c++/7.4.0" "stdlib.h"
	.file	16 "/usr/include/x86_64-linux-gnu/bits" "mathcalls.h"
	.file	17 "/usr/lib/gcc/x86_64-linux-gnu/7.4.0/../../../../include/c++/7.4.0" "cmath"
	.file	18 "/usr/include" "math.h"
	.file	19 "/usr/lib/gcc/x86_64-linux-gnu/7.4.0/../../../../include/c++/7.4.0" "math.h"
	.globl	_ZN8NArchive4NSwf8CHandler21GetNumberOfPropertiesEPj # -- Begin function _ZN8NArchive4NSwf8CHandler21GetNumberOfPropertiesEPj
	.p2align	4, 0x90
	.type	_ZN8NArchive4NSwf8CHandler21GetNumberOfPropertiesEPj,@function
_ZN8NArchive4NSwf8CHandler21GetNumberOfPropertiesEPj: # @_ZN8NArchive4NSwf8CHandler21GetNumberOfPropertiesEPj
.Lfunc_begin0:
	.loc	4 66 0                  # /home/chris/test-suite/MultiSource/Benchmarks/7zip/CPP/7zip/Archive/SwfHandler.cpp:66:0
	.cfi_startproc
# %bb.0:                                # %entry
	#DEBUG_VALUE: GetNumberOfProperties:numProperties <- $rsi
	#DEBUG_VALUE: GetNumberOfProperties:numProperties <- $rsi
	#DEBUG_VALUE: GetNumberOfProperties:this <- undef
	.loc	4 66 1 prologue_end     # /home/chris/test-suite/MultiSource/Benchmarks/7zip/CPP/7zip/Archive/SwfHandler.cpp:66:1
	movl	$3, (%rsi)
	xorl	%eax, %eax
	retq
.Ltmp0:
.Lfunc_end0:
	.size	_ZN8NArchive4NSwf8CHandler21GetNumberOfPropertiesEPj, .Lfunc_end0-_ZN8NArchive4NSwf8CHandler21GetNumberOfPropertiesEPj
	.cfi_endproc
	.file	20 "/home/chris/test-suite/MultiSource/Benchmarks/7zip/CPP/Common" "MyCom.h"
	.file	21 "/home/chris/test-suite/MultiSource/Benchmarks/7zip/CPP/Common" "MyVector.h"
                                        # -- End function
	.globl	_ZN8NArchive4NSwf8CHandler15GetPropertyInfoEjPPwPjPt # -- Begin function _ZN8NArchive4NSwf8CHandler15GetPropertyInfoEjPPwPjPt
	.p2align	4, 0x90
	.type	_ZN8NArchive4NSwf8CHandler15GetPropertyInfoEjPPwPjPt,@function
_ZN8NArchive4NSwf8CHandler15GetPropertyInfoEjPPwPjPt: # @_ZN8NArchive4NSwf8CHandler15GetPropertyInfoEjPPwPjPt
.Lfunc_begin1:
	.loc	4 66 0                  # /home/chris/test-suite/MultiSource/Benchmarks/7zip/CPP/7zip/Archive/SwfHandler.cpp:66:0
	.cfi_startproc
# %bb.0:                                # %entry
	#DEBUG_VALUE: GetPropertyInfo:index <- $esi
	#DEBUG_VALUE: GetPropertyInfo:index <- $esi
	#DEBUG_VALUE: GetPropertyInfo:name <- $rdx
	#DEBUG_VALUE: GetPropertyInfo:name <- $rdx
	#DEBUG_VALUE: GetPropertyInfo:propID <- $rcx
	#DEBUG_VALUE: GetPropertyInfo:propID <- $rcx
	#DEBUG_VALUE: GetPropertyInfo:varType <- $r8
	#DEBUG_VALUE: GetPropertyInfo:varType <- $r8
	#DEBUG_VALUE: GetPropertyInfo:this <- undef
	movl	$-2147024809, %eax      # imm = 0x80070057
.Ltmp1:
	.loc	4 66 1 prologue_end     # /home/chris/test-suite/MultiSource/Benchmarks/7zip/CPP/7zip/Archive/SwfHandler.cpp:66:1
	cmpl	$2, %esi
.Ltmp2:
	.loc	4 66 1 is_stmt 0        # /home/chris/test-suite/MultiSource/Benchmarks/7zip/CPP/7zip/Archive/SwfHandler.cpp:66:1
	ja	.LBB1_2
.Ltmp3:
# %bb.1:                                # %if.end
	#DEBUG_VALUE: GetPropertyInfo:varType <- $r8
	#DEBUG_VALUE: GetPropertyInfo:propID <- $rcx
	#DEBUG_VALUE: GetPropertyInfo:name <- $rdx
	#DEBUG_VALUE: GetPropertyInfo:index <- $esi
	.loc	4 66 1                  # /home/chris/test-suite/MultiSource/Benchmarks/7zip/CPP/7zip/Archive/SwfHandler.cpp:66:1
	movl	%esi, %eax
.Ltmp4:
	.loc	4 66 1                  # /home/chris/test-suite/MultiSource/Benchmarks/7zip/CPP/7zip/Archive/SwfHandler.cpp:66:1
	shlq	$4, %rax
	movl	_ZN8NArchive4NSwf6kPropsE+8(%rax), %esi
.Ltmp5:
	movl	%esi, (%rcx)
	movzwl	_ZN8NArchive4NSwf6kPropsE+12(%rax), %eax
	movw	%ax, (%r8)
	movq	$0, (%rdx)
	xorl	%eax, %eax
.Ltmp6:
.LBB1_2:                                # %return
	#DEBUG_VALUE: GetPropertyInfo:varType <- $r8
	#DEBUG_VALUE: GetPropertyInfo:propID <- $rcx
	#DEBUG_VALUE: GetPropertyInfo:name <- $rdx
	retq
.Ltmp7:
.Lfunc_end1:
	.size	_ZN8NArchive4NSwf8CHandler15GetPropertyInfoEjPPwPjPt, .Lfunc_end1-_ZN8NArchive4NSwf8CHandler15GetPropertyInfoEjPPwPjPt
	.cfi_endproc
                                        # -- End function
	.globl	_ZN8NArchive4NSwf8CHandler28GetNumberOfArchivePropertiesEPj # -- Begin function _ZN8NArchive4NSwf8CHandler28GetNumberOfArchivePropertiesEPj
	.p2align	4, 0x90
	.type	_ZN8NArchive4NSwf8CHandler28GetNumberOfArchivePropertiesEPj,@function
_ZN8NArchive4NSwf8CHandler28GetNumberOfArchivePropertiesEPj: # @_ZN8NArchive4NSwf8CHandler28GetNumberOfArchivePropertiesEPj
.Lfunc_begin2:
	.loc	4 67 0 is_stmt 1        # /home/chris/test-suite/MultiSource/Benchmarks/7zip/CPP/7zip/Archive/SwfHandler.cpp:67:0
	.cfi_startproc
# %bb.0:                                # %entry
	#DEBUG_VALUE: GetNumberOfArchiveProperties:numProperties <- $rsi
	#DEBUG_VALUE: GetNumberOfArchiveProperties:numProperties <- $rsi
	#DEBUG_VALUE: GetNumberOfArchiveProperties:this <- undef
	.loc	4 67 1 prologue_end     # /home/chris/test-suite/MultiSource/Benchmarks/7zip/CPP/7zip/Archive/SwfHandler.cpp:67:1
	movl	$0, (%rsi)
	xorl	%eax, %eax
	retq
.Ltmp8:
.Lfunc_end2:
	.size	_ZN8NArchive4NSwf8CHandler28GetNumberOfArchivePropertiesEPj, .Lfunc_end2-_ZN8NArchive4NSwf8CHandler28GetNumberOfArchivePropertiesEPj
	.cfi_endproc
                                        # -- End function
	.globl	_ZN8NArchive4NSwf8CHandler22GetArchivePropertyInfoEjPPwPjPt # -- Begin function _ZN8NArchive4NSwf8CHandler22GetArchivePropertyInfoEjPPwPjPt
	.p2align	4, 0x90
	.type	_ZN8NArchive4NSwf8CHandler22GetArchivePropertyInfoEjPPwPjPt,@function
_ZN8NArchive4NSwf8CHandler22GetArchivePropertyInfoEjPPwPjPt: # @_ZN8NArchive4NSwf8CHandler22GetArchivePropertyInfoEjPPwPjPt
.Lfunc_begin3:
	.loc	4 67 0                  # /home/chris/test-suite/MultiSource/Benchmarks/7zip/CPP/7zip/Archive/SwfHandler.cpp:67:0
	.cfi_startproc
# %bb.0:                                # %entry
	#DEBUG_VALUE: GetArchivePropertyInfo:this <- undef
	#DEBUG_VALUE: GetArchivePropertyInfo: <- undef
	#DEBUG_VALUE: GetArchivePropertyInfo: <- undef
	#DEBUG_VALUE: GetArchivePropertyInfo: <- undef
	#DEBUG_VALUE: GetArchivePropertyInfo: <- undef
	.loc	4 67 1 prologue_end     # /home/chris/test-suite/MultiSource/Benchmarks/7zip/CPP/7zip/Archive/SwfHandler.cpp:67:1
	movl	$-2147467263, %eax      # imm = 0x80004001
	retq
.Ltmp9:
.Lfunc_end3:
	.size	_ZN8NArchive4NSwf8CHandler22GetArchivePropertyInfoEjPPwPjPt, .Lfunc_end3-_ZN8NArchive4NSwf8CHandler22GetArchivePropertyInfoEjPPwPjPt
	.cfi_endproc
                                        # -- End function
	.globl	_ZN8NArchive4NSwf8CHandler18GetArchivePropertyEjP14tagPROPVARIANT # -- Begin function _ZN8NArchive4NSwf8CHandler18GetArchivePropertyEjP14tagPROPVARIANT
	.p2align	4, 0x90
	.type	_ZN8NArchive4NSwf8CHandler18GetArchivePropertyEjP14tagPROPVARIANT,@function
_ZN8NArchive4NSwf8CHandler18GetArchivePropertyEjP14tagPROPVARIANT: # @_ZN8NArchive4NSwf8CHandler18GetArchivePropertyEjP14tagPROPVARIANT
.Lfunc_begin4:
	.loc	4 70 0                  # /home/chris/test-suite/MultiSource/Benchmarks/7zip/CPP/7zip/Archive/SwfHandler.cpp:70:0
	.cfi_startproc
	.cfi_personality 3, __gxx_personality_v0
	.cfi_lsda 3, .Lexception0
# %bb.0:                                # %entry
	#DEBUG_VALUE: GetArchiveProperty:this <- $rdi
	#DEBUG_VALUE: GetArchiveProperty:propID <- $esi
	#DEBUG_VALUE: GetArchiveProperty:value <- $rdx
	pushq	%rbp
	.cfi_def_cfa_offset 16
	pushq	%r14
	.cfi_def_cfa_offset 24
	pushq	%rbx
	.cfi_def_cfa_offset 32
	subq	$16, %rsp
	.cfi_def_cfa_offset 48
	.cfi_offset %rbx, -32
	.cfi_offset %r14, -24
	.cfi_offset %rbp, -16
	movq	%rdx, %r14
.Ltmp15:
	#DEBUG_VALUE: GetArchiveProperty:value <- $r14
	movl	%esi, %ebp
.Ltmp16:
	#DEBUG_VALUE: GetArchiveProperty:propID <- $ebp
	movq	%rdi, %rbx
.Ltmp17:
	#DEBUG_VALUE: GetArchiveProperty:this <- $rbx
	movq	%rsp, %rdi
.Ltmp18:
	.loc	4 71 22 prologue_end    # /home/chris/test-suite/MultiSource/Benchmarks/7zip/CPP/7zip/Archive/SwfHandler.cpp:71:22
	callq	_ZN8NWindows4NCOM12CPropVariantC2Ev
	.loc	4 72 3                  # /home/chris/test-suite/MultiSource/Benchmarks/7zip/CPP/7zip/Archive/SwfHandler.cpp:72:3
	cmpl	$44, %ebp
	jne	.LBB4_2
.Ltmp19:
# %bb.1:                                # %sw.bb
	#DEBUG_VALUE: GetArchiveProperty:this <- $rbx
	#DEBUG_VALUE: GetArchiveProperty:propID <- $ebp
	#DEBUG_VALUE: GetArchiveProperty:value <- $r14
	.loc	4 74 30                 # /home/chris/test-suite/MultiSource/Benchmarks/7zip/CPP/7zip/Archive/SwfHandler.cpp:74:30
	movq	56(%rbx), %rsi
.Ltmp10:
	movq	%rsp, %rdi
	.loc	4 74 28 is_stmt 0       # /home/chris/test-suite/MultiSource/Benchmarks/7zip/CPP/7zip/Archive/SwfHandler.cpp:74:28
	callq	_ZN8NWindows4NCOM12CPropVariantaSEy
.Ltmp11:
.Ltmp20:
.LBB4_2:                                # %sw.epilog
	#DEBUG_VALUE: GetArchiveProperty:this <- $rbx
	#DEBUG_VALUE: GetArchiveProperty:propID <- $ebp
	#DEBUG_VALUE: GetArchiveProperty:value <- $r14
.Ltmp12:
	.loc	4 0 28                  # /home/chris/test-suite/MultiSource/Benchmarks/7zip/CPP/7zip/Archive/SwfHandler.cpp:0:28
	movq	%rsp, %rdi
	.loc	4 76 8 is_stmt 1        # /home/chris/test-suite/MultiSource/Benchmarks/7zip/CPP/7zip/Archive/SwfHandler.cpp:76:8
	movq	%r14, %rsi
	callq	_ZN8NWindows4NCOM12CPropVariant6DetachEP14tagPROPVARIANT
.Ltmp13:
.Ltmp21:
# %bb.3:                                # %invoke.cont2
	#DEBUG_VALUE: GetArchiveProperty:this <- $rbx
	#DEBUG_VALUE: GetArchiveProperty:propID <- $ebp
	#DEBUG_VALUE: GetArchiveProperty:value <- $r14
	.loc	4 0 8 is_stmt 0         # /home/chris/test-suite/MultiSource/Benchmarks/7zip/CPP/7zip/Archive/SwfHandler.cpp:0:8
	movq	%rsp, %rdi
	.loc	4 78 1 is_stmt 1        # /home/chris/test-suite/MultiSource/Benchmarks/7zip/CPP/7zip/Archive/SwfHandler.cpp:78:1
	callq	_ZN8NWindows4NCOM12CPropVariantD2Ev
	xorl	%eax, %eax
	addq	$16, %rsp
	.cfi_def_cfa_offset 32
	popq	%rbx
.Ltmp22:
	.cfi_def_cfa_offset 24
	popq	%r14
.Ltmp23:
	.cfi_def_cfa_offset 16
	popq	%rbp
.Ltmp24:
	.cfi_def_cfa_offset 8
	retq
.LBB4_4:                                # %lpad
	.cfi_def_cfa_offset 48
.Ltmp25:
	#DEBUG_VALUE: GetArchiveProperty:this <- $rbx
	#DEBUG_VALUE: GetArchiveProperty:propID <- $ebp
	#DEBUG_VALUE: GetArchiveProperty:value <- $r14
.Ltmp14:
	.loc	4 0 1 is_stmt 0         # /home/chris/test-suite/MultiSource/Benchmarks/7zip/CPP/7zip/Archive/SwfHandler.cpp:0:1
	movq	%rax, %rbx
.Ltmp26:
	movq	%rsp, %rdi
	.loc	4 78 1                  # /home/chris/test-suite/MultiSource/Benchmarks/7zip/CPP/7zip/Archive/SwfHandler.cpp:78:1
	callq	_ZN8NWindows4NCOM12CPropVariantD2Ev
	movq	%rbx, %rdi
	callq	_Unwind_Resume
.Ltmp27:
.Lfunc_end4:
	.size	_ZN8NArchive4NSwf8CHandler18GetArchivePropertyEjP14tagPROPVARIANT, .Lfunc_end4-_ZN8NArchive4NSwf8CHandler18GetArchivePropertyEjP14tagPROPVARIANT
	.cfi_endproc
	.section	.gcc_except_table,"a",@progbits
	.p2align	2
GCC_except_table4:
.Lexception0:
	.byte	255                     # @LPStart Encoding = omit
	.byte	255                     # @TType Encoding = omit
	.byte	1                       # Call site Encoding = uleb128
	.uleb128 .Lcst_end0-.Lcst_begin0
.Lcst_begin0:
	.uleb128 .Ltmp10-.Lfunc_begin4  # >> Call Site 1 <<
	.uleb128 .Ltmp13-.Ltmp10        #   Call between .Ltmp10 and .Ltmp13
	.uleb128 .Ltmp14-.Lfunc_begin4  #     jumps to .Ltmp14
	.byte	0                       #   On action: cleanup
	.uleb128 .Ltmp13-.Lfunc_begin4  # >> Call Site 2 <<
	.uleb128 .Lfunc_end4-.Ltmp13    #   Call between .Ltmp13 and .Lfunc_end4
	.byte	0                       #     has no landing pad
	.byte	0                       #   On action: cleanup
.Lcst_end0:
	.p2align	2
                                        # -- End function
	.section	.text._ZN8NWindows4NCOM12CPropVariantC2Ev,"axG",@progbits,_ZN8NWindows4NCOM12CPropVariantC2Ev,comdat
	.weak	_ZN8NWindows4NCOM12CPropVariantC2Ev # -- Begin function _ZN8NWindows4NCOM12CPropVariantC2Ev
	.p2align	4, 0x90
	.type	_ZN8NWindows4NCOM12CPropVariantC2Ev,@function
_ZN8NWindows4NCOM12CPropVariantC2Ev:    # @_ZN8NWindows4NCOM12CPropVariantC2Ev
.Lfunc_begin5:
	.file	22 "/home/chris/test-suite/MultiSource/Benchmarks/7zip/CPP/Windows" "PropVariant.h"
	.loc	22 15 0 is_stmt 1       # /home/chris/test-suite/MultiSource/Benchmarks/7zip/CPP/Windows/PropVariant.h:15:0
	.cfi_startproc
# %bb.0:                                # %entry
	#DEBUG_VALUE: CPropVariant:this <- $rdi
	#DEBUG_VALUE: CPropVariant:this <- $rdi
	.loc	22 15 23 prologue_end   # /home/chris/test-suite/MultiSource/Benchmarks/7zip/CPP/Windows/PropVariant.h:15:23
	movl	$0, (%rdi)
.Ltmp28:
	.loc	22 15 51 is_stmt 0      # /home/chris/test-suite/MultiSource/Benchmarks/7zip/CPP/Windows/PropVariant.h:15:51
	retq
.Ltmp29:
.Lfunc_end5:
	.size	_ZN8NWindows4NCOM12CPropVariantC2Ev, .Lfunc_end5-_ZN8NWindows4NCOM12CPropVariantC2Ev
	.cfi_endproc
                                        # -- End function
	.section	.text._ZN8NWindows4NCOM12CPropVariantD2Ev,"axG",@progbits,_ZN8NWindows4NCOM12CPropVariantD2Ev,comdat
	.weak	_ZN8NWindows4NCOM12CPropVariantD2Ev # -- Begin function _ZN8NWindows4NCOM12CPropVariantD2Ev
	.p2align	4, 0x90
	.type	_ZN8NWindows4NCOM12CPropVariantD2Ev,@function
_ZN8NWindows4NCOM12CPropVariantD2Ev:    # @_ZN8NWindows4NCOM12CPropVariantD2Ev
.Lfunc_begin6:
	.loc	22 16 0 is_stmt 1       # /home/chris/test-suite/MultiSource/Benchmarks/7zip/CPP/Windows/PropVariant.h:16:0
	.cfi_startproc
	.cfi_personality 3, __gxx_personality_v0
	.cfi_lsda 3, .Lexception1
# %bb.0:                                # %entry
	pushq	%rax
	.cfi_def_cfa_offset 16
.Ltmp30:
.Ltmp33:
	#DEBUG_VALUE: ~CPropVariant:this <- $rdi
	#DEBUG_VALUE: ~CPropVariant:this <- $rdi
	#DEBUG_VALUE: ~CPropVariant:this <- $rdi
	.loc	22 16 21 prologue_end   # /home/chris/test-suite/MultiSource/Benchmarks/7zip/CPP/Windows/PropVariant.h:16:21
	callq	_ZN8NWindows4NCOM12CPropVariant5ClearEv
.Ltmp34:
.Ltmp31:
# %bb.1:                                # %invoke.cont
	.loc	22 16 30 is_stmt 0      # /home/chris/test-suite/MultiSource/Benchmarks/7zip/CPP/Windows/PropVariant.h:16:30
	popq	%rax
	.cfi_def_cfa_offset 8
	retq
.LBB6_2:                                # %terminate.lpad
	.cfi_def_cfa_offset 16
.Ltmp32:
.Ltmp35:
	.loc	22 16 21                # /home/chris/test-suite/MultiSource/Benchmarks/7zip/CPP/Windows/PropVariant.h:16:21
	movq	%rax, %rdi
	callq	__clang_call_terminate
.Ltmp36:
.Lfunc_end6:
	.size	_ZN8NWindows4NCOM12CPropVariantD2Ev, .Lfunc_end6-_ZN8NWindows4NCOM12CPropVariantD2Ev
	.cfi_endproc
	.section	.gcc_except_table,"a",@progbits
	.p2align	2
GCC_except_table6:
.Lexception1:
	.byte	255                     # @LPStart Encoding = omit
	.byte	3                       # @TType Encoding = udata4
	.uleb128 .Lttbase0-.Lttbaseref0
.Lttbaseref0:
	.byte	1                       # Call site Encoding = uleb128
	.uleb128 .Lcst_end1-.Lcst_begin1
.Lcst_begin1:
	.uleb128 .Ltmp30-.Lfunc_begin6  # >> Call Site 1 <<
	.uleb128 .Ltmp31-.Ltmp30        #   Call between .Ltmp30 and .Ltmp31
	.uleb128 .Ltmp32-.Lfunc_begin6  #     jumps to .Ltmp32
	.byte	1                       #   On action: 1
.Lcst_end1:
	.byte	1                       # >> Action Record 1 <<
                                        #   Catch TypeInfo 1
	.byte	0                       #   No further actions
	.p2align	2
                                        # >> Catch TypeInfos <<
	.long	0                       # TypeInfo 1
.Lttbase0:
	.p2align	2
                                        # -- End function
	.text
	.globl	_ZN8NArchive4NSwf8CHandler16GetNumberOfItemsEPj # -- Begin function _ZN8NArchive4NSwf8CHandler16GetNumberOfItemsEPj
	.p2align	4, 0x90
	.type	_ZN8NArchive4NSwf8CHandler16GetNumberOfItemsEPj,@function
_ZN8NArchive4NSwf8CHandler16GetNumberOfItemsEPj: # @_ZN8NArchive4NSwf8CHandler16GetNumberOfItemsEPj
.Lfunc_begin7:
	.loc	4 82 0 is_stmt 1        # /home/chris/test-suite/MultiSource/Benchmarks/7zip/CPP/7zip/Archive/SwfHandler.cpp:82:0
	.cfi_startproc
# %bb.0:                                # %entry
	#DEBUG_VALUE: GetNumberOfItems:this <- $rdi
	#DEBUG_VALUE: GetNumberOfItems:numItems <- $rsi
	pushq	%rbx
	.cfi_def_cfa_offset 16
	.cfi_offset %rbx, -16
	movq	%rsi, %rbx
.Ltmp37:
	#DEBUG_VALUE: GetNumberOfItems:numItems <- $rbx
	#DEBUG_VALUE: GetNumberOfItems:this <- $rdi
	.loc	4 83 15 prologue_end    # /home/chris/test-suite/MultiSource/Benchmarks/7zip/CPP/7zip/Archive/SwfHandler.cpp:83:15
	addq	$24, %rdi
.Ltmp38:
	.loc	4 83 21 is_stmt 0       # /home/chris/test-suite/MultiSource/Benchmarks/7zip/CPP/7zip/Archive/SwfHandler.cpp:83:21
	callq	_ZNK17CBaseRecordVector4SizeEv
	.loc	4 83 13                 # /home/chris/test-suite/MultiSource/Benchmarks/7zip/CPP/7zip/Archive/SwfHandler.cpp:83:13
	movl	%eax, (%rbx)
	.loc	4 84 3 is_stmt 1        # /home/chris/test-suite/MultiSource/Benchmarks/7zip/CPP/7zip/Archive/SwfHandler.cpp:84:3
	xorl	%eax, %eax
	popq	%rbx
.Ltmp39:
	.cfi_def_cfa_offset 8
	retq
.Ltmp40:
.Lfunc_end7:
	.size	_ZN8NArchive4NSwf8CHandler16GetNumberOfItemsEPj, .Lfunc_end7-_ZN8NArchive4NSwf8CHandler16GetNumberOfItemsEPj
	.cfi_endproc
                                        # -- End function
	.section	.text._ZNK17CBaseRecordVector4SizeEv,"axG",@progbits,_ZNK17CBaseRecordVector4SizeEv,comdat
	.weak	_ZNK17CBaseRecordVector4SizeEv # -- Begin function _ZNK17CBaseRecordVector4SizeEv
	.p2align	4, 0x90
	.type	_ZNK17CBaseRecordVector4SizeEv,@function
_ZNK17CBaseRecordVector4SizeEv:         # @_ZNK17CBaseRecordVector4SizeEv
.Lfunc_begin8:
	.loc	21 25 0                 # /home/chris/test-suite/MultiSource/Benchmarks/7zip/CPP/Common/MyVector.h:25:0
	.cfi_startproc
# %bb.0:                                # %entry
	#DEBUG_VALUE: Size:this <- $rdi
	#DEBUG_VALUE: Size:this <- $rdi
	.loc	21 25 29 prologue_end   # /home/chris/test-suite/MultiSource/Benchmarks/7zip/CPP/Common/MyVector.h:25:29
	movl	12(%rdi), %eax
	.loc	21 25 22 is_stmt 0      # /home/chris/test-suite/MultiSource/Benchmarks/7zip/CPP/Common/MyVector.h:25:22
	retq
.Ltmp41:
.Lfunc_end8:
	.size	_ZNK17CBaseRecordVector4SizeEv, .Lfunc_end8-_ZNK17CBaseRecordVector4SizeEv
	.cfi_endproc
                                        # -- End function
	.text
	.globl	_ZN8NArchive4NSwf8CHandler11GetPropertyEjjP14tagPROPVARIANT # -- Begin function _ZN8NArchive4NSwf8CHandler11GetPropertyEjjP14tagPROPVARIANT
	.p2align	4, 0x90
	.type	_ZN8NArchive4NSwf8CHandler11GetPropertyEjjP14tagPROPVARIANT,@function
_ZN8NArchive4NSwf8CHandler11GetPropertyEjjP14tagPROPVARIANT: # @_ZN8NArchive4NSwf8CHandler11GetPropertyEjjP14tagPROPVARIANT
.Lfunc_begin9:
	.loc	4 184 0 is_stmt 1       # /home/chris/test-suite/MultiSource/Benchmarks/7zip/CPP/7zip/Archive/SwfHandler.cpp:184:0
	.cfi_startproc
	.cfi_personality 3, __gxx_personality_v0
	.cfi_lsda 3, .Lexception2
# %bb.0:                                # %entry
	#DEBUG_VALUE: GetProperty:this <- $rdi
	#DEBUG_VALUE: GetProperty:index <- $esi
	#DEBUG_VALUE: GetProperty:propID <- $edx
	#DEBUG_VALUE: GetProperty:value <- $rcx
	pushq	%rbp
	.cfi_def_cfa_offset 16
	pushq	%r15
	.cfi_def_cfa_offset 24
	pushq	%r14
	.cfi_def_cfa_offset 32
	pushq	%rbx
	.cfi_def_cfa_offset 40
	subq	$56, %rsp
	.cfi_def_cfa_offset 96
	.cfi_offset %rbx, -40
	.cfi_offset %r14, -32
	.cfi_offset %r15, -24
	.cfi_offset %rbp, -16
	movq	%rcx, %r14
.Ltmp60:
	#DEBUG_VALUE: GetProperty:value <- $r14
	movl	%edx, %ebp
.Ltmp61:
	#DEBUG_VALUE: GetProperty:propID <- $ebp
	movl	%esi, %r15d
.Ltmp62:
	#DEBUG_VALUE: GetProperty:index <- $r15d
	movq	%rdi, %rbx
.Ltmp63:
	#DEBUG_VALUE: GetProperty:this <- $rbx
	movq	%rsp, %rdi
.Ltmp64:
	.loc	4 185 32 prologue_end   # /home/chris/test-suite/MultiSource/Benchmarks/7zip/CPP/7zip/Archive/SwfHandler.cpp:185:32
	callq	_ZN8NWindows4NCOM12CPropVariantC2Ev
	.loc	4 186 21                # /home/chris/test-suite/MultiSource/Benchmarks/7zip/CPP/7zip/Archive/SwfHandler.cpp:186:21
	addq	$24, %rbx
.Ltmp65:
.Ltmp42:
	movq	%rbx, %rdi
	movl	%r15d, %esi
	callq	_ZN13CObjectVectorIN8NArchive4NSwf4CTagEEixEi
.Ltmp43:
.Ltmp66:
# %bb.1:                                # %invoke.cont
	#DEBUG_VALUE: GetProperty:index <- $r15d
	#DEBUG_VALUE: GetProperty:propID <- $ebp
	#DEBUG_VALUE: GetProperty:value <- $r14
	.loc	4 0 0 is_stmt 0         # /home/chris/test-suite/MultiSource/Benchmarks/7zip/CPP/7zip/Archive/SwfHandler.cpp:0:0
	movq	%rax, %rbx
	.loc	4 187 3 is_stmt 1       # /home/chris/test-suite/MultiSource/Benchmarks/7zip/CPP/7zip/Archive/SwfHandler.cpp:187:3
	leal	-7(%rbp), %eax
	cmpl	$2, %eax
	jb	.LBB9_13
.Ltmp67:
# %bb.2:                                # %invoke.cont
	#DEBUG_VALUE: GetProperty:index <- $r15d
	#DEBUG_VALUE: GetProperty:propID <- $ebp
	#DEBUG_VALUE: GetProperty:value <- $r14
	#DEBUG_VALUE: GetProperty:tag <- $rbx
	cmpl	$3, %ebp
	je	.LBB9_7
.Ltmp68:
# %bb.3:                                # %invoke.cont
	#DEBUG_VALUE: GetProperty:tag <- $rbx
	#DEBUG_VALUE: GetProperty:index <- $r15d
	#DEBUG_VALUE: GetProperty:propID <- $ebp
	#DEBUG_VALUE: GetProperty:value <- $r14
	cmpl	$28, %ebp
	jne	.LBB9_14
.Ltmp69:
# %bb.4:                                # %sw.bb17
	#DEBUG_VALUE: GetProperty:tag <- $rbx
	#DEBUG_VALUE: GetProperty:index <- $r15d
	#DEBUG_VALUE: GetProperty:propID <- $ebp
	#DEBUG_VALUE: GetProperty:value <- $r14
	.loc	4 203 15                # /home/chris/test-suite/MultiSource/Benchmarks/7zip/CPP/7zip/Archive/SwfHandler.cpp:203:15
	movl	(%rbx), %eax
	cmpq	$91, %rax
.Ltmp70:
	.loc	4 203 11 is_stmt 0      # /home/chris/test-suite/MultiSource/Benchmarks/7zip/CPP/7zip/Archive/SwfHandler.cpp:203:11
	ja	.LBB9_14
.Ltmp71:
# %bb.5:                                # %if.then
	#DEBUG_VALUE: GetProperty:tag <- $rbx
	#DEBUG_VALUE: GetProperty:index <- $r15d
	#DEBUG_VALUE: GetProperty:propID <- $ebp
	#DEBUG_VALUE: GetProperty:value <- $r14
	.loc	4 205 25 is_stmt 1      # /home/chris/test-suite/MultiSource/Benchmarks/7zip/CPP/7zip/Archive/SwfHandler.cpp:205:25
	movq	_ZN8NArchive4NSwfL9g_TagDescE(,%rax,8), %rsi
.Ltmp72:
	#DEBUG_VALUE: s <- $rsi
	.loc	4 206 15                # /home/chris/test-suite/MultiSource/Benchmarks/7zip/CPP/7zip/Archive/SwfHandler.cpp:206:15
	testq	%rsi, %rsi
.Ltmp73:
	.loc	4 206 13 is_stmt 0      # /home/chris/test-suite/MultiSource/Benchmarks/7zip/CPP/7zip/Archive/SwfHandler.cpp:206:13
	je	.LBB9_14
.Ltmp74:
# %bb.6:                                # %if.then23
	#DEBUG_VALUE: s <- $rsi
	#DEBUG_VALUE: GetProperty:tag <- $rbx
	#DEBUG_VALUE: GetProperty:index <- $r15d
	#DEBUG_VALUE: GetProperty:propID <- $ebp
	#DEBUG_VALUE: GetProperty:value <- $r14
.Ltmp44:
	.loc	4 0 13                  # /home/chris/test-suite/MultiSource/Benchmarks/7zip/CPP/7zip/Archive/SwfHandler.cpp:0:13
	movq	%rsp, %rdi
.Ltmp75:
	.loc	4 207 16 is_stmt 1      # /home/chris/test-suite/MultiSource/Benchmarks/7zip/CPP/7zip/Archive/SwfHandler.cpp:207:16
	callq	_ZN8NWindows4NCOM12CPropVariantaSEPKc
.Ltmp76:
.Ltmp45:
	jmp	.LBB9_14
.Ltmp77:
.LBB9_13:                               # %sw.bb12
	#DEBUG_VALUE: GetProperty:index <- $r15d
	#DEBUG_VALUE: GetProperty:propID <- $ebp
	#DEBUG_VALUE: GetProperty:value <- $r14
	.loc	4 201 26                # /home/chris/test-suite/MultiSource/Benchmarks/7zip/CPP/7zip/Archive/SwfHandler.cpp:201:26
	addq	$8, %rbx
	.loc	4 201 30 is_stmt 0      # /home/chris/test-suite/MultiSource/Benchmarks/7zip/CPP/7zip/Archive/SwfHandler.cpp:201:30
	movq	%rbx, %rdi
	callq	_ZNK7CBufferIhE11GetCapacityEv
.Ltmp47:
	movq	%rsp, %rdi
	.loc	4 201 12                # /home/chris/test-suite/MultiSource/Benchmarks/7zip/CPP/7zip/Archive/SwfHandler.cpp:201:12
	movq	%rax, %rsi
	callq	_ZN8NWindows4NCOM12CPropVariantaSEy
.Ltmp48:
	jmp	.LBB9_14
.Ltmp78:
.LBB9_7:                                # %sw.bb
	#DEBUG_VALUE: GetProperty:tag <- $rbx
	#DEBUG_VALUE: GetProperty:index <- $r15d
	#DEBUG_VALUE: GetProperty:propID <- $ebp
	#DEBUG_VALUE: GetProperty:value <- $r14
.Ltmp49:
	.loc	4 0 12                  # /home/chris/test-suite/MultiSource/Benchmarks/7zip/CPP/7zip/Archive/SwfHandler.cpp:0:12
	leaq	16(%rsp), %rsi
.Ltmp79:
	.loc	4 192 7 is_stmt 1       # /home/chris/test-suite/MultiSource/Benchmarks/7zip/CPP/7zip/Archive/SwfHandler.cpp:192:7
	movl	%r15d, %edi
	callq	_Z21ConvertUInt32ToStringjPc
.Ltmp50:
.Ltmp80:
# %bb.8:                                # %invoke.cont3
	#DEBUG_VALUE: GetProperty:tag <- $rbx
	#DEBUG_VALUE: GetProperty:index <- $r15d
	#DEBUG_VALUE: GetProperty:propID <- $ebp
	#DEBUG_VALUE: GetProperty:value <- $r14
	.loc	4 0 7 is_stmt 0         # /home/chris/test-suite/MultiSource/Benchmarks/7zip/CPP/7zip/Archive/SwfHandler.cpp:0:7
	leaq	16(%rsp), %rdi
	.loc	4 193 18 is_stmt 1      # /home/chris/test-suite/MultiSource/Benchmarks/7zip/CPP/7zip/Archive/SwfHandler.cpp:193:18
	callq	strlen
.Ltmp81:
	#DEBUG_VALUE: i <- undef
	.loc	4 194 14                # /home/chris/test-suite/MultiSource/Benchmarks/7zip/CPP/7zip/Archive/SwfHandler.cpp:194:14
	movb	$46, 16(%rsp,%rax)
	.loc	4 195 33                # /home/chris/test-suite/MultiSource/Benchmarks/7zip/CPP/7zip/Archive/SwfHandler.cpp:195:33
	movl	(%rbx), %edi
	.loc	4 195 41 is_stmt 0      # /home/chris/test-suite/MultiSource/Benchmarks/7zip/CPP/7zip/Archive/SwfHandler.cpp:195:41
	leaq	(%rsp,%rax), %rsi
	addq	$17, %rsi
.Ltmp52:
	.loc	4 195 7                 # /home/chris/test-suite/MultiSource/Benchmarks/7zip/CPP/7zip/Archive/SwfHandler.cpp:195:7
	callq	_Z21ConvertUInt32ToStringjPc
.Ltmp53:
.Ltmp82:
# %bb.9:                                # %invoke.cont8
	#DEBUG_VALUE: GetProperty:tag <- $rbx
	#DEBUG_VALUE: GetProperty:index <- $r15d
	#DEBUG_VALUE: GetProperty:propID <- $ebp
	#DEBUG_VALUE: GetProperty:value <- $r14
.Ltmp54:
	.loc	4 0 7                   # /home/chris/test-suite/MultiSource/Benchmarks/7zip/CPP/7zip/Archive/SwfHandler.cpp:0:7
	movq	%rsp, %rdi
	leaq	16(%rsp), %rsi
	.loc	4 196 12 is_stmt 1      # /home/chris/test-suite/MultiSource/Benchmarks/7zip/CPP/7zip/Archive/SwfHandler.cpp:196:12
	callq	_ZN8NWindows4NCOM12CPropVariantaSEPKc
.Ltmp55:
.Ltmp83:
.LBB9_14:                               # %sw.epilog
	#DEBUG_VALUE: GetProperty:index <- $r15d
	#DEBUG_VALUE: GetProperty:propID <- $ebp
	#DEBUG_VALUE: GetProperty:value <- $r14
.Ltmp57:
	.loc	4 0 12 is_stmt 0        # /home/chris/test-suite/MultiSource/Benchmarks/7zip/CPP/7zip/Archive/SwfHandler.cpp:0:12
	movq	%rsp, %rdi
	.loc	4 211 8 is_stmt 1       # /home/chris/test-suite/MultiSource/Benchmarks/7zip/CPP/7zip/Archive/SwfHandler.cpp:211:8
	movq	%r14, %rsi
	callq	_ZN8NWindows4NCOM12CPropVariant6DetachEP14tagPROPVARIANT
.Ltmp58:
.Ltmp84:
# %bb.15:                               # %invoke.cont29
	#DEBUG_VALUE: GetProperty:index <- $r15d
	#DEBUG_VALUE: GetProperty:propID <- $ebp
	#DEBUG_VALUE: GetProperty:value <- $r14
	.loc	4 0 8 is_stmt 0         # /home/chris/test-suite/MultiSource/Benchmarks/7zip/CPP/7zip/Archive/SwfHandler.cpp:0:8
	movq	%rsp, %rdi
	.loc	4 213 1 is_stmt 1       # /home/chris/test-suite/MultiSource/Benchmarks/7zip/CPP/7zip/Archive/SwfHandler.cpp:213:1
	callq	_ZN8NWindows4NCOM12CPropVariantD2Ev
	xorl	%eax, %eax
	addq	$56, %rsp
	.cfi_def_cfa_offset 40
	popq	%rbx
	.cfi_def_cfa_offset 32
	popq	%r14
.Ltmp85:
	.cfi_def_cfa_offset 24
	popq	%r15
.Ltmp86:
	.cfi_def_cfa_offset 16
	popq	%rbp
.Ltmp87:
	.cfi_def_cfa_offset 8
	retq
.LBB9_12:                               # %lpad24
	.cfi_def_cfa_offset 96
.Ltmp88:
	#DEBUG_VALUE: GetProperty:tag <- $rbx
	#DEBUG_VALUE: GetProperty:index <- $r15d
	#DEBUG_VALUE: GetProperty:propID <- $ebp
	#DEBUG_VALUE: GetProperty:value <- $r14
.Ltmp46:
	.loc	4 0 1 is_stmt 0         # /home/chris/test-suite/MultiSource/Benchmarks/7zip/CPP/7zip/Archive/SwfHandler.cpp:0:1
	jmp	.LBB9_17
.Ltmp89:
.LBB9_10:                               # %lpad2
	#DEBUG_VALUE: GetProperty:tag <- $rbx
	#DEBUG_VALUE: GetProperty:index <- $r15d
	#DEBUG_VALUE: GetProperty:propID <- $ebp
	#DEBUG_VALUE: GetProperty:value <- $r14
.Ltmp51:
	jmp	.LBB9_17
.Ltmp90:
.LBB9_11:                               # %lpad7
	#DEBUG_VALUE: GetProperty:tag <- $rbx
	#DEBUG_VALUE: GetProperty:index <- $r15d
	#DEBUG_VALUE: GetProperty:propID <- $ebp
	#DEBUG_VALUE: GetProperty:value <- $r14
.Ltmp56:
	jmp	.LBB9_17
.Ltmp91:
.LBB9_16:                               # %lpad
	#DEBUG_VALUE: GetProperty:index <- $r15d
	#DEBUG_VALUE: GetProperty:propID <- $ebp
	#DEBUG_VALUE: GetProperty:value <- $r14
.Ltmp59:
.LBB9_17:                               # %ehcleanup31
	#DEBUG_VALUE: GetProperty:index <- $r15d
	#DEBUG_VALUE: GetProperty:propID <- $ebp
	#DEBUG_VALUE: GetProperty:value <- $r14
	movq	%rax, %rbx
	movq	%rsp, %rdi
	.loc	4 213 1                 # /home/chris/test-suite/MultiSource/Benchmarks/7zip/CPP/7zip/Archive/SwfHandler.cpp:213:1
	callq	_ZN8NWindows4NCOM12CPropVariantD2Ev
	movq	%rbx, %rdi
	callq	_Unwind_Resume
.Ltmp92:
.Lfunc_end9:
	.size	_ZN8NArchive4NSwf8CHandler11GetPropertyEjjP14tagPROPVARIANT, .Lfunc_end9-_ZN8NArchive4NSwf8CHandler11GetPropertyEjjP14tagPROPVARIANT
	.cfi_endproc
	.section	.gcc_except_table,"a",@progbits
	.p2align	2
GCC_except_table9:
.Lexception2:
	.byte	255                     # @LPStart Encoding = omit
	.byte	255                     # @TType Encoding = omit
	.byte	1                       # Call site Encoding = uleb128
	.uleb128 .Lcst_end2-.Lcst_begin2
.Lcst_begin2:
	.uleb128 .Ltmp42-.Lfunc_begin9  # >> Call Site 1 <<
	.uleb128 .Ltmp43-.Ltmp42        #   Call between .Ltmp42 and .Ltmp43
	.uleb128 .Ltmp59-.Lfunc_begin9  #     jumps to .Ltmp59
	.byte	0                       #   On action: cleanup
	.uleb128 .Ltmp44-.Lfunc_begin9  # >> Call Site 2 <<
	.uleb128 .Ltmp45-.Ltmp44        #   Call between .Ltmp44 and .Ltmp45
	.uleb128 .Ltmp46-.Lfunc_begin9  #     jumps to .Ltmp46
	.byte	0                       #   On action: cleanup
	.uleb128 .Ltmp47-.Lfunc_begin9  # >> Call Site 3 <<
	.uleb128 .Ltmp48-.Ltmp47        #   Call between .Ltmp47 and .Ltmp48
	.uleb128 .Ltmp59-.Lfunc_begin9  #     jumps to .Ltmp59
	.byte	0                       #   On action: cleanup
	.uleb128 .Ltmp49-.Lfunc_begin9  # >> Call Site 4 <<
	.uleb128 .Ltmp50-.Ltmp49        #   Call between .Ltmp49 and .Ltmp50
	.uleb128 .Ltmp51-.Lfunc_begin9  #     jumps to .Ltmp51
	.byte	0                       #   On action: cleanup
	.uleb128 .Ltmp52-.Lfunc_begin9  # >> Call Site 5 <<
	.uleb128 .Ltmp55-.Ltmp52        #   Call between .Ltmp52 and .Ltmp55
	.uleb128 .Ltmp56-.Lfunc_begin9  #     jumps to .Ltmp56
	.byte	0                       #   On action: cleanup
	.uleb128 .Ltmp57-.Lfunc_begin9  # >> Call Site 6 <<
	.uleb128 .Ltmp58-.Ltmp57        #   Call between .Ltmp57 and .Ltmp58
	.uleb128 .Ltmp59-.Lfunc_begin9  #     jumps to .Ltmp59
	.byte	0                       #   On action: cleanup
	.uleb128 .Ltmp58-.Lfunc_begin9  # >> Call Site 7 <<
	.uleb128 .Lfunc_end9-.Ltmp58    #   Call between .Ltmp58 and .Lfunc_end9
	.byte	0                       #     has no landing pad
	.byte	0                       #   On action: cleanup
.Lcst_end2:
	.p2align	2
                                        # -- End function
	.section	.text._ZN13CObjectVectorIN8NArchive4NSwf4CTagEEixEi,"axG",@progbits,_ZN13CObjectVectorIN8NArchive4NSwf4CTagEEixEi,comdat
	.weak	_ZN13CObjectVectorIN8NArchive4NSwf4CTagEEixEi # -- Begin function _ZN13CObjectVectorIN8NArchive4NSwf4CTagEEixEi
	.p2align	4, 0x90
	.type	_ZN13CObjectVectorIN8NArchive4NSwf4CTagEEixEi,@function
_ZN13CObjectVectorIN8NArchive4NSwf4CTagEEixEi: # @_ZN13CObjectVectorIN8NArchive4NSwf4CTagEEixEi
.Lfunc_begin10:
	.loc	21 200 0 is_stmt 1      # /home/chris/test-suite/MultiSource/Benchmarks/7zip/CPP/Common/MyVector.h:200:0
	.cfi_startproc
# %bb.0:                                # %entry
	#DEBUG_VALUE: operator[]:this <- $rdi
	#DEBUG_VALUE: operator[]:this <- $rdi
	#DEBUG_VALUE: operator[]:index <- $esi
	#DEBUG_VALUE: operator[]:index <- $esi
	#DEBUG_VALUE: operator[]:index <- $esi
	#DEBUG_VALUE: operator[]:this <- $rdi
	pushq	%rax
	.cfi_def_cfa_offset 16
.Ltmp93:
	.loc	21 200 60 prologue_end  # /home/chris/test-suite/MultiSource/Benchmarks/7zip/CPP/Common/MyVector.h:200:60
	callq	_ZN13CRecordVectorIPvEixEi
.Ltmp94:
	movq	(%rax), %rax
	.loc	21 200 30 is_stmt 0     # /home/chris/test-suite/MultiSource/Benchmarks/7zip/CPP/Common/MyVector.h:200:30
	popq	%rcx
	.cfi_def_cfa_offset 8
	retq
.Ltmp95:
.Lfunc_end10:
	.size	_ZN13CObjectVectorIN8NArchive4NSwf4CTagEEixEi, .Lfunc_end10-_ZN13CObjectVectorIN8NArchive4NSwf4CTagEEixEi
	.cfi_endproc
                                        # -- End function
	.section	.text._ZNK7CBufferIhE11GetCapacityEv,"axG",@progbits,_ZNK7CBufferIhE11GetCapacityEv,comdat
	.weak	_ZNK7CBufferIhE11GetCapacityEv # -- Begin function _ZNK7CBufferIhE11GetCapacityEv
	.p2align	4, 0x90
	.type	_ZNK7CBufferIhE11GetCapacityEv,@function
_ZNK7CBufferIhE11GetCapacityEv:         # @_ZNK7CBufferIhE11GetCapacityEv
.Lfunc_begin11:
	.loc	9 26 0 is_stmt 1        # /home/chris/test-suite/MultiSource/Benchmarks/7zip/CPP/Common/Buffer.h:26:0
	.cfi_startproc
# %bb.0:                                # %entry
	#DEBUG_VALUE: GetCapacity:this <- $rdi
	#DEBUG_VALUE: GetCapacity:this <- $rdi
	.loc	9 26 40 prologue_end    # /home/chris/test-suite/MultiSource/Benchmarks/7zip/CPP/Common/Buffer.h:26:40
	movq	8(%rdi), %rax
	.loc	9 26 32 is_stmt 0       # /home/chris/test-suite/MultiSource/Benchmarks/7zip/CPP/Common/Buffer.h:26:32
	retq
.Ltmp96:
.Lfunc_end11:
	.size	_ZNK7CBufferIhE11GetCapacityEv, .Lfunc_end11-_ZNK7CBufferIhE11GetCapacityEv
	.cfi_endproc
                                        # -- End function
	.text
	.globl	_ZN8NArchive4NSwf8CHandler4OpenEP9IInStreamPKyP20IArchiveOpenCallback # -- Begin function _ZN8NArchive4NSwf8CHandler4OpenEP9IInStreamPKyP20IArchiveOpenCallback
	.p2align	4, 0x90
	.type	_ZN8NArchive4NSwf8CHandler4OpenEP9IInStreamPKyP20IArchiveOpenCallback,@function
_ZN8NArchive4NSwf8CHandler4OpenEP9IInStreamPKyP20IArchiveOpenCallback: # @_ZN8NArchive4NSwf8CHandler4OpenEP9IInStreamPKyP20IArchiveOpenCallback
.Lfunc_begin12:
	.loc	4 216 0 is_stmt 1       # /home/chris/test-suite/MultiSource/Benchmarks/7zip/CPP/7zip/Archive/SwfHandler.cpp:216:0
	.cfi_startproc
# %bb.0:                                # %entry
	#DEBUG_VALUE: Open:this <- $rdi
	#DEBUG_VALUE: Open:this <- $rdi
	#DEBUG_VALUE: Open:this <- $rdi
	#DEBUG_VALUE: Open:stream <- $rsi
	#DEBUG_VALUE: Open:stream <- $rsi
	#DEBUG_VALUE: Open:stream <- $rsi
	#DEBUG_VALUE: Open:callback <- $rcx
	#DEBUG_VALUE: Open:callback <- $rcx
	#DEBUG_VALUE: Open: <- undef
	.loc	4 217 10 prologue_end   # /home/chris/test-suite/MultiSource/Benchmarks/7zip/CPP/7zip/Archive/SwfHandler.cpp:217:10
	movq	%rcx, %rdx
.Ltmp97:
	#DEBUG_VALUE: Open:callback <- $rdx
	jmp	_ZN8NArchive4NSwf8CHandler8OpenSeq2EP19ISequentialInStreamP20IArchiveOpenCallback # TAILCALL
.Ltmp98:
.Lfunc_end12:
	.size	_ZN8NArchive4NSwf8CHandler4OpenEP9IInStreamPKyP20IArchiveOpenCallback, .Lfunc_end12-_ZN8NArchive4NSwf8CHandler4OpenEP9IInStreamPKyP20IArchiveOpenCallback
	.cfi_endproc
                                        # -- End function
	.globl	_ZN8NArchive4NSwf8CHandler8OpenSeq2EP19ISequentialInStreamP20IArchiveOpenCallback # -- Begin function _ZN8NArchive4NSwf8CHandler8OpenSeq2EP19ISequentialInStreamP20IArchiveOpenCallback
	.p2align	4, 0x90
	.type	_ZN8NArchive4NSwf8CHandler8OpenSeq2EP19ISequentialInStreamP20IArchiveOpenCallback,@function
_ZN8NArchive4NSwf8CHandler8OpenSeq2EP19ISequentialInStreamP20IArchiveOpenCallback: # @_ZN8NArchive4NSwf8CHandler8OpenSeq2EP19ISequentialInStreamP20IArchiveOpenCallback
.Lfunc_begin13:
	.loc	4 338 0                 # /home/chris/test-suite/MultiSource/Benchmarks/7zip/CPP/7zip/Archive/SwfHandler.cpp:338:0
	.cfi_startproc
	.cfi_personality 3, __gxx_personality_v0
	.cfi_lsda 3, .Lexception3
# %bb.0:                                # %entry
	pushq	%rax
	.cfi_def_cfa_offset 16
.Ltmp99:
.Ltmp102:
	#DEBUG_VALUE: OpenSeq2:this <- $rdi
	#DEBUG_VALUE: OpenSeq2:this <- $rdi
	#DEBUG_VALUE: OpenSeq2:stream <- $rsi
	#DEBUG_VALUE: OpenSeq2:stream <- $rsi
	#DEBUG_VALUE: OpenSeq2:callback <- $rdx
	#DEBUG_VALUE: OpenSeq2:callback <- $rdx
	#DEBUG_VALUE: OpenSeq2:callback <- $rdx
	#DEBUG_VALUE: OpenSeq2:stream <- $rsi
	#DEBUG_VALUE: OpenSeq2:this <- $rdi
	.loc	4 340 15 prologue_end   # /home/chris/test-suite/MultiSource/Benchmarks/7zip/CPP/7zip/Archive/SwfHandler.cpp:340:15
	callq	_ZN8NArchive4NSwf8CHandler8OpenSeq3EP19ISequentialInStreamP20IArchiveOpenCallback
.Ltmp103:
.Ltmp100:
# %bb.2:                                # %try.cont
	#DEBUG_VALUE: OpenSeq2:res <- $eax
	.loc	4 342 3                 # /home/chris/test-suite/MultiSource/Benchmarks/7zip/CPP/7zip/Archive/SwfHandler.cpp:342:3
	popq	%rcx
	.cfi_def_cfa_offset 8
	retq
.Ltmp104:
.LBB13_1:                               # %lpad
	.cfi_def_cfa_offset 16
.Ltmp101:
	.loc	4 340 43                # /home/chris/test-suite/MultiSource/Benchmarks/7zip/CPP/7zip/Archive/SwfHandler.cpp:340:43
	movq	%rax, %rdi
	callq	__cxa_begin_catch
.Ltmp105:
	#DEBUG_VALUE: OpenSeq2:res <- 1
	.loc	4 341 31                # /home/chris/test-suite/MultiSource/Benchmarks/7zip/CPP/7zip/Archive/SwfHandler.cpp:341:31
	callq	__cxa_end_catch
	movl	$1, %eax
.Ltmp106:
	#DEBUG_VALUE: OpenSeq2:res <- $eax
	.loc	4 342 3                 # /home/chris/test-suite/MultiSource/Benchmarks/7zip/CPP/7zip/Archive/SwfHandler.cpp:342:3
	popq	%rcx
	.cfi_def_cfa_offset 8
	retq
.Ltmp107:
.Lfunc_end13:
	.size	_ZN8NArchive4NSwf8CHandler8OpenSeq2EP19ISequentialInStreamP20IArchiveOpenCallback, .Lfunc_end13-_ZN8NArchive4NSwf8CHandler8OpenSeq2EP19ISequentialInStreamP20IArchiveOpenCallback
	.cfi_endproc
	.section	.gcc_except_table,"a",@progbits
	.p2align	2
GCC_except_table13:
.Lexception3:
	.byte	255                     # @LPStart Encoding = omit
	.byte	3                       # @TType Encoding = udata4
	.uleb128 .Lttbase1-.Lttbaseref1
.Lttbaseref1:
	.byte	1                       # Call site Encoding = uleb128
	.uleb128 .Lcst_end3-.Lcst_begin3
.Lcst_begin3:
	.uleb128 .Ltmp99-.Lfunc_begin13 # >> Call Site 1 <<
	.uleb128 .Ltmp100-.Ltmp99       #   Call between .Ltmp99 and .Ltmp100
	.uleb128 .Ltmp101-.Lfunc_begin13 #     jumps to .Ltmp101
	.byte	1                       #   On action: 1
	.uleb128 .Ltmp100-.Lfunc_begin13 # >> Call Site 2 <<
	.uleb128 .Lfunc_end13-.Ltmp100  #   Call between .Ltmp100 and .Lfunc_end13
	.byte	0                       #     has no landing pad
	.byte	0                       #   On action: cleanup
.Lcst_end3:
	.byte	1                       # >> Action Record 1 <<
                                        #   Catch TypeInfo 1
	.byte	0                       #   No further actions
	.p2align	2
                                        # >> Catch TypeInfos <<
	.long	0                       # TypeInfo 1
.Lttbase1:
	.p2align	2
                                        # -- End function
	.text
	.globl	_ZN8NArchive4NSwf10CBitReader8ReadBitsEj # -- Begin function _ZN8NArchive4NSwf10CBitReader8ReadBitsEj
	.p2align	4, 0x90
	.type	_ZN8NArchive4NSwf10CBitReader8ReadBitsEj,@function
_ZN8NArchive4NSwf10CBitReader8ReadBitsEj: # @_ZN8NArchive4NSwf10CBitReader8ReadBitsEj
.Lfunc_begin14:
	.loc	4 258 0                 # /home/chris/test-suite/MultiSource/Benchmarks/7zip/CPP/7zip/Archive/SwfHandler.cpp:258:0
	.cfi_startproc
# %bb.0:                                # %entry
	#DEBUG_VALUE: ReadBits:this <- $rdi
	#DEBUG_VALUE: ReadBits:numBits <- $esi
	pushq	%rbp
	.cfi_def_cfa_offset 16
	pushq	%r14
	.cfi_def_cfa_offset 24
	pushq	%rbx
	.cfi_def_cfa_offset 32
	.cfi_offset %rbx, -32
	.cfi_offset %r14, -24
	.cfi_offset %rbp, -16
.Ltmp108:
	#DEBUG_VALUE: ReadBits:res <- 0
	.loc	4 260 18 prologue_end   # /home/chris/test-suite/MultiSource/Benchmarks/7zip/CPP/7zip/Archive/SwfHandler.cpp:260:18
	testl	%esi, %esi
	.loc	4 260 3 is_stmt 0       # /home/chris/test-suite/MultiSource/Benchmarks/7zip/CPP/7zip/Archive/SwfHandler.cpp:260:3
	je	.LBB14_1
.Ltmp109:
# %bb.2:                                # %while.body.lr.ph
	#DEBUG_VALUE: ReadBits:res <- 0
	#DEBUG_VALUE: ReadBits:numBits <- $esi
	#DEBUG_VALUE: ReadBits:this <- $rdi
	.loc	4 0 3                   # /home/chris/test-suite/MultiSource/Benchmarks/7zip/CPP/7zip/Archive/SwfHandler.cpp:0:3
	movl	%esi, %ebp
.Ltmp110:
	#DEBUG_VALUE: ReadBits:numBits <- $ebp
	movq	%rdi, %r14
.Ltmp111:
	#DEBUG_VALUE: ReadBits:this <- $r14
	.loc	4 260 3                 # /home/chris/test-suite/MultiSource/Benchmarks/7zip/CPP/7zip/Archive/SwfHandler.cpp:260:3
	cmpl	$0, 8(%rdi)
	sete	%cl
	xorl	%ebx, %ebx
.Ltmp112:
	.p2align	4, 0x90
.LBB14_3:                               # %while.body
                                        # =>This Inner Loop Header: Depth=1
	#DEBUG_VALUE: ReadBits:this <- $r14
	#DEBUG_VALUE: ReadBits:numBits <- $ebp
	#DEBUG_VALUE: ReadBits:numBits <- $ebp
	#DEBUG_VALUE: ReadBits:res <- $ebx
	.loc	4 262 9 is_stmt 1       # /home/chris/test-suite/MultiSource/Benchmarks/7zip/CPP/7zip/Archive/SwfHandler.cpp:262:9
	testb	$1, %cl
	je	.LBB14_5
.Ltmp113:
# %bb.4:                                # %if.then
                                        #   in Loop: Header=BB14_3 Depth=1
	#DEBUG_VALUE: ReadBits:res <- $ebx
	#DEBUG_VALUE: ReadBits:this <- $r14
	#DEBUG_VALUE: ReadBits:numBits <- $ebp
	.loc	4 264 13                # /home/chris/test-suite/MultiSource/Benchmarks/7zip/CPP/7zip/Archive/SwfHandler.cpp:264:13
	movq	(%r14), %rdi
	.loc	4 264 21 is_stmt 0      # /home/chris/test-suite/MultiSource/Benchmarks/7zip/CPP/7zip/Archive/SwfHandler.cpp:264:21
	callq	_ZN9CInBuffer8ReadByteEv
	.loc	4 264 11                # /home/chris/test-suite/MultiSource/Benchmarks/7zip/CPP/7zip/Archive/SwfHandler.cpp:264:11
	movb	%al, 12(%r14)
	.loc	4 265 15 is_stmt 1      # /home/chris/test-suite/MultiSource/Benchmarks/7zip/CPP/7zip/Archive/SwfHandler.cpp:265:15
	movl	$8, 8(%r14)
.Ltmp114:
.LBB14_5:                               # %if.end
                                        #   in Loop: Header=BB14_3 Depth=1
	#DEBUG_VALUE: ReadBits:res <- $ebx
	#DEBUG_VALUE: ReadBits:this <- $r14
	#DEBUG_VALUE: ReadBits:numBits <- $ebp
	.loc	4 267 20                # /home/chris/test-suite/MultiSource/Benchmarks/7zip/CPP/7zip/Archive/SwfHandler.cpp:267:20
	movl	8(%r14), %eax
	.loc	4 267 17 is_stmt 0      # /home/chris/test-suite/MultiSource/Benchmarks/7zip/CPP/7zip/Archive/SwfHandler.cpp:267:17
	cmpl	%eax, %ebp
.Ltmp115:
	.loc	4 267 9                 # /home/chris/test-suite/MultiSource/Benchmarks/7zip/CPP/7zip/Archive/SwfHandler.cpp:267:9
	jbe	.LBB14_6
.Ltmp116:
# %bb.7:                                # %if.else
                                        #   in Loop: Header=BB14_3 Depth=1
	#DEBUG_VALUE: ReadBits:res <- $ebx
	#DEBUG_VALUE: ReadBits:this <- $r14
	#DEBUG_VALUE: ReadBits:numBits <- $ebp
	.loc	4 277 11 is_stmt 1      # /home/chris/test-suite/MultiSource/Benchmarks/7zip/CPP/7zip/Archive/SwfHandler.cpp:277:11
	movl	%eax, %ecx
	shll	%cl, %ebx
.Ltmp117:
	#DEBUG_VALUE: ReadBits:res <- $ebx
	.loc	4 278 14                # /home/chris/test-suite/MultiSource/Benchmarks/7zip/CPP/7zip/Archive/SwfHandler.cpp:278:14
	movzbl	12(%r14), %ecx
	.loc	4 278 11 is_stmt 0      # /home/chris/test-suite/MultiSource/Benchmarks/7zip/CPP/7zip/Archive/SwfHandler.cpp:278:11
	orl	%ecx, %ebx
.Ltmp118:
	#DEBUG_VALUE: ReadBits:res <- $ebx
	.loc	4 280 15 is_stmt 1      # /home/chris/test-suite/MultiSource/Benchmarks/7zip/CPP/7zip/Archive/SwfHandler.cpp:280:15
	movl	$0, 8(%r14)
	movb	$1, %cl
.Ltmp119:
	.loc	4 260 18                # /home/chris/test-suite/MultiSource/Benchmarks/7zip/CPP/7zip/Archive/SwfHandler.cpp:260:18
	subl	%eax, %ebp
.Ltmp120:
	#DEBUG_VALUE: ReadBits:numBits <- $ebp
	.loc	4 260 3 is_stmt 0       # /home/chris/test-suite/MultiSource/Benchmarks/7zip/CPP/7zip/Archive/SwfHandler.cpp:260:3
	jne	.LBB14_3
	jmp	.LBB14_8
.Ltmp121:
.LBB14_1:
	#DEBUG_VALUE: ReadBits:res <- 0
	#DEBUG_VALUE: ReadBits:numBits <- $esi
	#DEBUG_VALUE: ReadBits:this <- $rdi
	.loc	4 0 3                   # /home/chris/test-suite/MultiSource/Benchmarks/7zip/CPP/7zip/Archive/SwfHandler.cpp:0:3
	xorl	%ebx, %ebx
	jmp	.LBB14_8
.Ltmp122:
.LBB14_6:                               # %if.then6
	#DEBUG_VALUE: ReadBits:res <- $ebx
	#DEBUG_VALUE: ReadBits:this <- $r14
	#DEBUG_VALUE: ReadBits:numBits <- $ebp
	.loc	4 269 11 is_stmt 1      # /home/chris/test-suite/MultiSource/Benchmarks/7zip/CPP/7zip/Archive/SwfHandler.cpp:269:11
	movl	%ebp, %ecx
	shll	%cl, %ebx
.Ltmp123:
	#DEBUG_VALUE: ReadBits:res <- $ebx
	.loc	4 270 15                # /home/chris/test-suite/MultiSource/Benchmarks/7zip/CPP/7zip/Archive/SwfHandler.cpp:270:15
	subl	%ebp, %eax
	movl	%eax, 8(%r14)
	.loc	4 271 15                # /home/chris/test-suite/MultiSource/Benchmarks/7zip/CPP/7zip/Archive/SwfHandler.cpp:271:15
	movzbl	12(%r14), %edx
	.loc	4 271 19 is_stmt 0      # /home/chris/test-suite/MultiSource/Benchmarks/7zip/CPP/7zip/Archive/SwfHandler.cpp:271:19
	movl	%edx, %esi
	movl	%eax, %ecx
	shrl	%cl, %esi
	movl	$-1, %edi
	.loc	4 272 29 is_stmt 1      # /home/chris/test-suite/MultiSource/Benchmarks/7zip/CPP/7zip/Archive/SwfHandler.cpp:272:29
	shll	%cl, %edi
	.loc	4 271 11                # /home/chris/test-suite/MultiSource/Benchmarks/7zip/CPP/7zip/Archive/SwfHandler.cpp:271:11
	orl	%esi, %ebx
.Ltmp124:
	#DEBUG_VALUE: ReadBits:res <- $ebx
	.loc	4 272 11                # /home/chris/test-suite/MultiSource/Benchmarks/7zip/CPP/7zip/Archive/SwfHandler.cpp:272:11
	notb	%dil
	andb	%dl, %dil
	movb	%dil, 12(%r14)
.Ltmp125:
.LBB14_8:                               # %while.end
	#DEBUG_VALUE: ReadBits:res <- $ebx
	.loc	4 283 3                 # /home/chris/test-suite/MultiSource/Benchmarks/7zip/CPP/7zip/Archive/SwfHandler.cpp:283:3
	movl	%ebx, %eax
	popq	%rbx
.Ltmp126:
	.cfi_def_cfa_offset 24
	popq	%r14
	.cfi_def_cfa_offset 16
	popq	%rbp
	.cfi_def_cfa_offset 8
	retq
.Ltmp127:
.Lfunc_end14:
	.size	_ZN8NArchive4NSwf10CBitReader8ReadBitsEj, .Lfunc_end14-_ZN8NArchive4NSwf10CBitReader8ReadBitsEj
	.cfi_endproc
	.file	23 "/home/chris/test-suite/MultiSource/Benchmarks/7zip/CPP/7zip/Archive/../Compress/../Common" "InBuffer.h"
                                        # -- End function
	.section	.text._ZN9CInBuffer8ReadByteEv,"axG",@progbits,_ZN9CInBuffer8ReadByteEv,comdat
	.weak	_ZN9CInBuffer8ReadByteEv # -- Begin function _ZN9CInBuffer8ReadByteEv
	.p2align	4, 0x90
	.type	_ZN9CInBuffer8ReadByteEv,@function
_ZN9CInBuffer8ReadByteEv:               # @_ZN9CInBuffer8ReadByteEv
.Lfunc_begin15:
	.loc	23 54 0                 # /home/chris/test-suite/MultiSource/Benchmarks/7zip/CPP/7zip/Archive/../Compress/../Common/InBuffer.h:54:0
	.cfi_startproc
# %bb.0:                                # %entry
	#DEBUG_VALUE: ReadByte:this <- $rdi
	#DEBUG_VALUE: ReadByte:this <- $rdi
	.loc	23 55 9 prologue_end    # /home/chris/test-suite/MultiSource/Benchmarks/7zip/CPP/7zip/Archive/../Compress/../Common/InBuffer.h:55:9
	movq	(%rdi), %rax
	.loc	23 55 17 is_stmt 0      # /home/chris/test-suite/MultiSource/Benchmarks/7zip/CPP/7zip/Archive/../Compress/../Common/InBuffer.h:55:17
	cmpq	8(%rdi), %rax
.Ltmp128:
	.loc	23 55 9                 # /home/chris/test-suite/MultiSource/Benchmarks/7zip/CPP/7zip/Archive/../Compress/../Common/InBuffer.h:55:9
	jae	.LBB15_2
.Ltmp129:
# %bb.1:                                # %if.end
	#DEBUG_VALUE: ReadByte:this <- $rdi
	.loc	23 57 20 is_stmt 1      # /home/chris/test-suite/MultiSource/Benchmarks/7zip/CPP/7zip/Archive/../Compress/../Common/InBuffer.h:57:20
	leaq	1(%rax), %rcx
	movq	%rcx, (%rdi)
	.loc	23 57 12 is_stmt 0      # /home/chris/test-suite/MultiSource/Benchmarks/7zip/CPP/7zip/Archive/../Compress/../Common/InBuffer.h:57:12
	movb	(%rax), %al
	.loc	23 58 3 is_stmt 1       # /home/chris/test-suite/MultiSource/Benchmarks/7zip/CPP/7zip/Archive/../Compress/../Common/InBuffer.h:58:3
	retq
.Ltmp130:
.LBB15_2:                               # %if.then
	#DEBUG_VALUE: ReadByte:this <- $rdi
	.loc	23 56 14                # /home/chris/test-suite/MultiSource/Benchmarks/7zip/CPP/7zip/Archive/../Compress/../Common/InBuffer.h:56:14
	jmp	_ZN9CInBuffer10ReadBlock2Ev # TAILCALL
.Ltmp131:
.Lfunc_end15:
	.size	_ZN9CInBuffer8ReadByteEv, .Lfunc_end15-_ZN9CInBuffer8ReadByteEv
	.cfi_endproc
                                        # -- End function
	.text
	.globl	_ZN8NArchive4NSwf8CHandler8OpenSeq3EP19ISequentialInStreamP20IArchiveOpenCallback # -- Begin function _ZN8NArchive4NSwf8CHandler8OpenSeq3EP19ISequentialInStreamP20IArchiveOpenCallback
	.p2align	4, 0x90
	.type	_ZN8NArchive4NSwf8CHandler8OpenSeq3EP19ISequentialInStreamP20IArchiveOpenCallback,@function
_ZN8NArchive4NSwf8CHandler8OpenSeq3EP19ISequentialInStreamP20IArchiveOpenCallback: # @_ZN8NArchive4NSwf8CHandler8OpenSeq3EP19ISequentialInStreamP20IArchiveOpenCallback
.Lfunc_begin16:
	.loc	4 287 0                 # /home/chris/test-suite/MultiSource/Benchmarks/7zip/CPP/7zip/Archive/SwfHandler.cpp:287:0
	.cfi_startproc
	.cfi_personality 3, __gxx_personality_v0
	.cfi_lsda 3, .Lexception4
# %bb.0:                                # %entry
	#DEBUG_VALUE: OpenSeq3:this <- $rdi
	#DEBUG_VALUE: OpenSeq3:stream <- $rsi
	#DEBUG_VALUE: OpenSeq3:callback <- $rdx
	pushq	%rbp
	.cfi_def_cfa_offset 16
	pushq	%r15
	.cfi_def_cfa_offset 24
	pushq	%r14
	.cfi_def_cfa_offset 32
	pushq	%r13
	.cfi_def_cfa_offset 40
	pushq	%r12
	.cfi_def_cfa_offset 48
	pushq	%rbx
	.cfi_def_cfa_offset 56
	subq	$136, %rsp
	.cfi_def_cfa_offset 192
	.cfi_offset %rbx, -56
	.cfi_offset %r12, -48
	.cfi_offset %r13, -40
	.cfi_offset %r14, -32
	.cfi_offset %r15, -24
	.cfi_offset %rbp, -16
	movq	%rdx, 40(%rsp)          # 8-byte Spill
.Ltmp178:
	#DEBUG_VALUE: OpenSeq3:callback <- [DW_OP_plus_uconst 40] [$rsp+0]
	movq	%rsi, %rbx
.Ltmp179:
	#DEBUG_VALUE: OpenSeq3:stream <- $rbx
	movq	%rdi, 24(%rsp)          # 8-byte Spill
.Ltmp180:
	#DEBUG_VALUE: OpenSeq3:this <- [DW_OP_plus_uconst 24] [$rsp+0]
	leaq	88(%rsp), %rbp
.Ltmp181:
	.loc	4 289 13 prologue_end   # /home/chris/test-suite/MultiSource/Benchmarks/7zip/CPP/7zip/Archive/SwfHandler.cpp:289:13
	movq	%rbp, %rdi
	callq	_ZN9CInBufferC1Ev
.Ltmp132:
.Ltmp182:
	.loc	4 290 10                # /home/chris/test-suite/MultiSource/Benchmarks/7zip/CPP/7zip/Archive/SwfHandler.cpp:290:10
	movq	%rbp, %rdi
	movl	$1048576, %esi          # imm = 0x100000
	callq	_ZN9CInBuffer6CreateEj
.Ltmp133:
.Ltmp183:
# %bb.1:                                # %invoke.cont
	#DEBUG_VALUE: OpenSeq3:this <- [DW_OP_plus_uconst 24] [$rsp+0]
	#DEBUG_VALUE: OpenSeq3:stream <- $rbx
	#DEBUG_VALUE: OpenSeq3:callback <- [DW_OP_plus_uconst 40] [$rsp+0]
	.loc	4 0 10 is_stmt 0        # /home/chris/test-suite/MultiSource/Benchmarks/7zip/CPP/7zip/Archive/SwfHandler.cpp:0:10
	movl	$-2147024882, 12(%rsp)  # 4-byte Folded Spill
                                        # imm = 0x8007000E
	.loc	4 290 7                 # /home/chris/test-suite/MultiSource/Benchmarks/7zip/CPP/7zip/Archive/SwfHandler.cpp:290:7
	testb	%al, %al
	je	.LBB16_42
.Ltmp184:
# %bb.2:                                # %if.end
	#DEBUG_VALUE: OpenSeq3:this <- [DW_OP_plus_uconst 24] [$rsp+0]
	#DEBUG_VALUE: OpenSeq3:stream <- $rbx
	#DEBUG_VALUE: OpenSeq3:callback <- [DW_OP_plus_uconst 40] [$rsp+0]
.Ltmp134:
	.loc	4 0 7                   # /home/chris/test-suite/MultiSource/Benchmarks/7zip/CPP/7zip/Archive/SwfHandler.cpp:0:7
	leaq	88(%rsp), %rdi
	.loc	4 292 5 is_stmt 1       # /home/chris/test-suite/MultiSource/Benchmarks/7zip/CPP/7zip/Archive/SwfHandler.cpp:292:5
	movq	%rbx, %rsi
	callq	_ZN9CInBuffer9SetStreamEP19ISequentialInStream
.Ltmp135:
.Ltmp185:
# %bb.3:                                # %invoke.cont2
	#DEBUG_VALUE: OpenSeq3:this <- [DW_OP_plus_uconst 24] [$rsp+0]
	#DEBUG_VALUE: OpenSeq3:stream <- $rbx
	#DEBUG_VALUE: OpenSeq3:callback <- [DW_OP_plus_uconst 40] [$rsp+0]
.Ltmp136:
	.loc	4 0 5 is_stmt 0         # /home/chris/test-suite/MultiSource/Benchmarks/7zip/CPP/7zip/Archive/SwfHandler.cpp:0:5
	leaq	88(%rsp), %rbx
.Ltmp186:
	.loc	4 293 5 is_stmt 1       # /home/chris/test-suite/MultiSource/Benchmarks/7zip/CPP/7zip/Archive/SwfHandler.cpp:293:5
	movq	%rbx, %rdi
	callq	_ZN9CInBuffer4InitEv
.Ltmp137:
.Ltmp187:
# %bb.4:                                # %invoke.cont3
	#DEBUG_VALUE: OpenSeq3:this <- [DW_OP_plus_uconst 24] [$rsp+0]
	#DEBUG_VALUE: OpenSeq3:callback <- [DW_OP_plus_uconst 40] [$rsp+0]
	.loc	4 0 5 is_stmt 0         # /home/chris/test-suite/MultiSource/Benchmarks/7zip/CPP/7zip/Archive/SwfHandler.cpp:0:5
	leaq	48(%rsp), %rbp
.Ltmp188:
	.loc	4 295 16 is_stmt 1      # /home/chris/test-suite/MultiSource/Benchmarks/7zip/CPP/7zip/Archive/SwfHandler.cpp:295:16
	movq	%rbp, %rdi
	callq	_ZN8NArchive4NSwf10CBitReaderC2Ev
	.loc	4 296 15                # /home/chris/test-suite/MultiSource/Benchmarks/7zip/CPP/7zip/Archive/SwfHandler.cpp:296:15
	movq	%rbx, 48(%rsp)
.Ltmp138:
	.loc	4 297 27                # /home/chris/test-suite/MultiSource/Benchmarks/7zip/CPP/7zip/Archive/SwfHandler.cpp:297:27
	movq	%rbp, %rdi
	movl	$5, %esi
	callq	_ZN8NArchive4NSwf10CBitReader8ReadBitsEj
.Ltmp139:
.Ltmp189:
# %bb.5:                                # %invoke.cont8
	#DEBUG_VALUE: OpenSeq3:this <- [DW_OP_plus_uconst 24] [$rsp+0]
	#DEBUG_VALUE: OpenSeq3:callback <- [DW_OP_plus_uconst 40] [$rsp+0]
	.loc	4 0 0 is_stmt 0         # /home/chris/test-suite/MultiSource/Benchmarks/7zip/CPP/7zip/Archive/SwfHandler.cpp:0:0
	movl	%eax, %ebx
.Ltmp140:
.Ltmp190:
	#DEBUG_VALUE: numBits <- $ebx
	leaq	48(%rsp), %rdi
	.loc	4 298 28 is_stmt 1      # /home/chris/test-suite/MultiSource/Benchmarks/7zip/CPP/7zip/Archive/SwfHandler.cpp:298:28
	movl	%eax, %esi
	callq	_ZN8NArchive4NSwf10CBitReader8ReadBitsEj
.Ltmp141:
.Ltmp191:
# %bb.6:                                # %invoke.cont10
	#DEBUG_VALUE: numBits <- $ebx
	#DEBUG_VALUE: OpenSeq3:this <- [DW_OP_plus_uconst 24] [$rsp+0]
	#DEBUG_VALUE: OpenSeq3:callback <- [DW_OP_plus_uconst 40] [$rsp+0]
.Ltmp142:
	.loc	4 0 28 is_stmt 0        # /home/chris/test-suite/MultiSource/Benchmarks/7zip/CPP/7zip/Archive/SwfHandler.cpp:0:28
	leaq	48(%rsp), %rdi
	.loc	4 299 28 is_stmt 1      # /home/chris/test-suite/MultiSource/Benchmarks/7zip/CPP/7zip/Archive/SwfHandler.cpp:299:28
	movl	%ebx, %esi
	callq	_ZN8NArchive4NSwf10CBitReader8ReadBitsEj
.Ltmp143:
.Ltmp192:
# %bb.7:                                # %invoke.cont12
	#DEBUG_VALUE: numBits <- $ebx
	#DEBUG_VALUE: OpenSeq3:this <- [DW_OP_plus_uconst 24] [$rsp+0]
	#DEBUG_VALUE: OpenSeq3:callback <- [DW_OP_plus_uconst 40] [$rsp+0]
.Ltmp144:
	.loc	4 0 28 is_stmt 0        # /home/chris/test-suite/MultiSource/Benchmarks/7zip/CPP/7zip/Archive/SwfHandler.cpp:0:28
	leaq	48(%rsp), %rdi
	.loc	4 300 28 is_stmt 1      # /home/chris/test-suite/MultiSource/Benchmarks/7zip/CPP/7zip/Archive/SwfHandler.cpp:300:28
	movl	%ebx, %esi
	callq	_ZN8NArchive4NSwf10CBitReader8ReadBitsEj
.Ltmp145:
.Ltmp193:
# %bb.8:                                # %invoke.cont14
	#DEBUG_VALUE: numBits <- $ebx
	#DEBUG_VALUE: OpenSeq3:this <- [DW_OP_plus_uconst 24] [$rsp+0]
	#DEBUG_VALUE: OpenSeq3:callback <- [DW_OP_plus_uconst 40] [$rsp+0]
.Ltmp146:
	.loc	4 0 28 is_stmt 0        # /home/chris/test-suite/MultiSource/Benchmarks/7zip/CPP/7zip/Archive/SwfHandler.cpp:0:28
	leaq	48(%rsp), %rdi
	.loc	4 301 28 is_stmt 1      # /home/chris/test-suite/MultiSource/Benchmarks/7zip/CPP/7zip/Archive/SwfHandler.cpp:301:28
	movl	%ebx, %esi
	callq	_ZN8NArchive4NSwf10CBitReader8ReadBitsEj
.Ltmp147:
.Ltmp194:
# %bb.9:                                # %invoke.cont16
	#DEBUG_VALUE: OpenSeq3:this <- [DW_OP_plus_uconst 24] [$rsp+0]
	#DEBUG_VALUE: OpenSeq3:callback <- [DW_OP_plus_uconst 40] [$rsp+0]
.Ltmp149:
	.loc	4 0 28 is_stmt 0        # /home/chris/test-suite/MultiSource/Benchmarks/7zip/CPP/7zip/Archive/SwfHandler.cpp:0:28
	leaq	88(%rsp), %rdi
	.loc	4 303 29 is_stmt 1      # /home/chris/test-suite/MultiSource/Benchmarks/7zip/CPP/7zip/Archive/SwfHandler.cpp:303:29
	callq	_ZN8NArchive4NSwfL6Read16ER9CInBuffer
.Ltmp150:
.Ltmp195:
# %bb.10:                               # %invoke.cont18
	#DEBUG_VALUE: OpenSeq3:this <- [DW_OP_plus_uconst 24] [$rsp+0]
	#DEBUG_VALUE: OpenSeq3:callback <- [DW_OP_plus_uconst 40] [$rsp+0]
.Ltmp151:
	.loc	4 0 29 is_stmt 0        # /home/chris/test-suite/MultiSource/Benchmarks/7zip/CPP/7zip/Archive/SwfHandler.cpp:0:29
	leaq	88(%rsp), %rdi
	.loc	4 304 29 is_stmt 1      # /home/chris/test-suite/MultiSource/Benchmarks/7zip/CPP/7zip/Archive/SwfHandler.cpp:304:29
	callq	_ZN8NArchive4NSwfL6Read16ER9CInBuffer
.Ltmp152:
.Ltmp196:
# %bb.11:                               # %invoke.cont20
	#DEBUG_VALUE: OpenSeq3:this <- [DW_OP_plus_uconst 24] [$rsp+0]
	#DEBUG_VALUE: OpenSeq3:callback <- [DW_OP_plus_uconst 40] [$rsp+0]
	.loc	4 0 29 is_stmt 0        # /home/chris/test-suite/MultiSource/Benchmarks/7zip/CPP/7zip/Archive/SwfHandler.cpp:0:29
	movq	24(%rsp), %rax          # 8-byte Reload
	.loc	4 306 3 is_stmt 1       # /home/chris/test-suite/MultiSource/Benchmarks/7zip/CPP/7zip/Archive/SwfHandler.cpp:306:3
	leaq	24(%rax), %rbx
.Ltmp153:
	.loc	4 306 9 is_stmt 0       # /home/chris/test-suite/MultiSource/Benchmarks/7zip/CPP/7zip/Archive/SwfHandler.cpp:306:9
	movq	%rbx, %rdi
	callq	_ZN17CBaseRecordVector5ClearEv
.Ltmp154:
.Ltmp197:
# %bb.12:                               # %for.cond.preheader
	#DEBUG_VALUE: OpenSeq3:this <- [DW_OP_plus_uconst 24] [$rsp+0]
	#DEBUG_VALUE: OpenSeq3:callback <- [DW_OP_plus_uconst 40] [$rsp+0]
	.loc	4 0 9                   # /home/chris/test-suite/MultiSource/Benchmarks/7zip/CPP/7zip/Archive/SwfHandler.cpp:0:9
	xorl	%eax, %eax
	movq	%rax, 32(%rsp)          # 8-byte Spill
	leaq	48(%rsp), %r15
                                        # implicit-def: $eax
                                        # kill: killed $eax
.Ltmp198:
	.p2align	4, 0x90
.LBB16_13:                              # %for.cond
                                        # =>This Inner Loop Header: Depth=1
	#DEBUG_VALUE: OpenSeq3:this <- [DW_OP_plus_uconst 24] [$rsp+0]
	#DEBUG_VALUE: OpenSeq3:callback <- [DW_OP_plus_uconst 40] [$rsp+0]
.Ltmp156:
	#DEBUG_VALUE: OpenSeq3:offsetPrev <- [DW_OP_plus_uconst 32] [$rsp+0]
	.loc	4 310 19 is_stmt 1      # /home/chris/test-suite/MultiSource/Benchmarks/7zip/CPP/7zip/Archive/SwfHandler.cpp:310:19
	leaq	88(%rsp), %rdi
	callq	_ZN8NArchive4NSwfL6Read16ER9CInBuffer
.Ltmp157:
.Ltmp199:
# %bb.14:                               # %invoke.cont24
                                        #   in Loop: Header=BB16_13 Depth=1
	#DEBUG_VALUE: OpenSeq3:offsetPrev <- [DW_OP_plus_uconst 32] [$rsp+0]
	#DEBUG_VALUE: OpenSeq3:this <- [DW_OP_plus_uconst 24] [$rsp+0]
	#DEBUG_VALUE: OpenSeq3:callback <- [DW_OP_plus_uconst 40] [$rsp+0]
	movzwl	%ax, %r14d
.Ltmp200:
	#DEBUG_VALUE: pair <- $r14d
	.loc	4 312 26                # /home/chris/test-suite/MultiSource/Benchmarks/7zip/CPP/7zip/Archive/SwfHandler.cpp:312:26
	movl	%r14d, %r13d
	andl	$63, %r13d
.Ltmp201:
	#DEBUG_VALUE: length <- $r13d
	.loc	4 313 16                # /home/chris/test-suite/MultiSource/Benchmarks/7zip/CPP/7zip/Archive/SwfHandler.cpp:313:16
	cmpl	$63, %r13d
.Ltmp202:
	.loc	4 313 9 is_stmt 0       # /home/chris/test-suite/MultiSource/Benchmarks/7zip/CPP/7zip/Archive/SwfHandler.cpp:313:9
	jne	.LBB16_17
.Ltmp203:
# %bb.15:                               # %if.then26
                                        #   in Loop: Header=BB16_13 Depth=1
	#DEBUG_VALUE: length <- $r13d
	#DEBUG_VALUE: pair <- $r14d
	#DEBUG_VALUE: OpenSeq3:offsetPrev <- [DW_OP_plus_uconst 32] [$rsp+0]
	#DEBUG_VALUE: OpenSeq3:this <- [DW_OP_plus_uconst 24] [$rsp+0]
	#DEBUG_VALUE: OpenSeq3:callback <- [DW_OP_plus_uconst 40] [$rsp+0]
.Ltmp159:
	.loc	4 314 16 is_stmt 1      # /home/chris/test-suite/MultiSource/Benchmarks/7zip/CPP/7zip/Archive/SwfHandler.cpp:314:16
	leaq	88(%rsp), %rdi
	callq	_ZN8NArchive4NSwfL6Read32ER9CInBuffer
.Ltmp160:
.Ltmp204:
# %bb.16:                               #   in Loop: Header=BB16_13 Depth=1
	#DEBUG_VALUE: length <- $r13d
	#DEBUG_VALUE: pair <- $r14d
	#DEBUG_VALUE: OpenSeq3:offsetPrev <- [DW_OP_plus_uconst 32] [$rsp+0]
	#DEBUG_VALUE: OpenSeq3:this <- [DW_OP_plus_uconst 24] [$rsp+0]
	#DEBUG_VALUE: OpenSeq3:callback <- [DW_OP_plus_uconst 40] [$rsp+0]
	.loc	4 0 16 is_stmt 0        # /home/chris/test-suite/MultiSource/Benchmarks/7zip/CPP/7zip/Archive/SwfHandler.cpp:0:16
	movl	%eax, %r13d
.Ltmp205:
.LBB16_17:                              # %if.end30
                                        #   in Loop: Header=BB16_13 Depth=1
	#DEBUG_VALUE: pair <- $r14d
	#DEBUG_VALUE: OpenSeq3:offsetPrev <- [DW_OP_plus_uconst 32] [$rsp+0]
	#DEBUG_VALUE: OpenSeq3:this <- [DW_OP_plus_uconst 24] [$rsp+0]
	#DEBUG_VALUE: OpenSeq3:callback <- [DW_OP_plus_uconst 40] [$rsp+0]
	leaq	88(%rsp), %rdi
	shrl	$6, %r14d
.Ltmp206:
	#DEBUG_VALUE: type <- $r14d
	#DEBUG_VALUE: length <- $r13d
	.loc	4 315 9 is_stmt 1       # /home/chris/test-suite/MultiSource/Benchmarks/7zip/CPP/7zip/Archive/SwfHandler.cpp:315:9
	je	.LBB16_41
.Ltmp207:
# %bb.18:                               # %if.end33
                                        #   in Loop: Header=BB16_13 Depth=1
	#DEBUG_VALUE: type <- $r14d
	#DEBUG_VALUE: length <- $r13d
	#DEBUG_VALUE: OpenSeq3:offsetPrev <- [DW_OP_plus_uconst 32] [$rsp+0]
	#DEBUG_VALUE: OpenSeq3:this <- [DW_OP_plus_uconst 24] [$rsp+0]
	#DEBUG_VALUE: OpenSeq3:callback <- [DW_OP_plus_uconst 40] [$rsp+0]
	.loc	4 317 23                # /home/chris/test-suite/MultiSource/Benchmarks/7zip/CPP/7zip/Archive/SwfHandler.cpp:317:23
	callq	_ZNK9CInBuffer16GetProcessedSizeEv
	.loc	4 317 44 is_stmt 0      # /home/chris/test-suite/MultiSource/Benchmarks/7zip/CPP/7zip/Archive/SwfHandler.cpp:317:44
	movl	%r13d, %r12d
	.loc	4 317 42                # /home/chris/test-suite/MultiSource/Benchmarks/7zip/CPP/7zip/Archive/SwfHandler.cpp:317:42
	addq	%r12, %rax
.Ltmp208:
	#DEBUG_VALUE: offset <- $rax
	.loc	4 317 12                # /home/chris/test-suite/MultiSource/Benchmarks/7zip/CPP/7zip/Archive/SwfHandler.cpp:317:12
	movq	%rax, 16(%rsp)
.Ltmp209:
	.loc	4 318 16 is_stmt 1      # /home/chris/test-suite/MultiSource/Benchmarks/7zip/CPP/7zip/Archive/SwfHandler.cpp:318:16
	cmpq	$1073741824, %rax       # imm = 0x40000000
	.loc	4 318 31 is_stmt 0      # /home/chris/test-suite/MultiSource/Benchmarks/7zip/CPP/7zip/Archive/SwfHandler.cpp:318:31
	ja	.LBB16_46
.Ltmp210:
# %bb.19:                               # %lor.lhs.false
                                        #   in Loop: Header=BB16_13 Depth=1
	#DEBUG_VALUE: offset <- $rax
	#DEBUG_VALUE: type <- $r14d
	#DEBUG_VALUE: length <- $r13d
	#DEBUG_VALUE: OpenSeq3:offsetPrev <- [DW_OP_plus_uconst 32] [$rsp+0]
	#DEBUG_VALUE: OpenSeq3:this <- [DW_OP_plus_uconst 24] [$rsp+0]
	#DEBUG_VALUE: OpenSeq3:callback <- [DW_OP_plus_uconst 40] [$rsp+0]
	.loc	4 318 40                # /home/chris/test-suite/MultiSource/Benchmarks/7zip/CPP/7zip/Archive/SwfHandler.cpp:318:40
	movq	%rbx, %rdi
	callq	_ZNK17CBaseRecordVector4SizeEv
.Ltmp211:
	.loc	4 318 47                # /home/chris/test-suite/MultiSource/Benchmarks/7zip/CPP/7zip/Archive/SwfHandler.cpp:318:47
	cmpl	$8388607, %eax          # imm = 0x7FFFFF
.Ltmp212:
	.loc	4 318 9                 # /home/chris/test-suite/MultiSource/Benchmarks/7zip/CPP/7zip/Archive/SwfHandler.cpp:318:9
	jg	.LBB16_46
.Ltmp213:
# %bb.20:                               # %if.end44
                                        #   in Loop: Header=BB16_13 Depth=1
	#DEBUG_VALUE: type <- $r14d
	#DEBUG_VALUE: length <- $r13d
	#DEBUG_VALUE: OpenSeq3:offsetPrev <- [DW_OP_plus_uconst 32] [$rsp+0]
	#DEBUG_VALUE: OpenSeq3:this <- [DW_OP_plus_uconst 24] [$rsp+0]
	#DEBUG_VALUE: OpenSeq3:callback <- [DW_OP_plus_uconst 40] [$rsp+0]
	.loc	4 0 9                   # /home/chris/test-suite/MultiSource/Benchmarks/7zip/CPP/7zip/Archive/SwfHandler.cpp:0:9
	xorps	%xmm0, %xmm0
	.loc	4 320 15 is_stmt 1      # /home/chris/test-suite/MultiSource/Benchmarks/7zip/CPP/7zip/Archive/SwfHandler.cpp:320:15
	movaps	%xmm0, 64(%rsp)
	movaps	%xmm0, 48(%rsp)
.Ltmp162:
	movq	%r15, %rdi
	callq	_ZN8NArchive4NSwf4CTagC2Ev
.Ltmp163:
.Ltmp214:
# %bb.21:                               # %invoke.cont47
                                        #   in Loop: Header=BB16_13 Depth=1
	#DEBUG_VALUE: type <- $r14d
	#DEBUG_VALUE: length <- $r13d
	#DEBUG_VALUE: OpenSeq3:offsetPrev <- [DW_OP_plus_uconst 32] [$rsp+0]
	#DEBUG_VALUE: OpenSeq3:this <- [DW_OP_plus_uconst 24] [$rsp+0]
	#DEBUG_VALUE: OpenSeq3:callback <- [DW_OP_plus_uconst 40] [$rsp+0]
.Ltmp165:
	.loc	4 320 11 is_stmt 0      # /home/chris/test-suite/MultiSource/Benchmarks/7zip/CPP/7zip/Archive/SwfHandler.cpp:320:11
	movq	%rbx, %rdi
	movq	%r15, %rsi
	callq	_ZN13CObjectVectorIN8NArchive4NSwf4CTagEE3AddERKS2_
.Ltmp166:
.Ltmp215:
# %bb.22:                               # %invoke.cont49
                                        #   in Loop: Header=BB16_13 Depth=1
	#DEBUG_VALUE: type <- $r14d
	#DEBUG_VALUE: length <- $r13d
	#DEBUG_VALUE: OpenSeq3:offsetPrev <- [DW_OP_plus_uconst 32] [$rsp+0]
	#DEBUG_VALUE: OpenSeq3:this <- [DW_OP_plus_uconst 24] [$rsp+0]
	#DEBUG_VALUE: OpenSeq3:callback <- [DW_OP_plus_uconst 40] [$rsp+0]
	.loc	4 0 11                  # /home/chris/test-suite/MultiSource/Benchmarks/7zip/CPP/7zip/Archive/SwfHandler.cpp:0:11
	movq	%r15, %rbp
	.loc	4 320 5                 # /home/chris/test-suite/MultiSource/Benchmarks/7zip/CPP/7zip/Archive/SwfHandler.cpp:320:5
	movq	%r15, %rdi
	callq	_ZN8NArchive4NSwf4CTagD2Ev
.Ltmp168:
	movq	%rbx, %rdi
	.loc	4 321 23 is_stmt 1      # /home/chris/test-suite/MultiSource/Benchmarks/7zip/CPP/7zip/Archive/SwfHandler.cpp:321:23
	callq	_ZN13CObjectVectorIN8NArchive4NSwf4CTagEE4BackEv
.Ltmp169:
.Ltmp216:
# %bb.23:                               # %invoke.cont55
                                        #   in Loop: Header=BB16_13 Depth=1
	#DEBUG_VALUE: type <- $r14d
	#DEBUG_VALUE: length <- $r13d
	#DEBUG_VALUE: OpenSeq3:offsetPrev <- [DW_OP_plus_uconst 32] [$rsp+0]
	#DEBUG_VALUE: OpenSeq3:this <- [DW_OP_plus_uconst 24] [$rsp+0]
	#DEBUG_VALUE: OpenSeq3:callback <- [DW_OP_plus_uconst 40] [$rsp+0]
	.loc	4 0 0 is_stmt 0         # /home/chris/test-suite/MultiSource/Benchmarks/7zip/CPP/7zip/Archive/SwfHandler.cpp:0:0
	movq	%rax, %r15
.Ltmp217:
	#DEBUG_VALUE: tag <- $r15
	.loc	4 322 14 is_stmt 1      # /home/chris/test-suite/MultiSource/Benchmarks/7zip/CPP/7zip/Archive/SwfHandler.cpp:322:14
	movl	%r14d, (%rax)
	.loc	4 323 9                 # /home/chris/test-suite/MultiSource/Benchmarks/7zip/CPP/7zip/Archive/SwfHandler.cpp:323:9
	addq	$8, %r15
.Ltmp218:
.Ltmp170:
	.loc	4 323 13 is_stmt 0      # /home/chris/test-suite/MultiSource/Benchmarks/7zip/CPP/7zip/Archive/SwfHandler.cpp:323:13
	movq	%r15, %rdi
	movq	%r12, %rsi
	callq	_ZN7CBufferIhE11SetCapacityEm
.Ltmp171:
.Ltmp219:
# %bb.24:                               # %invoke.cont58
                                        #   in Loop: Header=BB16_13 Depth=1
	#DEBUG_VALUE: type <- $r14d
	#DEBUG_VALUE: length <- $r13d
	#DEBUG_VALUE: OpenSeq3:offsetPrev <- [DW_OP_plus_uconst 32] [$rsp+0]
	#DEBUG_VALUE: OpenSeq3:this <- [DW_OP_plus_uconst 24] [$rsp+0]
	#DEBUG_VALUE: OpenSeq3:callback <- [DW_OP_plus_uconst 40] [$rsp+0]
	.loc	4 324 21 is_stmt 1      # /home/chris/test-suite/MultiSource/Benchmarks/7zip/CPP/7zip/Archive/SwfHandler.cpp:324:21
	movq	%r15, %rdi
	callq	_ZN7CBufferIhEcvPhEv
.Ltmp172:
	.loc	4 324 11 is_stmt 0      # /home/chris/test-suite/MultiSource/Benchmarks/7zip/CPP/7zip/Archive/SwfHandler.cpp:324:11
	leaq	88(%rsp), %rdi
	movq	%rax, %rsi
	movl	%r13d, %edx
	callq	_ZN9CInBuffer9ReadBytesEPhj
.Ltmp173:
.Ltmp220:
# %bb.25:                               # %invoke.cont62
                                        #   in Loop: Header=BB16_13 Depth=1
	#DEBUG_VALUE: type <- $r14d
	#DEBUG_VALUE: length <- $r13d
	#DEBUG_VALUE: OpenSeq3:offsetPrev <- [DW_OP_plus_uconst 32] [$rsp+0]
	#DEBUG_VALUE: OpenSeq3:this <- [DW_OP_plus_uconst 24] [$rsp+0]
	#DEBUG_VALUE: OpenSeq3:callback <- [DW_OP_plus_uconst 40] [$rsp+0]
	.loc	4 324 38                # /home/chris/test-suite/MultiSource/Benchmarks/7zip/CPP/7zip/Archive/SwfHandler.cpp:324:38
	cmpl	%r13d, %eax
.Ltmp221:
	.loc	4 324 9                 # /home/chris/test-suite/MultiSource/Benchmarks/7zip/CPP/7zip/Archive/SwfHandler.cpp:324:9
	jne	.LBB16_46
.Ltmp222:
# %bb.26:                               # %if.end66
                                        #   in Loop: Header=BB16_13 Depth=1
	#DEBUG_VALUE: type <- $r14d
	#DEBUG_VALUE: length <- $r13d
	#DEBUG_VALUE: OpenSeq3:offsetPrev <- [DW_OP_plus_uconst 32] [$rsp+0]
	#DEBUG_VALUE: OpenSeq3:this <- [DW_OP_plus_uconst 24] [$rsp+0]
	#DEBUG_VALUE: OpenSeq3:callback <- [DW_OP_plus_uconst 40] [$rsp+0]
	.loc	4 0 9                   # /home/chris/test-suite/MultiSource/Benchmarks/7zip/CPP/7zip/Archive/SwfHandler.cpp:0:9
	movq	%rbp, %r15
.Ltmp223:
	cmpq	$0, 40(%rsp)            # 8-byte Folded Reload
	.loc	4 326 18 is_stmt 1      # /home/chris/test-suite/MultiSource/Benchmarks/7zip/CPP/7zip/Archive/SwfHandler.cpp:326:18
	je	.LBB16_39
.Ltmp224:
# %bb.27:                               # %land.lhs.true
                                        #   in Loop: Header=BB16_13 Depth=1
	#DEBUG_VALUE: type <- $r14d
	#DEBUG_VALUE: length <- $r13d
	#DEBUG_VALUE: OpenSeq3:offsetPrev <- [DW_OP_plus_uconst 32] [$rsp+0]
	#DEBUG_VALUE: OpenSeq3:this <- [DW_OP_plus_uconst 24] [$rsp+0]
	#DEBUG_VALUE: OpenSeq3:callback <- [DW_OP_plus_uconst 40] [$rsp+0]
	#DEBUG_VALUE: offset <- undef
	.loc	4 0 18 is_stmt 0        # /home/chris/test-suite/MultiSource/Benchmarks/7zip/CPP/7zip/Archive/SwfHandler.cpp:0:18
	movq	32(%rsp), %rax          # 8-byte Reload
	.loc	4 326 42                # /home/chris/test-suite/MultiSource/Benchmarks/7zip/CPP/7zip/Archive/SwfHandler.cpp:326:42
	addq	$1048576, %rax          # imm = 0x100000
	.loc	4 326 28                # /home/chris/test-suite/MultiSource/Benchmarks/7zip/CPP/7zip/Archive/SwfHandler.cpp:326:28
	cmpq	%rax, 16(%rsp)
.Ltmp225:
	.loc	4 326 9                 # /home/chris/test-suite/MultiSource/Benchmarks/7zip/CPP/7zip/Archive/SwfHandler.cpp:326:9
	jb	.LBB16_39
.Ltmp226:
# %bb.28:                               # %if.then69
                                        #   in Loop: Header=BB16_13 Depth=1
	#DEBUG_VALUE: type <- $r14d
	#DEBUG_VALUE: length <- $r13d
	#DEBUG_VALUE: OpenSeq3:offsetPrev <- [DW_OP_plus_uconst 32] [$rsp+0]
	#DEBUG_VALUE: OpenSeq3:this <- [DW_OP_plus_uconst 24] [$rsp+0]
	#DEBUG_VALUE: OpenSeq3:callback <- [DW_OP_plus_uconst 40] [$rsp+0]
	.loc	4 328 31 is_stmt 1      # /home/chris/test-suite/MultiSource/Benchmarks/7zip/CPP/7zip/Archive/SwfHandler.cpp:328:31
	movq	%rbx, %rdi
	callq	_ZNK17CBaseRecordVector4SizeEv
	.loc	4 328 25 is_stmt 0      # /home/chris/test-suite/MultiSource/Benchmarks/7zip/CPP/7zip/Archive/SwfHandler.cpp:328:25
	cltq
.Ltmp227:
	#DEBUG_VALUE: numItems <- $rax
	.loc	4 328 14                # /home/chris/test-suite/MultiSource/Benchmarks/7zip/CPP/7zip/Archive/SwfHandler.cpp:328:14
	movq	%rax, 48(%rsp)
	movq	40(%rsp), %rdi          # 8-byte Reload
.Ltmp228:
	.loc	4 329 7 is_stmt 1       # /home/chris/test-suite/MultiSource/Benchmarks/7zip/CPP/7zip/Archive/SwfHandler.cpp:329:7
	movq	(%rdi), %rax
.Ltmp229:
.Ltmp175:
	movq	%r15, %rsi
	leaq	16(%rsp), %rdx
	callq	*48(%rax)
.Ltmp176:
.Ltmp230:
# %bb.29:                               # %invoke.cont76
                                        #   in Loop: Header=BB16_13 Depth=1
	#DEBUG_VALUE: type <- $r14d
	#DEBUG_VALUE: length <- $r13d
	#DEBUG_VALUE: OpenSeq3:offsetPrev <- [DW_OP_plus_uconst 32] [$rsp+0]
	#DEBUG_VALUE: OpenSeq3:this <- [DW_OP_plus_uconst 24] [$rsp+0]
	#DEBUG_VALUE: OpenSeq3:callback <- [DW_OP_plus_uconst 40] [$rsp+0]
	.loc	4 329 7 is_stmt 0       # /home/chris/test-suite/MultiSource/Benchmarks/7zip/CPP/7zip/Archive/SwfHandler.cpp:329:7
	xorl	%ecx, %ecx
	testl	%eax, %eax
	setne	%dl
.Ltmp231:
	#DEBUG_VALUE: OpenSeq3:offsetPrev <- undef
	.loc	4 0 7                   # /home/chris/test-suite/MultiSource/Benchmarks/7zip/CPP/7zip/Archive/SwfHandler.cpp:0:7
	je	.LBB16_38
.Ltmp232:
# %bb.30:                               #   in Loop: Header=BB16_13 Depth=1
	#DEBUG_VALUE: type <- $r14d
	#DEBUG_VALUE: length <- $r13d
	#DEBUG_VALUE: OpenSeq3:this <- [DW_OP_plus_uconst 24] [$rsp+0]
	#DEBUG_VALUE: OpenSeq3:callback <- [DW_OP_plus_uconst 40] [$rsp+0]
	#DEBUG_VALUE: __result__ <- $eax
	movb	%dl, %cl
	movl	%eax, 12(%rsp)          # 4-byte Spill
.Ltmp233:
	#DEBUG_VALUE: __result__ <- [DW_OP_plus_uconst 12] [$rsp+0]
	#DEBUG_VALUE: __result__ <- [DW_OP_plus_uconst 12] [$rsp+0]
	jmp	.LBB16_40
.Ltmp234:
.LBB16_38:                              #   in Loop: Header=BB16_13 Depth=1
	#DEBUG_VALUE: type <- $r14d
	#DEBUG_VALUE: length <- $r13d
	#DEBUG_VALUE: OpenSeq3:this <- [DW_OP_plus_uconst 24] [$rsp+0]
	#DEBUG_VALUE: OpenSeq3:callback <- [DW_OP_plus_uconst 40] [$rsp+0]
	movq	16(%rsp), %rax
	movq	%rax, 32(%rsp)          # 8-byte Spill
.Ltmp235:
	.p2align	4, 0x90
.LBB16_39:                              # %if.end86
                                        #   in Loop: Header=BB16_13 Depth=1
	#DEBUG_VALUE: type <- $r14d
	#DEBUG_VALUE: length <- $r13d
	#DEBUG_VALUE: OpenSeq3:this <- [DW_OP_plus_uconst 24] [$rsp+0]
	#DEBUG_VALUE: OpenSeq3:callback <- [DW_OP_plus_uconst 40] [$rsp+0]
	#DEBUG_VALUE: OpenSeq3:offsetPrev <- [DW_OP_plus_uconst 32] [$rsp+0]
	xorl	%ecx, %ecx
.Ltmp236:
.LBB16_40:                              # %cleanup91
                                        #   in Loop: Header=BB16_13 Depth=1
	#DEBUG_VALUE: type <- $r14d
	#DEBUG_VALUE: length <- $r13d
	#DEBUG_VALUE: OpenSeq3:this <- [DW_OP_plus_uconst 24] [$rsp+0]
	#DEBUG_VALUE: OpenSeq3:callback <- [DW_OP_plus_uconst 40] [$rsp+0]
	#DEBUG_VALUE: OpenSeq3:offsetPrev <- [DW_OP_plus_uconst 32] [$rsp+0]
	testl	%ecx, %ecx
	je	.LBB16_13
	jmp	.LBB16_42
.Ltmp237:
.LBB16_46:                              # %cleanup91.thread142
	#DEBUG_VALUE: type <- $r14d
	#DEBUG_VALUE: length <- $r13d
	#DEBUG_VALUE: OpenSeq3:offsetPrev <- [DW_OP_plus_uconst 32] [$rsp+0]
	#DEBUG_VALUE: OpenSeq3:this <- [DW_OP_plus_uconst 24] [$rsp+0]
	#DEBUG_VALUE: OpenSeq3:callback <- [DW_OP_plus_uconst 40] [$rsp+0]
	movl	$1, 12(%rsp)            # 4-byte Folded Spill
	jmp	.LBB16_42
.Ltmp238:
.LBB16_41:                              # %for.end
	#DEBUG_VALUE: OpenSeq3:offsetPrev <- [DW_OP_plus_uconst 32] [$rsp+0]
	#DEBUG_VALUE: OpenSeq3:this <- [DW_OP_plus_uconst 24] [$rsp+0]
	#DEBUG_VALUE: OpenSeq3:callback <- [DW_OP_plus_uconst 40] [$rsp+0]
	.loc	4 333 17 is_stmt 1      # /home/chris/test-suite/MultiSource/Benchmarks/7zip/CPP/7zip/Archive/SwfHandler.cpp:333:17
	callq	_ZNK9CInBuffer16GetProcessedSizeEv
	movq	24(%rsp), %rcx          # 8-byte Reload
	.loc	4 333 13 is_stmt 0      # /home/chris/test-suite/MultiSource/Benchmarks/7zip/CPP/7zip/Archive/SwfHandler.cpp:333:13
	movq	%rax, 56(%rcx)
	movl	$0, 12(%rsp)            # 4-byte Folded Spill
.Ltmp239:
.LBB16_42:                              # %cleanup104
	#DEBUG_VALUE: OpenSeq3:this <- [DW_OP_plus_uconst 24] [$rsp+0]
	#DEBUG_VALUE: OpenSeq3:callback <- [DW_OP_plus_uconst 40] [$rsp+0]
	.loc	4 0 13                  # /home/chris/test-suite/MultiSource/Benchmarks/7zip/CPP/7zip/Archive/SwfHandler.cpp:0:13
	leaq	88(%rsp), %rdi
	.loc	4 335 1 is_stmt 1       # /home/chris/test-suite/MultiSource/Benchmarks/7zip/CPP/7zip/Archive/SwfHandler.cpp:335:1
	callq	_ZN9CInBufferD2Ev
	movl	12(%rsp), %eax          # 4-byte Reload
	addq	$136, %rsp
	.cfi_def_cfa_offset 56
	popq	%rbx
	.cfi_def_cfa_offset 48
	popq	%r12
	.cfi_def_cfa_offset 40
	popq	%r13
	.cfi_def_cfa_offset 32
	popq	%r14
	.cfi_def_cfa_offset 24
	popq	%r15
	.cfi_def_cfa_offset 16
	popq	%rbp
	.cfi_def_cfa_offset 8
	retq
.Ltmp240:
.LBB16_37:                              # %lpad75
	.cfi_def_cfa_offset 192
	#DEBUG_VALUE: type <- $r14d
	#DEBUG_VALUE: length <- $r13d
	#DEBUG_VALUE: OpenSeq3:offsetPrev <- [DW_OP_plus_uconst 32] [$rsp+0]
	#DEBUG_VALUE: OpenSeq3:this <- [DW_OP_plus_uconst 24] [$rsp+0]
	#DEBUG_VALUE: OpenSeq3:callback <- [DW_OP_plus_uconst 40] [$rsp+0]
.Ltmp177:
	.loc	4 0 1 is_stmt 0         # /home/chris/test-suite/MultiSource/Benchmarks/7zip/CPP/7zip/Archive/SwfHandler.cpp:0:1
	jmp	.LBB16_44
.Ltmp241:
.LBB16_33:                              # %lpad27
	#DEBUG_VALUE: length <- $r13d
	#DEBUG_VALUE: pair <- $r14d
	#DEBUG_VALUE: OpenSeq3:offsetPrev <- [DW_OP_plus_uconst 32] [$rsp+0]
	#DEBUG_VALUE: OpenSeq3:this <- [DW_OP_plus_uconst 24] [$rsp+0]
	#DEBUG_VALUE: OpenSeq3:callback <- [DW_OP_plus_uconst 40] [$rsp+0]
.Ltmp161:
	jmp	.LBB16_44
.Ltmp242:
.LBB16_31:                              # %lpad7
	#DEBUG_VALUE: OpenSeq3:this <- [DW_OP_plus_uconst 24] [$rsp+0]
	#DEBUG_VALUE: OpenSeq3:callback <- [DW_OP_plus_uconst 40] [$rsp+0]
.Ltmp148:
	jmp	.LBB16_44
.Ltmp243:
.LBB16_35:                              # %lpad48
	#DEBUG_VALUE: type <- $r14d
	#DEBUG_VALUE: length <- $r13d
	#DEBUG_VALUE: OpenSeq3:offsetPrev <- [DW_OP_plus_uconst 32] [$rsp+0]
	#DEBUG_VALUE: OpenSeq3:this <- [DW_OP_plus_uconst 24] [$rsp+0]
	#DEBUG_VALUE: OpenSeq3:callback <- [DW_OP_plus_uconst 40] [$rsp+0]
.Ltmp167:
	movq	%rax, %rbx
	leaq	48(%rsp), %rdi
.Ltmp244:
	.loc	4 320 5 is_stmt 1       # /home/chris/test-suite/MultiSource/Benchmarks/7zip/CPP/7zip/Archive/SwfHandler.cpp:320:5
	callq	_ZN8NArchive4NSwf4CTagD2Ev
	jmp	.LBB16_45
.Ltmp245:
.LBB16_34:                              # %lpad46
	#DEBUG_VALUE: type <- $r14d
	#DEBUG_VALUE: length <- $r13d
	#DEBUG_VALUE: OpenSeq3:offsetPrev <- [DW_OP_plus_uconst 32] [$rsp+0]
	#DEBUG_VALUE: OpenSeq3:this <- [DW_OP_plus_uconst 24] [$rsp+0]
	#DEBUG_VALUE: OpenSeq3:callback <- [DW_OP_plus_uconst 40] [$rsp+0]
.Ltmp164:
	.loc	4 0 5 is_stmt 0         # /home/chris/test-suite/MultiSource/Benchmarks/7zip/CPP/7zip/Archive/SwfHandler.cpp:0:5
	jmp	.LBB16_44
.Ltmp246:
.LBB16_32:                              # %lpad23
	#DEBUG_VALUE: OpenSeq3:offsetPrev <- [DW_OP_plus_uconst 32] [$rsp+0]
	#DEBUG_VALUE: OpenSeq3:this <- [DW_OP_plus_uconst 24] [$rsp+0]
	#DEBUG_VALUE: OpenSeq3:callback <- [DW_OP_plus_uconst 40] [$rsp+0]
.Ltmp158:
	jmp	.LBB16_44
.Ltmp247:
.LBB16_43:                              # %lpad
	#DEBUG_VALUE: OpenSeq3:this <- [DW_OP_plus_uconst 24] [$rsp+0]
	#DEBUG_VALUE: OpenSeq3:callback <- [DW_OP_plus_uconst 40] [$rsp+0]
.Ltmp155:
	jmp	.LBB16_44
.Ltmp248:
.LBB16_36:                              # %lpad54
	#DEBUG_VALUE: type <- $r14d
	#DEBUG_VALUE: length <- $r13d
	#DEBUG_VALUE: OpenSeq3:offsetPrev <- [DW_OP_plus_uconst 32] [$rsp+0]
	#DEBUG_VALUE: OpenSeq3:this <- [DW_OP_plus_uconst 24] [$rsp+0]
	#DEBUG_VALUE: OpenSeq3:callback <- [DW_OP_plus_uconst 40] [$rsp+0]
.Ltmp174:
.LBB16_44:                              # %ehcleanup105
	#DEBUG_VALUE: OpenSeq3:this <- [DW_OP_plus_uconst 24] [$rsp+0]
	#DEBUG_VALUE: OpenSeq3:callback <- [DW_OP_plus_uconst 40] [$rsp+0]
	movq	%rax, %rbx
.Ltmp249:
.LBB16_45:                              # %ehcleanup105
	#DEBUG_VALUE: OpenSeq3:this <- [DW_OP_plus_uconst 24] [$rsp+0]
	#DEBUG_VALUE: OpenSeq3:callback <- [DW_OP_plus_uconst 40] [$rsp+0]
	leaq	88(%rsp), %rdi
	.loc	4 335 1 is_stmt 1       # /home/chris/test-suite/MultiSource/Benchmarks/7zip/CPP/7zip/Archive/SwfHandler.cpp:335:1
	callq	_ZN9CInBufferD2Ev
	movq	%rbx, %rdi
	callq	_Unwind_Resume
.Ltmp250:
.Lfunc_end16:
	.size	_ZN8NArchive4NSwf8CHandler8OpenSeq3EP19ISequentialInStreamP20IArchiveOpenCallback, .Lfunc_end16-_ZN8NArchive4NSwf8CHandler8OpenSeq3EP19ISequentialInStreamP20IArchiveOpenCallback
	.cfi_endproc
	.section	.gcc_except_table,"a",@progbits
	.p2align	2
GCC_except_table16:
.Lexception4:
	.byte	255                     # @LPStart Encoding = omit
	.byte	255                     # @TType Encoding = omit
	.byte	1                       # Call site Encoding = uleb128
	.uleb128 .Lcst_end4-.Lcst_begin4
.Lcst_begin4:
	.uleb128 .Lfunc_begin16-.Lfunc_begin16 # >> Call Site 1 <<
	.uleb128 .Ltmp132-.Lfunc_begin16 #   Call between .Lfunc_begin16 and .Ltmp132
	.byte	0                       #     has no landing pad
	.byte	0                       #   On action: cleanup
	.uleb128 .Ltmp132-.Lfunc_begin16 # >> Call Site 2 <<
	.uleb128 .Ltmp137-.Ltmp132      #   Call between .Ltmp132 and .Ltmp137
	.uleb128 .Ltmp155-.Lfunc_begin16 #     jumps to .Ltmp155
	.byte	0                       #   On action: cleanup
	.uleb128 .Ltmp138-.Lfunc_begin16 # >> Call Site 3 <<
	.uleb128 .Ltmp147-.Ltmp138      #   Call between .Ltmp138 and .Ltmp147
	.uleb128 .Ltmp148-.Lfunc_begin16 #     jumps to .Ltmp148
	.byte	0                       #   On action: cleanup
	.uleb128 .Ltmp149-.Lfunc_begin16 # >> Call Site 4 <<
	.uleb128 .Ltmp154-.Ltmp149      #   Call between .Ltmp149 and .Ltmp154
	.uleb128 .Ltmp155-.Lfunc_begin16 #     jumps to .Ltmp155
	.byte	0                       #   On action: cleanup
	.uleb128 .Ltmp156-.Lfunc_begin16 # >> Call Site 5 <<
	.uleb128 .Ltmp157-.Ltmp156      #   Call between .Ltmp156 and .Ltmp157
	.uleb128 .Ltmp158-.Lfunc_begin16 #     jumps to .Ltmp158
	.byte	0                       #   On action: cleanup
	.uleb128 .Ltmp159-.Lfunc_begin16 # >> Call Site 6 <<
	.uleb128 .Ltmp160-.Ltmp159      #   Call between .Ltmp159 and .Ltmp160
	.uleb128 .Ltmp161-.Lfunc_begin16 #     jumps to .Ltmp161
	.byte	0                       #   On action: cleanup
	.uleb128 .Ltmp162-.Lfunc_begin16 # >> Call Site 7 <<
	.uleb128 .Ltmp163-.Ltmp162      #   Call between .Ltmp162 and .Ltmp163
	.uleb128 .Ltmp164-.Lfunc_begin16 #     jumps to .Ltmp164
	.byte	0                       #   On action: cleanup
	.uleb128 .Ltmp165-.Lfunc_begin16 # >> Call Site 8 <<
	.uleb128 .Ltmp166-.Ltmp165      #   Call between .Ltmp165 and .Ltmp166
	.uleb128 .Ltmp167-.Lfunc_begin16 #     jumps to .Ltmp167
	.byte	0                       #   On action: cleanup
	.uleb128 .Ltmp168-.Lfunc_begin16 # >> Call Site 9 <<
	.uleb128 .Ltmp173-.Ltmp168      #   Call between .Ltmp168 and .Ltmp173
	.uleb128 .Ltmp174-.Lfunc_begin16 #     jumps to .Ltmp174
	.byte	0                       #   On action: cleanup
	.uleb128 .Ltmp175-.Lfunc_begin16 # >> Call Site 10 <<
	.uleb128 .Ltmp176-.Ltmp175      #   Call between .Ltmp175 and .Ltmp176
	.uleb128 .Ltmp177-.Lfunc_begin16 #     jumps to .Ltmp177
	.byte	0                       #   On action: cleanup
	.uleb128 .Ltmp176-.Lfunc_begin16 # >> Call Site 11 <<
	.uleb128 .Lfunc_end16-.Ltmp176  #   Call between .Ltmp176 and .Lfunc_end16
	.byte	0                       #     has no landing pad
	.byte	0                       #   On action: cleanup
.Lcst_end4:
	.p2align	2
                                        # -- End function
	.section	.text._ZN8NArchive4NSwf10CBitReaderC2Ev,"axG",@progbits,_ZN8NArchive4NSwf10CBitReaderC2Ev,comdat
	.weak	_ZN8NArchive4NSwf10CBitReaderC2Ev # -- Begin function _ZN8NArchive4NSwf10CBitReaderC2Ev
	.p2align	4, 0x90
	.type	_ZN8NArchive4NSwf10CBitReaderC2Ev,@function
_ZN8NArchive4NSwf10CBitReaderC2Ev:      # @_ZN8NArchive4NSwf10CBitReaderC2Ev
.Lfunc_begin17:
	.loc	4 252 0                 # /home/chris/test-suite/MultiSource/Benchmarks/7zip/CPP/7zip/Archive/SwfHandler.cpp:252:0
	.cfi_startproc
# %bb.0:                                # %entry
	#DEBUG_VALUE: CBitReader:this <- $rdi
	#DEBUG_VALUE: CBitReader:this <- $rdi
	.loc	4 252 17 prologue_end   # /home/chris/test-suite/MultiSource/Benchmarks/7zip/CPP/7zip/Archive/SwfHandler.cpp:252:17
	movl	$0, 8(%rdi)
	.loc	4 252 29 is_stmt 0      # /home/chris/test-suite/MultiSource/Benchmarks/7zip/CPP/7zip/Archive/SwfHandler.cpp:252:29
	movb	$0, 12(%rdi)
	.loc	4 252 37                # /home/chris/test-suite/MultiSource/Benchmarks/7zip/CPP/7zip/Archive/SwfHandler.cpp:252:37
	retq
.Ltmp251:
.Lfunc_end17:
	.size	_ZN8NArchive4NSwf10CBitReaderC2Ev, .Lfunc_end17-_ZN8NArchive4NSwf10CBitReaderC2Ev
	.cfi_endproc
                                        # -- End function
	.text
	.p2align	4, 0x90         # -- Begin function _ZN8NArchive4NSwfL6Read16ER9CInBuffer
	.type	_ZN8NArchive4NSwfL6Read16ER9CInBuffer,@function
_ZN8NArchive4NSwfL6Read16ER9CInBuffer:  # @_ZN8NArchive4NSwfL6Read16ER9CInBuffer
.Lfunc_begin18:
	.loc	4 221 0 is_stmt 1       # /home/chris/test-suite/MultiSource/Benchmarks/7zip/CPP/7zip/Archive/SwfHandler.cpp:221:0
	.cfi_startproc
# %bb.0:                                # %entry
	#DEBUG_VALUE: Read16:stream <- $rdi
	pushq	%rbp
	.cfi_def_cfa_offset 16
	pushq	%r15
	.cfi_def_cfa_offset 24
	pushq	%r14
	.cfi_def_cfa_offset 32
	pushq	%rbx
	.cfi_def_cfa_offset 40
	pushq	%rax
	.cfi_def_cfa_offset 48
	.cfi_offset %rbx, -40
	.cfi_offset %r14, -32
	.cfi_offset %r15, -24
	.cfi_offset %rbp, -16
	movq	%rdi, %r15
.Ltmp252:
	#DEBUG_VALUE: i <- 0
	#DEBUG_VALUE: Read16:res <- 0
	#DEBUG_VALUE: Read16:stream <- $r15
	xorl	%ebp, %ebp
	leaq	7(%rsp), %r14
	xorl	%ebx, %ebx
.Ltmp253:
	.p2align	4, 0x90
.LBB18_1:                               # %for.body
                                        # =>This Inner Loop Header: Depth=1
	#DEBUG_VALUE: Read16:stream <- $r15
	#DEBUG_VALUE: Read16:res <- $bx
	#DEBUG_VALUE: i <- undef
	#DEBUG_VALUE: b <- [DW_OP_plus_uconst 7, DW_OP_deref] $rsp
	.loc	4 226 17 prologue_end   # /home/chris/test-suite/MultiSource/Benchmarks/7zip/CPP/7zip/Archive/SwfHandler.cpp:226:17
	movq	%r15, %rdi
	movq	%r14, %rsi
	callq	_ZN9CInBuffer8ReadByteERh
.Ltmp254:
	.loc	4 226 9 is_stmt 0       # /home/chris/test-suite/MultiSource/Benchmarks/7zip/CPP/7zip/Archive/SwfHandler.cpp:226:9
	testb	%al, %al
	je	.LBB18_4
.Ltmp255:
# %bb.2:                                # %if.end
                                        #   in Loop: Header=BB18_1 Depth=1
	#DEBUG_VALUE: b <- [DW_OP_plus_uconst 7, DW_OP_deref] $rsp
	#DEBUG_VALUE: Read16:res <- $bx
	#DEBUG_VALUE: Read16:stream <- $r15
	.loc	4 228 20 is_stmt 1      # /home/chris/test-suite/MultiSource/Benchmarks/7zip/CPP/7zip/Archive/SwfHandler.cpp:228:20
	movzbl	7(%rsp), %eax
.Ltmp256:
	#DEBUG_VALUE: b <- undef
	.loc	4 228 22 is_stmt 0      # /home/chris/test-suite/MultiSource/Benchmarks/7zip/CPP/7zip/Archive/SwfHandler.cpp:228:22
	movl	%ebp, %ecx
	shll	%cl, %eax
	.loc	4 228 9                 # /home/chris/test-suite/MultiSource/Benchmarks/7zip/CPP/7zip/Archive/SwfHandler.cpp:228:9
	orl	%eax, %ebx
.Ltmp257:
	#DEBUG_VALUE: i <- [DW_OP_plus_uconst 1, DW_OP_stack_value] undef
	#DEBUG_VALUE: b <- [DW_OP_plus_uconst 7, DW_OP_deref] $rsp
	#DEBUG_VALUE: Read16:res <- $bx
	.loc	4 223 21 is_stmt 1      # /home/chris/test-suite/MultiSource/Benchmarks/7zip/CPP/7zip/Archive/SwfHandler.cpp:223:21
	addl	$8, %ebp
	cmpl	$16, %ebp
.Ltmp258:
	.loc	4 223 3 is_stmt 0       # /home/chris/test-suite/MultiSource/Benchmarks/7zip/CPP/7zip/Archive/SwfHandler.cpp:223:3
	jne	.LBB18_1
.Ltmp259:
# %bb.3:                                # %for.cond.cleanup
	#DEBUG_VALUE: Read16:res <- $bx
	#DEBUG_VALUE: Read16:stream <- $r15
	.loc	4 230 3 is_stmt 1       # /home/chris/test-suite/MultiSource/Benchmarks/7zip/CPP/7zip/Archive/SwfHandler.cpp:230:3
	movl	%ebx, %eax
	addq	$8, %rsp
	.cfi_def_cfa_offset 40
	popq	%rbx
.Ltmp260:
	.cfi_def_cfa_offset 32
	popq	%r14
	.cfi_def_cfa_offset 24
	popq	%r15
.Ltmp261:
	.cfi_def_cfa_offset 16
	popq	%rbp
	.cfi_def_cfa_offset 8
	retq
.LBB18_4:                               # %if.then
	.cfi_def_cfa_offset 48
.Ltmp262:
	#DEBUG_VALUE: b <- [DW_OP_plus_uconst 7, DW_OP_deref] $rsp
	#DEBUG_VALUE: Read16:res <- $bx
	#DEBUG_VALUE: Read16:stream <- $r15
	.loc	4 227 7                 # /home/chris/test-suite/MultiSource/Benchmarks/7zip/CPP/7zip/Archive/SwfHandler.cpp:227:7
	movl	$4, %edi
	callq	__cxa_allocate_exception
	movl	$1, (%rax)
	movl	$_ZTIi, %esi
	movq	%rax, %rdi
	xorl	%edx, %edx
	callq	__cxa_throw
.Ltmp263:
.Lfunc_end18:
	.size	_ZN8NArchive4NSwfL6Read16ER9CInBuffer, .Lfunc_end18-_ZN8NArchive4NSwfL6Read16ER9CInBuffer
	.cfi_endproc
                                        # -- End function
	.p2align	4, 0x90         # -- Begin function _ZN8NArchive4NSwfL6Read32ER9CInBuffer
	.type	_ZN8NArchive4NSwfL6Read32ER9CInBuffer,@function
_ZN8NArchive4NSwfL6Read32ER9CInBuffer:  # @_ZN8NArchive4NSwfL6Read32ER9CInBuffer
.Lfunc_begin19:
	.loc	4 234 0                 # /home/chris/test-suite/MultiSource/Benchmarks/7zip/CPP/7zip/Archive/SwfHandler.cpp:234:0
	.cfi_startproc
# %bb.0:                                # %entry
	#DEBUG_VALUE: Read32:stream <- $rdi
	pushq	%rbp
	.cfi_def_cfa_offset 16
	pushq	%r15
	.cfi_def_cfa_offset 24
	pushq	%r14
	.cfi_def_cfa_offset 32
	pushq	%rbx
	.cfi_def_cfa_offset 40
	pushq	%rax
	.cfi_def_cfa_offset 48
	.cfi_offset %rbx, -40
	.cfi_offset %r14, -32
	.cfi_offset %r15, -24
	.cfi_offset %rbp, -16
	movq	%rdi, %r15
.Ltmp264:
	#DEBUG_VALUE: i <- 0
	#DEBUG_VALUE: Read32:res <- 0
	#DEBUG_VALUE: Read32:stream <- $r15
	xorl	%ebp, %ebp
	leaq	7(%rsp), %r14
	xorl	%ebx, %ebx
.Ltmp265:
	.p2align	4, 0x90
.LBB19_1:                               # %for.body
                                        # =>This Inner Loop Header: Depth=1
	#DEBUG_VALUE: Read32:stream <- $r15
	#DEBUG_VALUE: Read32:res <- $ebx
	#DEBUG_VALUE: i <- undef
	#DEBUG_VALUE: b <- [DW_OP_plus_uconst 7, DW_OP_deref] $rsp
	.loc	4 239 17 prologue_end   # /home/chris/test-suite/MultiSource/Benchmarks/7zip/CPP/7zip/Archive/SwfHandler.cpp:239:17
	movq	%r15, %rdi
	movq	%r14, %rsi
	callq	_ZN9CInBuffer8ReadByteERh
.Ltmp266:
	.loc	4 239 9 is_stmt 0       # /home/chris/test-suite/MultiSource/Benchmarks/7zip/CPP/7zip/Archive/SwfHandler.cpp:239:9
	testb	%al, %al
	je	.LBB19_4
.Ltmp267:
# %bb.2:                                # %if.end
                                        #   in Loop: Header=BB19_1 Depth=1
	#DEBUG_VALUE: b <- [DW_OP_plus_uconst 7, DW_OP_deref] $rsp
	#DEBUG_VALUE: Read32:res <- $ebx
	#DEBUG_VALUE: Read32:stream <- $r15
	.loc	4 241 20 is_stmt 1      # /home/chris/test-suite/MultiSource/Benchmarks/7zip/CPP/7zip/Archive/SwfHandler.cpp:241:20
	movzbl	7(%rsp), %eax
.Ltmp268:
	#DEBUG_VALUE: b <- undef
	.loc	4 241 22 is_stmt 0      # /home/chris/test-suite/MultiSource/Benchmarks/7zip/CPP/7zip/Archive/SwfHandler.cpp:241:22
	movl	%ebp, %ecx
	shll	%cl, %eax
	.loc	4 241 9                 # /home/chris/test-suite/MultiSource/Benchmarks/7zip/CPP/7zip/Archive/SwfHandler.cpp:241:9
	orl	%eax, %ebx
.Ltmp269:
	#DEBUG_VALUE: i <- [DW_OP_plus_uconst 1, DW_OP_stack_value] undef
	#DEBUG_VALUE: b <- [DW_OP_plus_uconst 7, DW_OP_deref] $rsp
	#DEBUG_VALUE: Read32:res <- $ebx
	.loc	4 236 21 is_stmt 1      # /home/chris/test-suite/MultiSource/Benchmarks/7zip/CPP/7zip/Archive/SwfHandler.cpp:236:21
	addl	$8, %ebp
	cmpl	$32, %ebp
.Ltmp270:
	.loc	4 236 3 is_stmt 0       # /home/chris/test-suite/MultiSource/Benchmarks/7zip/CPP/7zip/Archive/SwfHandler.cpp:236:3
	jne	.LBB19_1
.Ltmp271:
# %bb.3:                                # %for.cond.cleanup
	#DEBUG_VALUE: Read32:res <- $ebx
	#DEBUG_VALUE: Read32:stream <- $r15
	.loc	4 243 3 is_stmt 1       # /home/chris/test-suite/MultiSource/Benchmarks/7zip/CPP/7zip/Archive/SwfHandler.cpp:243:3
	movl	%ebx, %eax
	addq	$8, %rsp
	.cfi_def_cfa_offset 40
	popq	%rbx
.Ltmp272:
	.cfi_def_cfa_offset 32
	popq	%r14
	.cfi_def_cfa_offset 24
	popq	%r15
.Ltmp273:
	.cfi_def_cfa_offset 16
	popq	%rbp
	.cfi_def_cfa_offset 8
	retq
.LBB19_4:                               # %if.then
	.cfi_def_cfa_offset 48
.Ltmp274:
	#DEBUG_VALUE: b <- [DW_OP_plus_uconst 7, DW_OP_deref] $rsp
	#DEBUG_VALUE: Read32:res <- $ebx
	#DEBUG_VALUE: Read32:stream <- $r15
	.loc	4 240 7                 # /home/chris/test-suite/MultiSource/Benchmarks/7zip/CPP/7zip/Archive/SwfHandler.cpp:240:7
	movl	$4, %edi
	callq	__cxa_allocate_exception
	movl	$1, (%rax)
	movl	$_ZTIi, %esi
	movq	%rax, %rdi
	xorl	%edx, %edx
	callq	__cxa_throw
.Ltmp275:
.Lfunc_end19:
	.size	_ZN8NArchive4NSwfL6Read32ER9CInBuffer, .Lfunc_end19-_ZN8NArchive4NSwfL6Read32ER9CInBuffer
	.cfi_endproc
                                        # -- End function
	.section	.text._ZNK9CInBuffer16GetProcessedSizeEv,"axG",@progbits,_ZNK9CInBuffer16GetProcessedSizeEv,comdat
	.weak	_ZNK9CInBuffer16GetProcessedSizeEv # -- Begin function _ZNK9CInBuffer16GetProcessedSizeEv
	.p2align	4, 0x90
	.type	_ZNK9CInBuffer16GetProcessedSizeEv,@function
_ZNK9CInBuffer16GetProcessedSizeEv:     # @_ZNK9CInBuffer16GetProcessedSizeEv
.Lfunc_begin20:
	.loc	23 77 0                 # /home/chris/test-suite/MultiSource/Benchmarks/7zip/CPP/7zip/Archive/../Compress/../Common/InBuffer.h:77:0
	.cfi_startproc
# %bb.0:                                # %entry
	#DEBUG_VALUE: GetProcessedSize:this <- $rdi
	#DEBUG_VALUE: GetProcessedSize:this <- $rdi
	.loc	23 77 62 prologue_end   # /home/chris/test-suite/MultiSource/Benchmarks/7zip/CPP/7zip/Archive/../Compress/../Common/InBuffer.h:77:62
	movq	(%rdi), %rax
	.loc	23 77 70 is_stmt 0      # /home/chris/test-suite/MultiSource/Benchmarks/7zip/CPP/7zip/Archive/../Compress/../Common/InBuffer.h:77:70
	addq	32(%rdi), %rax
	.loc	23 77 59                # /home/chris/test-suite/MultiSource/Benchmarks/7zip/CPP/7zip/Archive/../Compress/../Common/InBuffer.h:77:59
	subq	16(%rdi), %rax
	.loc	23 77 37                # /home/chris/test-suite/MultiSource/Benchmarks/7zip/CPP/7zip/Archive/../Compress/../Common/InBuffer.h:77:37
	retq
.Ltmp276:
.Lfunc_end20:
	.size	_ZNK9CInBuffer16GetProcessedSizeEv, .Lfunc_end20-_ZNK9CInBuffer16GetProcessedSizeEv
	.cfi_endproc
                                        # -- End function
	.section	.text._ZN13CObjectVectorIN8NArchive4NSwf4CTagEE3AddERKS2_,"axG",@progbits,_ZN13CObjectVectorIN8NArchive4NSwf4CTagEE3AddERKS2_,comdat
	.weak	_ZN13CObjectVectorIN8NArchive4NSwf4CTagEE3AddERKS2_ # -- Begin function _ZN13CObjectVectorIN8NArchive4NSwf4CTagEE3AddERKS2_
	.p2align	4, 0x90
	.type	_ZN13CObjectVectorIN8NArchive4NSwf4CTagEE3AddERKS2_,@function
_ZN13CObjectVectorIN8NArchive4NSwf4CTagEE3AddERKS2_: # @_ZN13CObjectVectorIN8NArchive4NSwf4CTagEE3AddERKS2_
.Lfunc_begin21:
	.loc	21 205 0 is_stmt 1      # /home/chris/test-suite/MultiSource/Benchmarks/7zip/CPP/Common/MyVector.h:205:0
	.cfi_startproc
	.cfi_personality 3, __gxx_personality_v0
	.cfi_lsda 3, .Lexception5
# %bb.0:                                # %entry
	#DEBUG_VALUE: Add:this <- $rdi
	#DEBUG_VALUE: Add:item <- $rsi
	pushq	%r15
	.cfi_def_cfa_offset 16
	pushq	%r14
	.cfi_def_cfa_offset 24
	pushq	%rbx
	.cfi_def_cfa_offset 32
	.cfi_offset %rbx, -32
	.cfi_offset %r14, -24
	.cfi_offset %r15, -16
	movq	%rsi, %r15
.Ltmp280:
	#DEBUG_VALUE: Add:item <- $r15
	movq	%rdi, %r14
.Ltmp281:
	#DEBUG_VALUE: Add:this <- $r14
	.loc	21 205 55 prologue_end  # /home/chris/test-suite/MultiSource/Benchmarks/7zip/CPP/Common/MyVector.h:205:55
	movl	$32, %edi
	callq	_Znwm
	movq	%rax, %rbx
.Ltmp277:
	.loc	21 205 59 is_stmt 0     # /home/chris/test-suite/MultiSource/Benchmarks/7zip/CPP/Common/MyVector.h:205:59
	movq	%rax, %rdi
	movq	%r15, %rsi
.Ltmp282:
	#DEBUG_VALUE: Add:item <- $rsi
	callq	_ZN8NArchive4NSwf4CTagC2ERKS1_
.Ltmp283:
.Ltmp278:
# %bb.1:                                # %invoke.cont
	#DEBUG_VALUE: Add:this <- $r14
	.loc	21 205 51               # /home/chris/test-suite/MultiSource/Benchmarks/7zip/CPP/Common/MyVector.h:205:51
	movq	%r14, %rdi
	movq	%rbx, %rsi
	popq	%rbx
	.cfi_def_cfa_offset 24
	popq	%r14
.Ltmp284:
	.cfi_def_cfa_offset 16
	popq	%r15
	.cfi_def_cfa_offset 8
	jmp	_ZN13CRecordVectorIPvE3AddES0_ # TAILCALL
.LBB21_2:                               # %lpad
	.cfi_def_cfa_offset 32
.Ltmp285:
	#DEBUG_VALUE: Add:this <- $r14
.Ltmp279:
	.loc	21 0 51                 # /home/chris/test-suite/MultiSource/Benchmarks/7zip/CPP/Common/MyVector.h:0:51
	movq	%rax, %r14
.Ltmp286:
	.loc	21 205 55               # /home/chris/test-suite/MultiSource/Benchmarks/7zip/CPP/Common/MyVector.h:205:55
	movq	%rbx, %rdi
	callq	_ZdlPv
	movq	%r14, %rdi
	callq	_Unwind_Resume
.Ltmp287:
.Lfunc_end21:
	.size	_ZN13CObjectVectorIN8NArchive4NSwf4CTagEE3AddERKS2_, .Lfunc_end21-_ZN13CObjectVectorIN8NArchive4NSwf4CTagEE3AddERKS2_
	.cfi_endproc
	.section	.gcc_except_table,"a",@progbits
	.p2align	2
GCC_except_table21:
.Lexception5:
	.byte	255                     # @LPStart Encoding = omit
	.byte	255                     # @TType Encoding = omit
	.byte	1                       # Call site Encoding = uleb128
	.uleb128 .Lcst_end5-.Lcst_begin5
.Lcst_begin5:
	.uleb128 .Lfunc_begin21-.Lfunc_begin21 # >> Call Site 1 <<
	.uleb128 .Ltmp277-.Lfunc_begin21 #   Call between .Lfunc_begin21 and .Ltmp277
	.byte	0                       #     has no landing pad
	.byte	0                       #   On action: cleanup
	.uleb128 .Ltmp277-.Lfunc_begin21 # >> Call Site 2 <<
	.uleb128 .Ltmp278-.Ltmp277      #   Call between .Ltmp277 and .Ltmp278
	.uleb128 .Ltmp279-.Lfunc_begin21 #     jumps to .Ltmp279
	.byte	0                       #   On action: cleanup
	.uleb128 .Ltmp278-.Lfunc_begin21 # >> Call Site 3 <<
	.uleb128 .Lfunc_end21-.Ltmp278  #   Call between .Ltmp278 and .Lfunc_end21
	.byte	0                       #     has no landing pad
	.byte	0                       #   On action: cleanup
.Lcst_end5:
	.p2align	2
                                        # -- End function
	.section	.text._ZN8NArchive4NSwf4CTagC2Ev,"axG",@progbits,_ZN8NArchive4NSwf4CTagC2Ev,comdat
	.weak	_ZN8NArchive4NSwf4CTagC2Ev # -- Begin function _ZN8NArchive4NSwf4CTagC2Ev
	.p2align	4, 0x90
	.type	_ZN8NArchive4NSwf4CTagC2Ev,@function
_ZN8NArchive4NSwf4CTagC2Ev:             # @_ZN8NArchive4NSwf4CTagC2Ev
.Lfunc_begin22:
	.loc	4 36 0 is_stmt 1        # /home/chris/test-suite/MultiSource/Benchmarks/7zip/CPP/7zip/Archive/SwfHandler.cpp:36:0
	.cfi_startproc
# %bb.0:                                # %entry
	#DEBUG_VALUE: CTag:this <- $rdi
	#DEBUG_VALUE: CTag:this <- $rdi
	.loc	4 36 8 prologue_end     # /home/chris/test-suite/MultiSource/Benchmarks/7zip/CPP/7zip/Archive/SwfHandler.cpp:36:8
	addq	$8, %rdi
.Ltmp288:
	jmp	_ZN7CBufferIhEC2Ev      # TAILCALL
.Ltmp289:
.Lfunc_end22:
	.size	_ZN8NArchive4NSwf4CTagC2Ev, .Lfunc_end22-_ZN8NArchive4NSwf4CTagC2Ev
	.cfi_endproc
                                        # -- End function
	.section	.text._ZN8NArchive4NSwf4CTagD2Ev,"axG",@progbits,_ZN8NArchive4NSwf4CTagD2Ev,comdat
	.weak	_ZN8NArchive4NSwf4CTagD2Ev # -- Begin function _ZN8NArchive4NSwf4CTagD2Ev
	.p2align	4, 0x90
	.type	_ZN8NArchive4NSwf4CTagD2Ev,@function
_ZN8NArchive4NSwf4CTagD2Ev:             # @_ZN8NArchive4NSwf4CTagD2Ev
.Lfunc_begin23:
	.loc	4 36 0                  # /home/chris/test-suite/MultiSource/Benchmarks/7zip/CPP/7zip/Archive/SwfHandler.cpp:36:0
	.cfi_startproc
# %bb.0:                                # %entry
	#DEBUG_VALUE: ~CTag:this <- $rdi
	#DEBUG_VALUE: ~CTag:this <- $rdi
	.loc	4 36 8 prologue_end     # /home/chris/test-suite/MultiSource/Benchmarks/7zip/CPP/7zip/Archive/SwfHandler.cpp:36:8
	addq	$8, %rdi
.Ltmp290:
	jmp	_ZN7CBufferIhED2Ev      # TAILCALL
.Ltmp291:
.Lfunc_end23:
	.size	_ZN8NArchive4NSwf4CTagD2Ev, .Lfunc_end23-_ZN8NArchive4NSwf4CTagD2Ev
	.cfi_endproc
                                        # -- End function
	.section	.text._ZN13CObjectVectorIN8NArchive4NSwf4CTagEE4BackEv,"axG",@progbits,_ZN13CObjectVectorIN8NArchive4NSwf4CTagEE4BackEv,comdat
	.weak	_ZN13CObjectVectorIN8NArchive4NSwf4CTagEE4BackEv # -- Begin function _ZN13CObjectVectorIN8NArchive4NSwf4CTagEE4BackEv
	.p2align	4, 0x90
	.type	_ZN13CObjectVectorIN8NArchive4NSwf4CTagEE4BackEv,@function
_ZN13CObjectVectorIN8NArchive4NSwf4CTagEE4BackEv: # @_ZN13CObjectVectorIN8NArchive4NSwf4CTagEE4BackEv
.Lfunc_begin24:
	.loc	21 203 0                # /home/chris/test-suite/MultiSource/Benchmarks/7zip/CPP/Common/MyVector.h:203:0
	.cfi_startproc
# %bb.0:                                # %entry
	#DEBUG_VALUE: Back:this <- $rdi
	#DEBUG_VALUE: Back:this <- $rdi
	.loc	21 203 33 prologue_end  # /home/chris/test-suite/MultiSource/Benchmarks/7zip/CPP/Common/MyVector.h:203:33
	movl	12(%rdi), %esi
	.loc	21 203 39 is_stmt 0     # /home/chris/test-suite/MultiSource/Benchmarks/7zip/CPP/Common/MyVector.h:203:39
	addl	$-1, %esi
	.loc	21 203 22               # /home/chris/test-suite/MultiSource/Benchmarks/7zip/CPP/Common/MyVector.h:203:22
	jmp	_ZN13CObjectVectorIN8NArchive4NSwf4CTagEEixEi # TAILCALL
.Ltmp292:
.Lfunc_end24:
	.size	_ZN13CObjectVectorIN8NArchive4NSwf4CTagEE4BackEv, .Lfunc_end24-_ZN13CObjectVectorIN8NArchive4NSwf4CTagEE4BackEv
	.cfi_endproc
                                        # -- End function
	.section	.text._ZN7CBufferIhE11SetCapacityEm,"axG",@progbits,_ZN7CBufferIhE11SetCapacityEm,comdat
	.weak	_ZN7CBufferIhE11SetCapacityEm # -- Begin function _ZN7CBufferIhE11SetCapacityEm
	.p2align	4, 0x90
	.type	_ZN7CBufferIhE11SetCapacityEm,@function
_ZN7CBufferIhE11SetCapacityEm:          # @_ZN7CBufferIhE11SetCapacityEm
.Lfunc_begin25:
	.loc	9 28 0 is_stmt 1        # /home/chris/test-suite/MultiSource/Benchmarks/7zip/CPP/Common/Buffer.h:28:0
	.cfi_startproc
# %bb.0:                                # %entry
	#DEBUG_VALUE: SetCapacity:this <- $rdi
	#DEBUG_VALUE: SetCapacity:newCapacity <- $rsi
	pushq	%r15
	.cfi_def_cfa_offset 16
	pushq	%r14
	.cfi_def_cfa_offset 24
	pushq	%r13
	.cfi_def_cfa_offset 32
	pushq	%r12
	.cfi_def_cfa_offset 40
	pushq	%rbx
	.cfi_def_cfa_offset 48
	.cfi_offset %rbx, -48
	.cfi_offset %r12, -40
	.cfi_offset %r13, -32
	.cfi_offset %r14, -24
	.cfi_offset %r15, -16
	.loc	9 29 24 prologue_end    # /home/chris/test-suite/MultiSource/Benchmarks/7zip/CPP/Common/Buffer.h:29:24
	movq	8(%rdi), %rbx
	.loc	9 29 21 is_stmt 0       # /home/chris/test-suite/MultiSource/Benchmarks/7zip/CPP/Common/Buffer.h:29:21
	cmpq	%rsi, %rbx
.Ltmp293:
	.loc	9 29 9                  # /home/chris/test-suite/MultiSource/Benchmarks/7zip/CPP/Common/Buffer.h:29:9
	je	.LBB25_8
.Ltmp294:
# %bb.1:                                # %if.end
	#DEBUG_VALUE: SetCapacity:newCapacity <- $rsi
	#DEBUG_VALUE: SetCapacity:this <- $rdi
	.loc	9 0 9                   # /home/chris/test-suite/MultiSource/Benchmarks/7zip/CPP/Common/Buffer.h:0:9
	movq	%rsi, %r14
.Ltmp295:
	#DEBUG_VALUE: SetCapacity:newCapacity <- $r14
	movq	%rdi, %r12
.Ltmp296:
	#DEBUG_VALUE: SetCapacity:this <- $r12
	.loc	9 32 21 is_stmt 1       # /home/chris/test-suite/MultiSource/Benchmarks/7zip/CPP/Common/Buffer.h:32:21
	testq	%rsi, %rsi
.Ltmp297:
	.loc	9 32 9 is_stmt 0        # /home/chris/test-suite/MultiSource/Benchmarks/7zip/CPP/Common/Buffer.h:32:9
	je	.LBB25_2
.Ltmp298:
# %bb.3:                                # %if.then3
	#DEBUG_VALUE: SetCapacity:this <- $r12
	#DEBUG_VALUE: SetCapacity:newCapacity <- $r14
	.loc	9 34 19 is_stmt 1       # /home/chris/test-suite/MultiSource/Benchmarks/7zip/CPP/Common/Buffer.h:34:19
	movq	%r14, %rdi
	callq	_Znam
	movq	%rax, %r15
.Ltmp299:
	#DEBUG_VALUE: SetCapacity:newBuffer <- $r15
	.loc	9 35 21                 # /home/chris/test-suite/MultiSource/Benchmarks/7zip/CPP/Common/Buffer.h:35:21
	testq	%rbx, %rbx
.Ltmp300:
	.loc	9 35 11 is_stmt 0       # /home/chris/test-suite/MultiSource/Benchmarks/7zip/CPP/Common/Buffer.h:35:11
	je	.LBB25_5
.Ltmp301:
# %bb.4:                                # %if.then6
	#DEBUG_VALUE: SetCapacity:newBuffer <- $r15
	#DEBUG_VALUE: SetCapacity:this <- $r12
	#DEBUG_VALUE: SetCapacity:newCapacity <- $r14
	.loc	9 36 28 is_stmt 1       # /home/chris/test-suite/MultiSource/Benchmarks/7zip/CPP/Common/Buffer.h:36:28
	movq	16(%r12), %r13
	.loc	9 36 36 is_stmt 0       # /home/chris/test-suite/MultiSource/Benchmarks/7zip/CPP/Common/Buffer.h:36:36
	movq	%rbx, %rdi
	movq	%r14, %rsi
	callq	_Z5MyMinImET_S0_S0_
	.loc	9 36 9                  # /home/chris/test-suite/MultiSource/Benchmarks/7zip/CPP/Common/Buffer.h:36:9
	movq	%r15, %rdi
	movq	%r13, %rsi
	movq	%rax, %rdx
	callq	memmove
	jmp	.LBB25_5
.Ltmp302:
.LBB25_2:
	#DEBUG_VALUE: SetCapacity:this <- $r12
	#DEBUG_VALUE: SetCapacity:newCapacity <- $r14
	.loc	9 0 9                   # /home/chris/test-suite/MultiSource/Benchmarks/7zip/CPP/Common/Buffer.h:0:9
	xorl	%r15d, %r15d
.Ltmp303:
.LBB25_5:                               # %if.end10
	#DEBUG_VALUE: SetCapacity:this <- $r12
	#DEBUG_VALUE: SetCapacity:newCapacity <- $r14
	#DEBUG_VALUE: SetCapacity:newBuffer <- $r15
	.loc	9 40 14 is_stmt 1       # /home/chris/test-suite/MultiSource/Benchmarks/7zip/CPP/Common/Buffer.h:40:14
	movq	16(%r12), %rdi
	.loc	9 40 5 is_stmt 0        # /home/chris/test-suite/MultiSource/Benchmarks/7zip/CPP/Common/Buffer.h:40:5
	testq	%rdi, %rdi
	je	.LBB25_7
.Ltmp304:
# %bb.6:                                # %delete.notnull
	#DEBUG_VALUE: SetCapacity:newBuffer <- $r15
	#DEBUG_VALUE: SetCapacity:this <- $r12
	#DEBUG_VALUE: SetCapacity:newCapacity <- $r14
	callq	_ZdaPv
.Ltmp305:
.LBB25_7:                               # %delete.end
	#DEBUG_VALUE: SetCapacity:newBuffer <- $r15
	#DEBUG_VALUE: SetCapacity:this <- $r12
	#DEBUG_VALUE: SetCapacity:newCapacity <- $r14
	.loc	9 41 12 is_stmt 1       # /home/chris/test-suite/MultiSource/Benchmarks/7zip/CPP/Common/Buffer.h:41:12
	movq	%r15, 16(%r12)
	.loc	9 42 15                 # /home/chris/test-suite/MultiSource/Benchmarks/7zip/CPP/Common/Buffer.h:42:15
	movq	%r14, 8(%r12)
.Ltmp306:
.LBB25_8:                               # %return
	.loc	9 43 3                  # /home/chris/test-suite/MultiSource/Benchmarks/7zip/CPP/Common/Buffer.h:43:3
	popq	%rbx
	.cfi_def_cfa_offset 40
	popq	%r12
	.cfi_def_cfa_offset 32
	popq	%r13
	.cfi_def_cfa_offset 24
	popq	%r14
	.cfi_def_cfa_offset 16
	popq	%r15
	.cfi_def_cfa_offset 8
	retq
.Ltmp307:
.Lfunc_end25:
	.size	_ZN7CBufferIhE11SetCapacityEm, .Lfunc_end25-_ZN7CBufferIhE11SetCapacityEm
	.cfi_endproc
                                        # -- End function
	.section	.text._ZN9CInBuffer9ReadBytesEPhj,"axG",@progbits,_ZN9CInBuffer9ReadBytesEPhj,comdat
	.weak	_ZN9CInBuffer9ReadBytesEPhj # -- Begin function _ZN9CInBuffer9ReadBytesEPhj
	.p2align	4, 0x90
	.type	_ZN9CInBuffer9ReadBytesEPhj,@function
_ZN9CInBuffer9ReadBytesEPhj:            # @_ZN9CInBuffer9ReadBytesEPhj
.Lfunc_begin26:
	.loc	23 60 0                 # /home/chris/test-suite/MultiSource/Benchmarks/7zip/CPP/7zip/Archive/../Compress/../Common/InBuffer.h:60:0
	.cfi_startproc
# %bb.0:                                # %entry
	#DEBUG_VALUE: ReadBytes:this <- $rdi
	#DEBUG_VALUE: ReadBytes:buf <- $rsi
	#DEBUG_VALUE: ReadBytes:size <- $edx
	#DEBUG_VALUE: ReadBytes:size <- $edx
	pushq	%r15
	.cfi_def_cfa_offset 16
	pushq	%r14
	.cfi_def_cfa_offset 24
	pushq	%r12
	.cfi_def_cfa_offset 32
	pushq	%rbx
	.cfi_def_cfa_offset 40
	pushq	%rax
	.cfi_def_cfa_offset 48
	.cfi_offset %rbx, -40
	.cfi_offset %r12, -32
	.cfi_offset %r14, -24
	.cfi_offset %r15, -16
	movq	%rsi, %r14
.Ltmp308:
	#DEBUG_VALUE: ReadBytes:buf <- $r14
	movq	%rdi, %r15
.Ltmp309:
	#DEBUG_VALUE: ReadBytes:this <- $r15
	.loc	23 61 18 prologue_end   # /home/chris/test-suite/MultiSource/Benchmarks/7zip/CPP/7zip/Archive/../Compress/../Common/InBuffer.h:61:18
	movl	8(%rdi), %eax
	.loc	23 61 31 is_stmt 0      # /home/chris/test-suite/MultiSource/Benchmarks/7zip/CPP/7zip/Archive/../Compress/../Common/InBuffer.h:61:31
	subl	(%rdi), %eax
.Ltmp310:
	.loc	23 61 9                 # /home/chris/test-suite/MultiSource/Benchmarks/7zip/CPP/7zip/Archive/../Compress/../Common/InBuffer.h:61:9
	movl	%edx, %r12d
.Ltmp311:
	.loc	23 61 42                # /home/chris/test-suite/MultiSource/Benchmarks/7zip/CPP/7zip/Archive/../Compress/../Common/InBuffer.h:61:42
	cmpl	%edx, %eax
.Ltmp312:
	.loc	23 61 9                 # /home/chris/test-suite/MultiSource/Benchmarks/7zip/CPP/7zip/Archive/../Compress/../Common/InBuffer.h:61:9
	jae	.LBB26_1
.Ltmp313:
# %bb.5:                                # %for.body11.preheader
	#DEBUG_VALUE: ReadBytes:this <- $r15
	#DEBUG_VALUE: ReadBytes:buf <- $r14
	#DEBUG_VALUE: ReadBytes:size <- $edx
	#DEBUG_VALUE: i <- 0
	.loc	23 0 9                  # /home/chris/test-suite/MultiSource/Benchmarks/7zip/CPP/7zip/Archive/../Compress/../Common/InBuffer.h:0:9
	xorl	%ebx, %ebx
	jmp	.LBB26_6
.Ltmp314:
	.p2align	4, 0x90
.LBB26_8:                               # %if.end18
                                        #   in Loop: Header=BB26_6 Depth=1
	#DEBUG_VALUE: i <- $rbx
	#DEBUG_VALUE: ReadBytes:this <- $r15
	#DEBUG_VALUE: ReadBytes:buf <- $r14
	.loc	23 73 24 is_stmt 1      # /home/chris/test-suite/MultiSource/Benchmarks/7zip/CPP/7zip/Archive/../Compress/../Common/InBuffer.h:73:24
	movq	(%r15), %rax
	leaq	1(%rax), %rcx
	movq	%rcx, (%r15)
	.loc	23 73 16 is_stmt 0      # /home/chris/test-suite/MultiSource/Benchmarks/7zip/CPP/7zip/Archive/../Compress/../Common/InBuffer.h:73:16
	movzbl	(%rax), %eax
	.loc	23 73 14                # /home/chris/test-suite/MultiSource/Benchmarks/7zip/CPP/7zip/Archive/../Compress/../Common/InBuffer.h:73:14
	movb	%al, (%r14,%rbx)
.Ltmp315:
	.loc	23 68 35 is_stmt 1      # /home/chris/test-suite/MultiSource/Benchmarks/7zip/CPP/7zip/Archive/../Compress/../Common/InBuffer.h:68:35
	addq	$1, %rbx
.Ltmp316:
	#DEBUG_VALUE: i <- $rbx
	.loc	23 68 26 is_stmt 0      # /home/chris/test-suite/MultiSource/Benchmarks/7zip/CPP/7zip/Archive/../Compress/../Common/InBuffer.h:68:26
	cmpq	%rbx, %r12
.Ltmp317:
	.loc	23 68 5                 # /home/chris/test-suite/MultiSource/Benchmarks/7zip/CPP/7zip/Archive/../Compress/../Common/InBuffer.h:68:5
	je	.LBB26_9
.Ltmp318:
.LBB26_6:                               # %for.body11
                                        # =>This Inner Loop Header: Depth=1
	#DEBUG_VALUE: ReadBytes:this <- $r15
	#DEBUG_VALUE: ReadBytes:buf <- $r14
	#DEBUG_VALUE: i <- $rbx
	.loc	23 70 11 is_stmt 1      # /home/chris/test-suite/MultiSource/Benchmarks/7zip/CPP/7zip/Archive/../Compress/../Common/InBuffer.h:70:11
	movq	(%r15), %rax
	.loc	23 70 19 is_stmt 0      # /home/chris/test-suite/MultiSource/Benchmarks/7zip/CPP/7zip/Archive/../Compress/../Common/InBuffer.h:70:19
	cmpq	8(%r15), %rax
.Ltmp319:
	.loc	23 70 11                # /home/chris/test-suite/MultiSource/Benchmarks/7zip/CPP/7zip/Archive/../Compress/../Common/InBuffer.h:70:11
	jb	.LBB26_8
.Ltmp320:
# %bb.7:                                # %if.then15
                                        #   in Loop: Header=BB26_6 Depth=1
	#DEBUG_VALUE: i <- $rbx
	#DEBUG_VALUE: ReadBytes:this <- $r15
	#DEBUG_VALUE: ReadBytes:buf <- $r14
	.loc	23 71 14 is_stmt 1      # /home/chris/test-suite/MultiSource/Benchmarks/7zip/CPP/7zip/Archive/../Compress/../Common/InBuffer.h:71:14
	movq	%r15, %rdi
	callq	_ZN9CInBuffer9ReadBlockEv
.Ltmp321:
	.loc	23 71 13 is_stmt 0      # /home/chris/test-suite/MultiSource/Benchmarks/7zip/CPP/7zip/Archive/../Compress/../Common/InBuffer.h:71:13
	testb	%al, %al
	jne	.LBB26_8
	jmp	.LBB26_10
.Ltmp322:
.LBB26_1:                               # %for.cond.preheader
	#DEBUG_VALUE: ReadBytes:this <- $r15
	#DEBUG_VALUE: ReadBytes:buf <- $r14
	#DEBUG_VALUE: ReadBytes:size <- $edx
	.loc	23 0 0                  # /home/chris/test-suite/MultiSource/Benchmarks/7zip/CPP/7zip/Archive/../Compress/../Common/InBuffer.h:0:0
	movq	(%r15), %rax
.Ltmp323:
	testl	%edx, %edx
.Ltmp324:
	#DEBUG_VALUE: i <- 0
	.loc	23 63 7 is_stmt 1       # /home/chris/test-suite/MultiSource/Benchmarks/7zip/CPP/7zip/Archive/../Compress/../Common/InBuffer.h:63:7
	je	.LBB26_4
.Ltmp325:
# %bb.2:                                # %for.body.preheader
	#DEBUG_VALUE: i <- 0
	#DEBUG_VALUE: ReadBytes:this <- $r15
	#DEBUG_VALUE: ReadBytes:buf <- $r14
	#DEBUG_VALUE: ReadBytes:size <- $edx
	.loc	23 0 7 is_stmt 0        # /home/chris/test-suite/MultiSource/Benchmarks/7zip/CPP/7zip/Archive/../Compress/../Common/InBuffer.h:0:7
	xorl	%ecx, %ecx
.Ltmp326:
	.p2align	4, 0x90
.LBB26_3:                               # %for.body
                                        # =>This Inner Loop Header: Depth=1
	#DEBUG_VALUE: ReadBytes:this <- $r15
	#DEBUG_VALUE: ReadBytes:buf <- $r14
	#DEBUG_VALUE: ReadBytes:size <- $edx
	#DEBUG_VALUE: i <- $rcx
	.loc	23 64 18 is_stmt 1      # /home/chris/test-suite/MultiSource/Benchmarks/7zip/CPP/7zip/Archive/../Compress/../Common/InBuffer.h:64:18
	movzbl	(%rax,%rcx), %eax
	.loc	23 64 16 is_stmt 0      # /home/chris/test-suite/MultiSource/Benchmarks/7zip/CPP/7zip/Archive/../Compress/../Common/InBuffer.h:64:16
	movb	%al, (%r14,%rcx)
	.loc	23 63 37 is_stmt 1      # /home/chris/test-suite/MultiSource/Benchmarks/7zip/CPP/7zip/Archive/../Compress/../Common/InBuffer.h:63:37
	addq	$1, %rcx
.Ltmp327:
	#DEBUG_VALUE: i <- $rcx
	.loc	23 0 0 is_stmt 0        # /home/chris/test-suite/MultiSource/Benchmarks/7zip/CPP/7zip/Archive/../Compress/../Common/InBuffer.h:0:0
	movq	(%r15), %rax
.Ltmp328:
	.loc	23 63 28                # /home/chris/test-suite/MultiSource/Benchmarks/7zip/CPP/7zip/Archive/../Compress/../Common/InBuffer.h:63:28
	cmpq	%rcx, %r12
.Ltmp329:
	#DEBUG_VALUE: i <- $rcx
	.loc	23 63 7                 # /home/chris/test-suite/MultiSource/Benchmarks/7zip/CPP/7zip/Archive/../Compress/../Common/InBuffer.h:63:7
	jne	.LBB26_3
.Ltmp330:
.LBB26_4:                               # %for.cond.cleanup
	#DEBUG_VALUE: ReadBytes:this <- $r15
	#DEBUG_VALUE: ReadBytes:buf <- $r14
	#DEBUG_VALUE: ReadBytes:size <- $edx
	.loc	23 65 15 is_stmt 1      # /home/chris/test-suite/MultiSource/Benchmarks/7zip/CPP/7zip/Archive/../Compress/../Common/InBuffer.h:65:15
	addq	%rax, %r12
	movq	%r12, (%r15)
.Ltmp331:
	.loc	23 76 3                 # /home/chris/test-suite/MultiSource/Benchmarks/7zip/CPP/7zip/Archive/../Compress/../Common/InBuffer.h:76:3
	movl	%edx, %eax
	jmp	.LBB26_11
.Ltmp332:
.LBB26_9:                               # %cleanup.loopexit
	#DEBUG_VALUE: i <- $rbx
	#DEBUG_VALUE: ReadBytes:this <- $r15
	#DEBUG_VALUE: ReadBytes:buf <- $r14
	.loc	23 0 3 is_stmt 0        # /home/chris/test-suite/MultiSource/Benchmarks/7zip/CPP/7zip/Archive/../Compress/../Common/InBuffer.h:0:3
	movl	%r12d, %ebx
.Ltmp333:
.LBB26_10:                              # %cleanup
	#DEBUG_VALUE: ReadBytes:this <- $r15
	#DEBUG_VALUE: ReadBytes:buf <- $r14
	movl	%ebx, %eax
.Ltmp334:
.LBB26_11:                              # %cleanup
	#DEBUG_VALUE: ReadBytes:this <- $r15
	#DEBUG_VALUE: ReadBytes:buf <- $r14
	addq	$8, %rsp
	.cfi_def_cfa_offset 40
	popq	%rbx
	.cfi_def_cfa_offset 32
	popq	%r12
	.cfi_def_cfa_offset 24
	popq	%r14
.Ltmp335:
	.cfi_def_cfa_offset 16
	popq	%r15
.Ltmp336:
	.cfi_def_cfa_offset 8
	retq
.Lfunc_end26:
	.size	_ZN9CInBuffer9ReadBytesEPhj, .Lfunc_end26-_ZN9CInBuffer9ReadBytesEPhj
	.cfi_endproc
                                        # -- End function
	.section	.text._ZN7CBufferIhEcvPhEv,"axG",@progbits,_ZN7CBufferIhEcvPhEv,comdat
	.weak	_ZN7CBufferIhEcvPhEv    # -- Begin function _ZN7CBufferIhEcvPhEv
	.p2align	4, 0x90
	.type	_ZN7CBufferIhEcvPhEv,@function
_ZN7CBufferIhEcvPhEv:                   # @_ZN7CBufferIhEcvPhEv
.Lfunc_begin27:
	.loc	9 24 0 is_stmt 1        # /home/chris/test-suite/MultiSource/Benchmarks/7zip/CPP/Common/Buffer.h:24:0
	.cfi_startproc
# %bb.0:                                # %entry
	#DEBUG_VALUE: operator unsigned char *:this <- $rdi
	#DEBUG_VALUE: operator unsigned char *:this <- $rdi
	.loc	9 24 27 prologue_end    # /home/chris/test-suite/MultiSource/Benchmarks/7zip/CPP/Common/Buffer.h:24:27
	movq	16(%rdi), %rax
	.loc	9 24 20 is_stmt 0       # /home/chris/test-suite/MultiSource/Benchmarks/7zip/CPP/Common/Buffer.h:24:20
	retq
.Ltmp337:
.Lfunc_end27:
	.size	_ZN7CBufferIhEcvPhEv, .Lfunc_end27-_ZN7CBufferIhEcvPhEv
	.cfi_endproc
                                        # -- End function
	.section	.text._ZN9CInBufferD2Ev,"axG",@progbits,_ZN9CInBufferD2Ev,comdat
	.weak	_ZN9CInBufferD2Ev       # -- Begin function _ZN9CInBufferD2Ev
	.p2align	4, 0x90
	.type	_ZN9CInBufferD2Ev,@function
_ZN9CInBufferD2Ev:                      # @_ZN9CInBufferD2Ev
.Lfunc_begin28:
	.loc	23 36 0 is_stmt 1       # /home/chris/test-suite/MultiSource/Benchmarks/7zip/CPP/7zip/Archive/../Compress/../Common/InBuffer.h:36:0
	.cfi_startproc
	.cfi_personality 3, __gxx_personality_v0
	.cfi_lsda 3, .Lexception6
# %bb.0:                                # %entry
	#DEBUG_VALUE: ~CInBuffer:this <- $rdi
	pushq	%r14
	.cfi_def_cfa_offset 16
	pushq	%rbx
	.cfi_def_cfa_offset 24
	pushq	%rax
	.cfi_def_cfa_offset 32
	.cfi_offset %rbx, -24
	.cfi_offset %r14, -16
	movq	%rdi, %rbx
.Ltmp341:
	#DEBUG_VALUE: ~CInBuffer:this <- $rbx
.Ltmp338:
	.loc	23 36 18 prologue_end   # /home/chris/test-suite/MultiSource/Benchmarks/7zip/CPP/7zip/Archive/../Compress/../Common/InBuffer.h:36:18
	callq	_ZN9CInBuffer4FreeEv
.Ltmp339:
.Ltmp342:
# %bb.1:                                # %invoke.cont
	#DEBUG_VALUE: ~CInBuffer:this <- $rbx
	.loc	23 36 26 is_stmt 0      # /home/chris/test-suite/MultiSource/Benchmarks/7zip/CPP/7zip/Archive/../Compress/../Common/InBuffer.h:36:26
	addq	$24, %rbx
.Ltmp343:
	movq	%rbx, %rdi
	addq	$8, %rsp
	.cfi_def_cfa_offset 24
	popq	%rbx
	.cfi_def_cfa_offset 16
	popq	%r14
	.cfi_def_cfa_offset 8
	jmp	_ZN9CMyComPtrI19ISequentialInStreamED2Ev # TAILCALL
.LBB28_2:                               # %lpad
	.cfi_def_cfa_offset 32
.Ltmp344:
	#DEBUG_VALUE: ~CInBuffer:this <- $rbx
.Ltmp340:
	.loc	23 0 26                 # /home/chris/test-suite/MultiSource/Benchmarks/7zip/CPP/7zip/Archive/../Compress/../Common/InBuffer.h:0:26
	movq	%rax, %r14
	.loc	23 36 26                # /home/chris/test-suite/MultiSource/Benchmarks/7zip/CPP/7zip/Archive/../Compress/../Common/InBuffer.h:36:26
	addq	$24, %rbx
.Ltmp345:
	movq	%rbx, %rdi
	callq	_ZN9CMyComPtrI19ISequentialInStreamED2Ev
	movq	%r14, %rdi
	callq	__clang_call_terminate
.Ltmp346:
.Lfunc_end28:
	.size	_ZN9CInBufferD2Ev, .Lfunc_end28-_ZN9CInBufferD2Ev
	.cfi_endproc
	.section	.gcc_except_table,"a",@progbits
	.p2align	2
GCC_except_table28:
.Lexception6:
	.byte	255                     # @LPStart Encoding = omit
	.byte	3                       # @TType Encoding = udata4
	.uleb128 .Lttbase2-.Lttbaseref2
.Lttbaseref2:
	.byte	1                       # Call site Encoding = uleb128
	.uleb128 .Lcst_end6-.Lcst_begin6
.Lcst_begin6:
	.uleb128 .Ltmp338-.Lfunc_begin28 # >> Call Site 1 <<
	.uleb128 .Ltmp339-.Ltmp338      #   Call between .Ltmp338 and .Ltmp339
	.uleb128 .Ltmp340-.Lfunc_begin28 #     jumps to .Ltmp340
	.byte	1                       #   On action: 1
.Lcst_end6:
	.byte	1                       # >> Action Record 1 <<
                                        #   Catch TypeInfo 1
	.byte	0                       #   No further actions
	.p2align	2
                                        # >> Catch TypeInfos <<
	.long	0                       # TypeInfo 1
.Lttbase2:
	.p2align	2
                                        # -- End function
	.text
	.globl	_ZN8NArchive4NSwf8CHandler7OpenSeqEP19ISequentialInStream # -- Begin function _ZN8NArchive4NSwf8CHandler7OpenSeqEP19ISequentialInStream
	.p2align	4, 0x90
	.type	_ZN8NArchive4NSwf8CHandler7OpenSeqEP19ISequentialInStream,@function
_ZN8NArchive4NSwf8CHandler7OpenSeqEP19ISequentialInStream: # @_ZN8NArchive4NSwf8CHandler7OpenSeqEP19ISequentialInStream
.Lfunc_begin29:
	.loc	4 346 0 is_stmt 1       # /home/chris/test-suite/MultiSource/Benchmarks/7zip/CPP/7zip/Archive/SwfHandler.cpp:346:0
	.cfi_startproc
# %bb.0:                                # %entry
	#DEBUG_VALUE: OpenSeq:this <- $rdi
	#DEBUG_VALUE: OpenSeq:this <- $rdi
	#DEBUG_VALUE: OpenSeq:this <- $rdi
	#DEBUG_VALUE: OpenSeq:stream <- $rsi
	#DEBUG_VALUE: OpenSeq:stream <- $rsi
	#DEBUG_VALUE: OpenSeq:stream <- $rsi
	.loc	4 347 10 prologue_end   # /home/chris/test-suite/MultiSource/Benchmarks/7zip/CPP/7zip/Archive/SwfHandler.cpp:347:10
	xorl	%edx, %edx
	jmp	_ZN8NArchive4NSwf8CHandler8OpenSeq2EP19ISequentialInStreamP20IArchiveOpenCallback # TAILCALL
.Ltmp347:
.Lfunc_end29:
	.size	_ZN8NArchive4NSwf8CHandler7OpenSeqEP19ISequentialInStream, .Lfunc_end29-_ZN8NArchive4NSwf8CHandler7OpenSeqEP19ISequentialInStream
	.cfi_endproc
                                        # -- End function
	.globl	_ZThn8_N8NArchive4NSwf8CHandler7OpenSeqEP19ISequentialInStream # -- Begin function _ZThn8_N8NArchive4NSwf8CHandler7OpenSeqEP19ISequentialInStream
	.p2align	4, 0x90
	.type	_ZThn8_N8NArchive4NSwf8CHandler7OpenSeqEP19ISequentialInStream,@function
_ZThn8_N8NArchive4NSwf8CHandler7OpenSeqEP19ISequentialInStream: # @_ZThn8_N8NArchive4NSwf8CHandler7OpenSeqEP19ISequentialInStream
.Lfunc_begin30:
	.loc	4 0 0                   # /home/chris/test-suite/MultiSource/Benchmarks/7zip/CPP/7zip/Archive/SwfHandler.cpp:0:0
	.cfi_startproc
# %bb.0:                                # %entry
	addq	$-8, %rdi
	jmp	_ZN8NArchive4NSwf8CHandler7OpenSeqEP19ISequentialInStream # TAILCALL
.Ltmp348:
.Lfunc_end30:
	.size	_ZThn8_N8NArchive4NSwf8CHandler7OpenSeqEP19ISequentialInStream, .Lfunc_end30-_ZThn8_N8NArchive4NSwf8CHandler7OpenSeqEP19ISequentialInStream
	.cfi_endproc
                                        # -- End function
	.globl	_ZN8NArchive4NSwf8CHandler5CloseEv # -- Begin function _ZN8NArchive4NSwf8CHandler5CloseEv
	.p2align	4, 0x90
	.type	_ZN8NArchive4NSwf8CHandler5CloseEv,@function
_ZN8NArchive4NSwf8CHandler5CloseEv:     # @_ZN8NArchive4NSwf8CHandler5CloseEv
.Lfunc_begin31:
	.loc	4 351 0                 # /home/chris/test-suite/MultiSource/Benchmarks/7zip/CPP/7zip/Archive/SwfHandler.cpp:351:0
	.cfi_startproc
# %bb.0:                                # %entry
	#DEBUG_VALUE: Close:this <- undef
	.loc	4 352 3 prologue_end    # /home/chris/test-suite/MultiSource/Benchmarks/7zip/CPP/7zip/Archive/SwfHandler.cpp:352:3
	xorl	%eax, %eax
	retq
.Ltmp349:
.Lfunc_end31:
	.size	_ZN8NArchive4NSwf8CHandler5CloseEv, .Lfunc_end31-_ZN8NArchive4NSwf8CHandler5CloseEv
	.cfi_endproc
                                        # -- End function
	.globl	_ZN8NArchive4NSwf8CHandler7ExtractEPKjjiP23IArchiveExtractCallback # -- Begin function _ZN8NArchive4NSwf8CHandler7ExtractEPKjjiP23IArchiveExtractCallback
	.p2align	4, 0x90
	.type	_ZN8NArchive4NSwf8CHandler7ExtractEPKjjiP23IArchiveExtractCallback,@function
_ZN8NArchive4NSwf8CHandler7ExtractEPKjjiP23IArchiveExtractCallback: # @_ZN8NArchive4NSwf8CHandler7ExtractEPKjjiP23IArchiveExtractCallback
.Lfunc_begin32:
	.loc	4 357 0                 # /home/chris/test-suite/MultiSource/Benchmarks/7zip/CPP/7zip/Archive/SwfHandler.cpp:357:0
	.cfi_startproc
	.cfi_personality 3, __gxx_personality_v0
	.cfi_lsda 3, .Lexception7
# %bb.0:                                # %entry
	#DEBUG_VALUE: Extract:this <- $rdi
	#DEBUG_VALUE: Extract:indices <- $rsi
	#DEBUG_VALUE: Extract:numItems <- $edx
	#DEBUG_VALUE: Extract:testMode <- $ecx
	#DEBUG_VALUE: Extract:extractCallback <- $r8
	pushq	%rbp
	.cfi_def_cfa_offset 16
	pushq	%r15
	.cfi_def_cfa_offset 24
	pushq	%r14
	.cfi_def_cfa_offset 32
	pushq	%r13
	.cfi_def_cfa_offset 40
	pushq	%r12
	.cfi_def_cfa_offset 48
	pushq	%rbx
	.cfi_def_cfa_offset 56
	subq	$88, %rsp
	.cfi_def_cfa_offset 144
	.cfi_offset %rbx, -56
	.cfi_offset %r12, -48
	.cfi_offset %r13, -40
	.cfi_offset %r14, -32
	.cfi_offset %r15, -24
	.cfi_offset %rbp, -16
	movq	%r8, 8(%rsp)            # 8-byte Spill
.Ltmp392:
	#DEBUG_VALUE: Extract:extractCallback <- [DW_OP_plus_uconst 8] [$rsp+0]
	movl	%ecx, 16(%rsp)          # 4-byte Spill
.Ltmp393:
	#DEBUG_VALUE: Extract:testMode <- [DW_OP_plus_uconst 16] [$rsp+0]
	movl	%edx, %r14d
.Ltmp394:
	#DEBUG_VALUE: Extract:numItems <- $r14d
	movq	%rsi, %r15
.Ltmp395:
	#DEBUG_VALUE: Extract:indices <- $r15
	movq	%rdi, %r12
.Ltmp396:
	#DEBUG_VALUE: Extract:this <- $r12
	movl	%r14d, %eax
.Ltmp397:
	.loc	4 359 33 prologue_end   # /home/chris/test-suite/MultiSource/Benchmarks/7zip/CPP/7zip/Archive/SwfHandler.cpp:359:33
	cmpl	$-1, %r14d
.Ltmp398:
	#DEBUG_VALUE: allFilesMode <- undef
	.loc	4 360 7                 # /home/chris/test-suite/MultiSource/Benchmarks/7zip/CPP/7zip/Archive/SwfHandler.cpp:360:7
	jne	.LBB32_2
	jmp	.LBB32_1
.Ltmp399:
.LBB32_1:                               # %if.then
	#DEBUG_VALUE: Extract:this <- $r12
	#DEBUG_VALUE: Extract:indices <- $r15
	#DEBUG_VALUE: Extract:numItems <- $r14d
	#DEBUG_VALUE: Extract:testMode <- [DW_OP_plus_uconst 16] [$rsp+0]
	#DEBUG_VALUE: Extract:extractCallback <- [DW_OP_plus_uconst 8] [$rsp+0]
	.loc	4 361 16                # /home/chris/test-suite/MultiSource/Benchmarks/7zip/CPP/7zip/Archive/SwfHandler.cpp:361:16
	leaq	24(%r12), %rdi
	.loc	4 361 22 is_stmt 0      # /home/chris/test-suite/MultiSource/Benchmarks/7zip/CPP/7zip/Archive/SwfHandler.cpp:361:22
	callq	_ZNK17CBaseRecordVector4SizeEv
.Ltmp400:
	#DEBUG_VALUE: Extract:numItems <- $eax
.LBB32_2:                               # %if.end
	#DEBUG_VALUE: Extract:this <- $r12
	#DEBUG_VALUE: Extract:indices <- $r15
	#DEBUG_VALUE: Extract:testMode <- [DW_OP_plus_uconst 16] [$rsp+0]
	#DEBUG_VALUE: Extract:extractCallback <- [DW_OP_plus_uconst 8] [$rsp+0]
	#DEBUG_VALUE: Extract:numItems <- $eax
	.loc	4 362 16 is_stmt 1      # /home/chris/test-suite/MultiSource/Benchmarks/7zip/CPP/7zip/Archive/SwfHandler.cpp:362:16
	testl	%eax, %eax
.Ltmp401:
	.loc	4 362 7 is_stmt 0       # /home/chris/test-suite/MultiSource/Benchmarks/7zip/CPP/7zip/Archive/SwfHandler.cpp:362:7
	jne	.LBB32_4
.Ltmp402:
# %bb.3:
	#DEBUG_VALUE: Extract:numItems <- $eax
	#DEBUG_VALUE: Extract:this <- $r12
	#DEBUG_VALUE: Extract:indices <- $r15
	#DEBUG_VALUE: Extract:testMode <- [DW_OP_plus_uconst 16] [$rsp+0]
	#DEBUG_VALUE: Extract:extractCallback <- [DW_OP_plus_uconst 8] [$rsp+0]
	.loc	4 0 7                   # /home/chris/test-suite/MultiSource/Benchmarks/7zip/CPP/7zip/Archive/SwfHandler.cpp:0:7
	xorl	%r13d, %r13d
	jmp	.LBB32_65
.Ltmp403:
.LBB32_4:                               # %for.body.lr.ph
	#DEBUG_VALUE: Extract:numItems <- $eax
	#DEBUG_VALUE: Extract:this <- $r12
	#DEBUG_VALUE: Extract:indices <- $r15
	#DEBUG_VALUE: Extract:testMode <- [DW_OP_plus_uconst 16] [$rsp+0]
	#DEBUG_VALUE: Extract:extractCallback <- [DW_OP_plus_uconst 8] [$rsp+0]
	movl	%eax, %eax
.Ltmp404:
	#DEBUG_VALUE: i <- 0
	#DEBUG_VALUE: totalSize <- 0
	movq	%rax, 24(%rsp)          # 8-byte Spill
.Ltmp405:
	addq	$24, %r12
.Ltmp406:
	xorl	%ebp, %ebp
	xorl	%ebx, %ebx
.Ltmp407:
.LBB32_5:                               # %for.body
                                        # =>This Inner Loop Header: Depth=1
	#DEBUG_VALUE: Extract:indices <- $r15
	#DEBUG_VALUE: Extract:testMode <- [DW_OP_plus_uconst 16] [$rsp+0]
	#DEBUG_VALUE: Extract:extractCallback <- [DW_OP_plus_uconst 8] [$rsp+0]
	#DEBUG_VALUE: totalSize <- $rbx
	#DEBUG_VALUE: i <- $rbp
	.loc	4 359 33 is_stmt 1      # /home/chris/test-suite/MultiSource/Benchmarks/7zip/CPP/7zip/Archive/SwfHandler.cpp:359:33
	cmpl	$-1, %r14d
.Ltmp408:
	.loc	4 367 24                # /home/chris/test-suite/MultiSource/Benchmarks/7zip/CPP/7zip/Archive/SwfHandler.cpp:367:24
	jne	.LBB32_7
	jmp	.LBB32_6
.Ltmp409:
.LBB32_6:                               # %for.body.cond.end_crit_edge
                                        #   in Loop: Header=BB32_5 Depth=1
	#DEBUG_VALUE: i <- $rbp
	#DEBUG_VALUE: totalSize <- $rbx
	#DEBUG_VALUE: Extract:indices <- $r15
	#DEBUG_VALUE: Extract:testMode <- [DW_OP_plus_uconst 16] [$rsp+0]
	#DEBUG_VALUE: Extract:extractCallback <- [DW_OP_plus_uconst 8] [$rsp+0]
	movl	%ebp, %esi
	jmp	.LBB32_8
.Ltmp410:
.LBB32_7:                               # %cond.false
                                        #   in Loop: Header=BB32_5 Depth=1
	#DEBUG_VALUE: i <- $rbp
	#DEBUG_VALUE: totalSize <- $rbx
	#DEBUG_VALUE: Extract:indices <- $r15
	#DEBUG_VALUE: Extract:testMode <- [DW_OP_plus_uconst 16] [$rsp+0]
	#DEBUG_VALUE: Extract:extractCallback <- [DW_OP_plus_uconst 8] [$rsp+0]
	.loc	4 367 43 is_stmt 0      # /home/chris/test-suite/MultiSource/Benchmarks/7zip/CPP/7zip/Archive/SwfHandler.cpp:367:43
	movl	(%r15,%rbp,4), %esi
.Ltmp411:
.LBB32_8:                               # %cond.end
                                        #   in Loop: Header=BB32_5 Depth=1
	#DEBUG_VALUE: i <- $rbp
	#DEBUG_VALUE: totalSize <- $rbx
	#DEBUG_VALUE: Extract:indices <- $r15
	#DEBUG_VALUE: Extract:testMode <- [DW_OP_plus_uconst 16] [$rsp+0]
	#DEBUG_VALUE: Extract:extractCallback <- [DW_OP_plus_uconst 8] [$rsp+0]
.Ltmp350:
	.loc	4 367 18                # /home/chris/test-suite/MultiSource/Benchmarks/7zip/CPP/7zip/Archive/SwfHandler.cpp:367:18
	movq	%r12, %rdi
	callq	_ZN13CObjectVectorIN8NArchive4NSwf4CTagEEixEi
.Ltmp351:
	jmp	.LBB32_9
.Ltmp412:
.LBB32_9:                               # %invoke.cont9
                                        #   in Loop: Header=BB32_5 Depth=1
	#DEBUG_VALUE: i <- $rbp
	#DEBUG_VALUE: totalSize <- $rbx
	#DEBUG_VALUE: Extract:indices <- $r15
	#DEBUG_VALUE: Extract:testMode <- [DW_OP_plus_uconst 16] [$rsp+0]
	#DEBUG_VALUE: Extract:extractCallback <- [DW_OP_plus_uconst 8] [$rsp+0]
	.loc	4 367 55                # /home/chris/test-suite/MultiSource/Benchmarks/7zip/CPP/7zip/Archive/SwfHandler.cpp:367:55
	addq	$8, %rax
	.loc	4 367 59                # /home/chris/test-suite/MultiSource/Benchmarks/7zip/CPP/7zip/Archive/SwfHandler.cpp:367:59
	movq	%rax, %rdi
	callq	_ZNK7CBufferIhE11GetCapacityEv
	.loc	4 367 15                # /home/chris/test-suite/MultiSource/Benchmarks/7zip/CPP/7zip/Archive/SwfHandler.cpp:367:15
	addq	%rax, %rbx
.Ltmp413:
	#DEBUG_VALUE: totalSize <- $rbx
	.loc	4 366 30 is_stmt 1      # /home/chris/test-suite/MultiSource/Benchmarks/7zip/CPP/7zip/Archive/SwfHandler.cpp:366:30
	addq	$1, %rbp
.Ltmp414:
	#DEBUG_VALUE: i <- $rbp
	.loc	4 366 17 is_stmt 0      # /home/chris/test-suite/MultiSource/Benchmarks/7zip/CPP/7zip/Archive/SwfHandler.cpp:366:17
	cmpq	%rbp, 24(%rsp)          # 8-byte Folded Reload
.Ltmp415:
	.loc	4 366 3                 # /home/chris/test-suite/MultiSource/Benchmarks/7zip/CPP/7zip/Archive/SwfHandler.cpp:366:3
	je	.LBB32_13
	jmp	.LBB32_5
.Ltmp416:
.LBB32_10:                              # %lpad8.loopexit
	#DEBUG_VALUE: i <- $rbp
	#DEBUG_VALUE: totalSize <- $rbx
	#DEBUG_VALUE: Extract:indices <- $r15
	#DEBUG_VALUE: Extract:testMode <- [DW_OP_plus_uconst 16] [$rsp+0]
	#DEBUG_VALUE: Extract:extractCallback <- [DW_OP_plus_uconst 8] [$rsp+0]
.Ltmp352:
	.loc	4 0 3                   # /home/chris/test-suite/MultiSource/Benchmarks/7zip/CPP/7zip/Archive/SwfHandler.cpp:0:3
	movq	%rdx, %rbx
.Ltmp417:
	movq	%rax, %rbp
.Ltmp418:
	.loc	4 400 1 is_stmt 1       # /home/chris/test-suite/MultiSource/Benchmarks/7zip/CPP/7zip/Archive/SwfHandler.cpp:400:1
	jmp	.LBB32_12
.Ltmp419:
.LBB32_11:                              # %lpad8.loopexit.split-lp
	#DEBUG_VALUE: i <- $rbp
	#DEBUG_VALUE: totalSize <- $rbx
	#DEBUG_VALUE: Extract:indices <- $r15
	#DEBUG_VALUE: Extract:testMode <- [DW_OP_plus_uconst 16] [$rsp+0]
	#DEBUG_VALUE: Extract:extractCallback <- [DW_OP_plus_uconst 8] [$rsp+0]
.Ltmp355:
	.loc	4 0 1 is_stmt 0         # /home/chris/test-suite/MultiSource/Benchmarks/7zip/CPP/7zip/Archive/SwfHandler.cpp:0:1
	movq	%rdx, %rbx
.Ltmp420:
	movq	%rax, %rbp
.Ltmp421:
.LBB32_12:                              # %lpad8
	#DEBUG_VALUE: Extract:indices <- $r15
	#DEBUG_VALUE: Extract:testMode <- [DW_OP_plus_uconst 16] [$rsp+0]
	#DEBUG_VALUE: Extract:extractCallback <- [DW_OP_plus_uconst 8] [$rsp+0]
	.loc	4 400 1                 # /home/chris/test-suite/MultiSource/Benchmarks/7zip/CPP/7zip/Archive/SwfHandler.cpp:400:1
	jmp	.LBB32_61
.Ltmp422:
.LBB32_13:                              # %for.end
	#DEBUG_VALUE: i <- $rbp
	#DEBUG_VALUE: totalSize <- $rbx
	#DEBUG_VALUE: Extract:indices <- $r15
	#DEBUG_VALUE: Extract:testMode <- [DW_OP_plus_uconst 16] [$rsp+0]
	#DEBUG_VALUE: Extract:extractCallback <- [DW_OP_plus_uconst 8] [$rsp+0]
	.loc	4 0 1                   # /home/chris/test-suite/MultiSource/Benchmarks/7zip/CPP/7zip/Archive/SwfHandler.cpp:0:1
	movq	8(%rsp), %rdi           # 8-byte Reload
	.loc	4 368 20 is_stmt 1      # /home/chris/test-suite/MultiSource/Benchmarks/7zip/CPP/7zip/Archive/SwfHandler.cpp:368:20
	movq	(%rdi), %rax
.Ltmp353:
	movq	%rbx, %rsi
	callq	*40(%rax)
.Ltmp354:
	jmp	.LBB32_14
.Ltmp423:
.LBB32_14:                              # %invoke.cont13
	#DEBUG_VALUE: i <- $rbp
	#DEBUG_VALUE: totalSize <- $rbx
	#DEBUG_VALUE: Extract:indices <- $r15
	#DEBUG_VALUE: Extract:testMode <- [DW_OP_plus_uconst 16] [$rsp+0]
	#DEBUG_VALUE: Extract:extractCallback <- [DW_OP_plus_uconst 8] [$rsp+0]
.Ltmp356:
	.loc	4 370 25                # /home/chris/test-suite/MultiSource/Benchmarks/7zip/CPP/7zip/Archive/SwfHandler.cpp:370:25
	movl	$72, %edi
	callq	_Znwm
	movq	%rax, %rbp
.Ltmp424:
.Ltmp357:
	jmp	.LBB32_15
.Ltmp425:
.LBB32_15:                              # %invoke.cont16
	#DEBUG_VALUE: totalSize <- $rbx
	#DEBUG_VALUE: Extract:indices <- $r15
	#DEBUG_VALUE: Extract:testMode <- [DW_OP_plus_uconst 16] [$rsp+0]
	#DEBUG_VALUE: Extract:extractCallback <- [DW_OP_plus_uconst 8] [$rsp+0]
.Ltmp359:
	#DEBUG_VALUE: lps <- $rbp
	.loc	4 370 29 is_stmt 0      # /home/chris/test-suite/MultiSource/Benchmarks/7zip/CPP/7zip/Archive/SwfHandler.cpp:370:29
	movq	%rbp, %rdi
	callq	_ZN14CLocalProgressC1Ev
.Ltmp360:
	jmp	.LBB32_16
.Ltmp426:
.LBB32_16:                              # %invoke.cont19
	#DEBUG_VALUE: lps <- $rbp
	#DEBUG_VALUE: totalSize <- $rbx
	#DEBUG_VALUE: Extract:indices <- $r15
	#DEBUG_VALUE: Extract:testMode <- [DW_OP_plus_uconst 16] [$rsp+0]
	#DEBUG_VALUE: Extract:extractCallback <- [DW_OP_plus_uconst 8] [$rsp+0]
.Ltmp362:
	.loc	4 0 29                  # /home/chris/test-suite/MultiSource/Benchmarks/7zip/CPP/7zip/Archive/SwfHandler.cpp:0:29
	leaq	48(%rsp), %rdi
	.loc	4 371 47 is_stmt 1      # /home/chris/test-suite/MultiSource/Benchmarks/7zip/CPP/7zip/Archive/SwfHandler.cpp:371:47
	movq	%rbp, %rsi
	callq	_ZN9CMyComPtrI21ICompressProgressInfoEC2EPS0_
.Ltmp363:
	jmp	.LBB32_17
.Ltmp427:
.LBB32_17:                              # %invoke.cont21
	#DEBUG_VALUE: lps <- $rbp
	#DEBUG_VALUE: totalSize <- $rbx
	#DEBUG_VALUE: Extract:indices <- $r15
	#DEBUG_VALUE: Extract:testMode <- [DW_OP_plus_uconst 16] [$rsp+0]
	#DEBUG_VALUE: Extract:extractCallback <- [DW_OP_plus_uconst 8] [$rsp+0]
.Ltmp365:
	.loc	4 0 47 is_stmt 0        # /home/chris/test-suite/MultiSource/Benchmarks/7zip/CPP/7zip/Archive/SwfHandler.cpp:0:47
	xorl	%r13d, %r13d
	movq	%rbp, 72(%rsp)          # 8-byte Spill
.Ltmp428:
	#DEBUG_VALUE: lps <- [DW_OP_plus_uconst 72] [$rsp+0]
	.loc	4 372 8 is_stmt 1       # /home/chris/test-suite/MultiSource/Benchmarks/7zip/CPP/7zip/Archive/SwfHandler.cpp:372:8
	movq	%rbp, %rdi
	movq	8(%rsp), %rsi           # 8-byte Reload
	xorl	%edx, %edx
	callq	_ZN14CLocalProgress4InitEP9IProgressb
.Ltmp366:
	jmp	.LBB32_18
.Ltmp429:
.LBB32_18:                              # %for.cond24.preheader
	#DEBUG_VALUE: lps <- [DW_OP_plus_uconst 72] [$rsp+0]
	#DEBUG_VALUE: totalSize <- $rbx
	#DEBUG_VALUE: Extract:indices <- $r15
	#DEBUG_VALUE: Extract:testMode <- [DW_OP_plus_uconst 16] [$rsp+0]
	#DEBUG_VALUE: Extract:extractCallback <- [DW_OP_plus_uconst 8] [$rsp+0]
	#DEBUG_VALUE: totalSize <- 0
	#DEBUG_VALUE: i <- 0
	.loc	4 376 17                # /home/chris/test-suite/MultiSource/Benchmarks/7zip/CPP/7zip/Archive/SwfHandler.cpp:376:17
	cmpl	$0, 24(%rsp)            # 4-byte Folded Reload
.Ltmp430:
	.loc	4 376 3 is_stmt 0       # /home/chris/test-suite/MultiSource/Benchmarks/7zip/CPP/7zip/Archive/SwfHandler.cpp:376:3
	je	.LBB32_58
	jmp	.LBB32_19
.Ltmp431:
.LBB32_19:                              # %for.body26.lr.ph
	#DEBUG_VALUE: lps <- [DW_OP_plus_uconst 72] [$rsp+0]
	#DEBUG_VALUE: totalSize <- 0
	#DEBUG_VALUE: i <- 0
	#DEBUG_VALUE: Extract:indices <- $r15
	#DEBUG_VALUE: Extract:testMode <- [DW_OP_plus_uconst 16] [$rsp+0]
	#DEBUG_VALUE: Extract:extractCallback <- [DW_OP_plus_uconst 8] [$rsp+0]
	.loc	4 0 3                   # /home/chris/test-suite/MultiSource/Benchmarks/7zip/CPP/7zip/Archive/SwfHandler.cpp:0:3
	movq	%r12, 64(%rsp)          # 8-byte Spill
	movq	%r15, 56(%rsp)          # 8-byte Spill
.Ltmp432:
	#DEBUG_VALUE: Extract:indices <- [DW_OP_plus_uconst 56] [$rsp+0]
	movl	%r14d, 36(%rsp)         # 4-byte Spill
.Ltmp433:
	xorl	%eax, %eax
	cmpl	$0, 16(%rsp)            # 4-byte Folded Reload
	setne	%al
.Ltmp434:
	#DEBUG_VALUE: askMode <- $eax
	movl	%eax, 20(%rsp)          # 4-byte Spill
.Ltmp435:
	#DEBUG_VALUE: askMode <- [DW_OP_plus_uconst 20] [$rsp+0]
	#DEBUG_VALUE: askMode <- [DW_OP_plus_uconst 20] [$rsp+0]
	xorl	%ebp, %ebp
	leaq	40(%rsp), %rbx
	xorl	%r12d, %r12d
.Ltmp436:
.LBB32_20:                              # %for.body26
                                        # =>This Inner Loop Header: Depth=1
	#DEBUG_VALUE: Extract:testMode <- [DW_OP_plus_uconst 16] [$rsp+0]
	#DEBUG_VALUE: Extract:extractCallback <- [DW_OP_plus_uconst 8] [$rsp+0]
	#DEBUG_VALUE: totalSize <- $r12
	#DEBUG_VALUE: i <- $rbp
	movq	72(%rsp), %rdi          # 8-byte Reload
.Ltmp437:
	#DEBUG_VALUE: lps <- $rdi
	.loc	4 378 32 is_stmt 1      # /home/chris/test-suite/MultiSource/Benchmarks/7zip/CPP/7zip/Archive/SwfHandler.cpp:378:32
	movq	%r12, 56(%rdi)
	.loc	4 378 17 is_stmt 0      # /home/chris/test-suite/MultiSource/Benchmarks/7zip/CPP/7zip/Archive/SwfHandler.cpp:378:17
	movq	%r12, 48(%rdi)
.Ltmp368:
.Ltmp438:
	.loc	4 379 5 is_stmt 1       # /home/chris/test-suite/MultiSource/Benchmarks/7zip/CPP/7zip/Archive/SwfHandler.cpp:379:5
	callq	_ZN14CLocalProgress6SetCurEv
.Ltmp439:
	movl	%eax, %r13d
.Ltmp369:
	jmp	.LBB32_21
.Ltmp440:
.LBB32_21:                              # %invoke.cont28
                                        #   in Loop: Header=BB32_20 Depth=1
	#DEBUG_VALUE: totalSize <- $r12
	#DEBUG_VALUE: i <- $rbp
	#DEBUG_VALUE: Extract:testMode <- [DW_OP_plus_uconst 16] [$rsp+0]
	#DEBUG_VALUE: Extract:extractCallback <- [DW_OP_plus_uconst 8] [$rsp+0]
	.loc	4 379 5 is_stmt 0       # /home/chris/test-suite/MultiSource/Benchmarks/7zip/CPP/7zip/Archive/SwfHandler.cpp:379:5
	testl	%r13d, %r13d
	je	.LBB32_28
.Ltmp441:
# %bb.22:
	#DEBUG_VALUE: totalSize <- $r12
	#DEBUG_VALUE: i <- $rbp
	#DEBUG_VALUE: Extract:testMode <- [DW_OP_plus_uconst 16] [$rsp+0]
	#DEBUG_VALUE: Extract:extractCallback <- [DW_OP_plus_uconst 8] [$rsp+0]
	#DEBUG_VALUE: __result__ <- $r13d
	.loc	4 0 5                   # /home/chris/test-suite/MultiSource/Benchmarks/7zip/CPP/7zip/Archive/SwfHandler.cpp:0:5
	jmp	.LBB32_58
.Ltmp442:
.LBB32_23:                              # %lpad15
	#DEBUG_VALUE: totalSize <- $rbx
	#DEBUG_VALUE: Extract:indices <- $r15
	#DEBUG_VALUE: Extract:testMode <- [DW_OP_plus_uconst 16] [$rsp+0]
	#DEBUG_VALUE: Extract:extractCallback <- [DW_OP_plus_uconst 8] [$rsp+0]
.Ltmp358:
	movq	%rdx, %rbx
.Ltmp443:
	movq	%rax, %rbp
	.loc	4 400 1 is_stmt 1       # /home/chris/test-suite/MultiSource/Benchmarks/7zip/CPP/7zip/Archive/SwfHandler.cpp:400:1
	jmp	.LBB32_61
.Ltmp444:
.LBB32_24:                              # %lpad18
	#DEBUG_VALUE: lps <- $rbp
	#DEBUG_VALUE: totalSize <- $rbx
	#DEBUG_VALUE: Extract:indices <- $r15
	#DEBUG_VALUE: Extract:testMode <- [DW_OP_plus_uconst 16] [$rsp+0]
	#DEBUG_VALUE: Extract:extractCallback <- [DW_OP_plus_uconst 8] [$rsp+0]
.Ltmp361:
	.loc	4 0 1 is_stmt 0         # /home/chris/test-suite/MultiSource/Benchmarks/7zip/CPP/7zip/Archive/SwfHandler.cpp:0:1
	movq	%rdx, %rbx
.Ltmp445:
	movq	%rbp, %rdi
	movq	%rax, %rbp
.Ltmp446:
	.loc	4 370 25 is_stmt 1      # /home/chris/test-suite/MultiSource/Benchmarks/7zip/CPP/7zip/Archive/SwfHandler.cpp:370:25
	callq	_ZdlPv
	jmp	.LBB32_61
.Ltmp447:
.LBB32_25:                              # %lpad20
	#DEBUG_VALUE: lps <- $rbp
	#DEBUG_VALUE: totalSize <- $rbx
	#DEBUG_VALUE: Extract:indices <- $r15
	#DEBUG_VALUE: Extract:testMode <- [DW_OP_plus_uconst 16] [$rsp+0]
	#DEBUG_VALUE: Extract:extractCallback <- [DW_OP_plus_uconst 8] [$rsp+0]
.Ltmp364:
	.loc	4 0 25 is_stmt 0        # /home/chris/test-suite/MultiSource/Benchmarks/7zip/CPP/7zip/Archive/SwfHandler.cpp:0:25
	movq	%rdx, %rbx
.Ltmp448:
	movq	%rax, %rbp
.Ltmp449:
	.loc	4 400 1 is_stmt 1       # /home/chris/test-suite/MultiSource/Benchmarks/7zip/CPP/7zip/Archive/SwfHandler.cpp:400:1
	jmp	.LBB32_60
.Ltmp450:
.LBB32_26:                              # %lpad22
	#DEBUG_VALUE: lps <- [DW_OP_plus_uconst 72] [$rsp+0]
	#DEBUG_VALUE: totalSize <- $rbx
	#DEBUG_VALUE: Extract:indices <- $r15
	#DEBUG_VALUE: Extract:testMode <- [DW_OP_plus_uconst 16] [$rsp+0]
	#DEBUG_VALUE: Extract:extractCallback <- [DW_OP_plus_uconst 8] [$rsp+0]
.Ltmp367:
	.loc	4 0 1 is_stmt 0         # /home/chris/test-suite/MultiSource/Benchmarks/7zip/CPP/7zip/Archive/SwfHandler.cpp:0:1
	movq	%rdx, %rbx
.Ltmp451:
	movq	%rax, %rbp
	.loc	4 400 1                 # /home/chris/test-suite/MultiSource/Benchmarks/7zip/CPP/7zip/Archive/SwfHandler.cpp:400:1
	jmp	.LBB32_59
.Ltmp452:
.LBB32_27:                              # %lpad27
	#DEBUG_VALUE: totalSize <- $r12
	#DEBUG_VALUE: i <- $rbp
	#DEBUG_VALUE: Extract:testMode <- [DW_OP_plus_uconst 16] [$rsp+0]
	#DEBUG_VALUE: Extract:extractCallback <- [DW_OP_plus_uconst 8] [$rsp+0]
.Ltmp370:
	.loc	4 0 1                   # /home/chris/test-suite/MultiSource/Benchmarks/7zip/CPP/7zip/Archive/SwfHandler.cpp:0:1
	movq	%rdx, %rbx
	movq	%rax, %rbp
.Ltmp453:
	.loc	4 379 5 is_stmt 1       # /home/chris/test-suite/MultiSource/Benchmarks/7zip/CPP/7zip/Archive/SwfHandler.cpp:379:5
	jmp	.LBB32_59
.Ltmp454:
.LBB32_28:                              # %cleanup.cont
                                        #   in Loop: Header=BB32_20 Depth=1
	#DEBUG_VALUE: totalSize <- $r12
	#DEBUG_VALUE: i <- $rbp
	#DEBUG_VALUE: Extract:testMode <- [DW_OP_plus_uconst 16] [$rsp+0]
	#DEBUG_VALUE: Extract:extractCallback <- [DW_OP_plus_uconst 8] [$rsp+0]
	.loc	4 359 33                # /home/chris/test-suite/MultiSource/Benchmarks/7zip/CPP/7zip/Archive/SwfHandler.cpp:359:33
	cmpl	$-1, 36(%rsp)           # 4-byte Folded Reload
.Ltmp455:
	.loc	4 383 20                # /home/chris/test-suite/MultiSource/Benchmarks/7zip/CPP/7zip/Archive/SwfHandler.cpp:383:20
	jne	.LBB32_30
	jmp	.LBB32_29
.Ltmp456:
.LBB32_29:                              # %cleanup.cont.cond.end40_crit_edge
                                        #   in Loop: Header=BB32_20 Depth=1
	#DEBUG_VALUE: totalSize <- $r12
	#DEBUG_VALUE: i <- $rbp
	#DEBUG_VALUE: Extract:testMode <- [DW_OP_plus_uconst 16] [$rsp+0]
	#DEBUG_VALUE: Extract:extractCallback <- [DW_OP_plus_uconst 8] [$rsp+0]
	movl	%ebp, %r13d
	jmp	.LBB32_31
.Ltmp457:
.LBB32_30:                              # %cond.false37
                                        #   in Loop: Header=BB32_20 Depth=1
	#DEBUG_VALUE: totalSize <- $r12
	#DEBUG_VALUE: i <- $rbp
	#DEBUG_VALUE: Extract:testMode <- [DW_OP_plus_uconst 16] [$rsp+0]
	#DEBUG_VALUE: Extract:extractCallback <- [DW_OP_plus_uconst 8] [$rsp+0]
	.loc	4 0 20 is_stmt 0        # /home/chris/test-suite/MultiSource/Benchmarks/7zip/CPP/7zip/Archive/SwfHandler.cpp:0:20
	movq	56(%rsp), %rax          # 8-byte Reload
.Ltmp458:
	#DEBUG_VALUE: Extract:indices <- $rax
	.loc	4 383 39                # /home/chris/test-suite/MultiSource/Benchmarks/7zip/CPP/7zip/Archive/SwfHandler.cpp:383:39
	movl	(%rax,%rbp,4), %r13d
.Ltmp459:
.LBB32_31:                              # %cond.end40
                                        #   in Loop: Header=BB32_20 Depth=1
	#DEBUG_VALUE: totalSize <- $r12
	#DEBUG_VALUE: i <- $rbp
	#DEBUG_VALUE: Extract:testMode <- [DW_OP_plus_uconst 16] [$rsp+0]
	#DEBUG_VALUE: Extract:extractCallback <- [DW_OP_plus_uconst 8] [$rsp+0]
.Ltmp371:
	#DEBUG_VALUE: index <- $r13d
	.loc	4 0 39                  # /home/chris/test-suite/MultiSource/Benchmarks/7zip/CPP/7zip/Archive/SwfHandler.cpp:0:39
	movq	%rbp, 80(%rsp)          # 8-byte Spill
.Ltmp460:
	#DEBUG_VALUE: i <- [DW_OP_plus_uconst 80] [$rsp+0]
	#DEBUG_VALUE: i <- [DW_OP_plus_uconst 80] [$rsp+0]
	movq	64(%rsp), %rdi          # 8-byte Reload
	.loc	4 384 30 is_stmt 1      # /home/chris/test-suite/MultiSource/Benchmarks/7zip/CPP/7zip/Archive/SwfHandler.cpp:384:30
	movl	%r13d, %esi
	callq	_ZN13CObjectVectorIN8NArchive4NSwf4CTagEEixEi
	movq	%rax, %r15
.Ltmp372:
	jmp	.LBB32_32
.Ltmp461:
.LBB32_32:                              # %invoke.cont44
                                        #   in Loop: Header=BB32_20 Depth=1
	#DEBUG_VALUE: i <- [DW_OP_plus_uconst 80] [$rsp+0]
	#DEBUG_VALUE: index <- $r13d
	#DEBUG_VALUE: totalSize <- $r12
	#DEBUG_VALUE: Extract:testMode <- [DW_OP_plus_uconst 16] [$rsp+0]
	#DEBUG_VALUE: Extract:extractCallback <- [DW_OP_plus_uconst 8] [$rsp+0]
	.loc	4 384 43 is_stmt 0      # /home/chris/test-suite/MultiSource/Benchmarks/7zip/CPP/7zip/Archive/SwfHandler.cpp:384:43
	addq	$8, %r15
.Ltmp462:
	#DEBUG_VALUE: buf <- $r15
	.loc	4 385 22 is_stmt 1      # /home/chris/test-suite/MultiSource/Benchmarks/7zip/CPP/7zip/Archive/SwfHandler.cpp:385:22
	movq	%r15, %rdi
	callq	_ZNK7CBufferIhE11GetCapacityEv
	movq	%rax, %rbp
	.loc	4 387 37                # /home/chris/test-suite/MultiSource/Benchmarks/7zip/CPP/7zip/Archive/SwfHandler.cpp:387:37
	movq	%rbx, %rdi
	callq	_ZN9CMyComPtrI20ISequentialOutStreamEC2Ev
	movq	%rbx, %r14
.Ltmp463:
	.loc	4 388 5                 # /home/chris/test-suite/MultiSource/Benchmarks/7zip/CPP/7zip/Archive/SwfHandler.cpp:388:5
	movq	%rbx, %rdi
	callq	_ZN9CMyComPtrI20ISequentialOutStreamEadEv
	movq	8(%rsp), %rdi           # 8-byte Reload
	movq	(%rdi), %rbx
.Ltmp374:
	movl	%r13d, %esi
	movq	%rax, %rdx
	movl	20(%rsp), %ecx          # 4-byte Reload
	callq	*56(%rbx)
	movl	%eax, %r13d
.Ltmp464:
.Ltmp375:
	jmp	.LBB32_33
.Ltmp465:
.LBB32_33:                              # %invoke.cont58
                                        #   in Loop: Header=BB32_20 Depth=1
	#DEBUG_VALUE: i <- [DW_OP_plus_uconst 80] [$rsp+0]
	#DEBUG_VALUE: buf <- $r15
	#DEBUG_VALUE: totalSize <- $r12
	#DEBUG_VALUE: Extract:testMode <- [DW_OP_plus_uconst 16] [$rsp+0]
	#DEBUG_VALUE: Extract:extractCallback <- [DW_OP_plus_uconst 8] [$rsp+0]
	.loc	4 388 5 is_stmt 0       # /home/chris/test-suite/MultiSource/Benchmarks/7zip/CPP/7zip/Archive/SwfHandler.cpp:388:5
	testl	%r13d, %r13d
	je	.LBB32_37
.Ltmp466:
# %bb.34:
	#DEBUG_VALUE: i <- [DW_OP_plus_uconst 80] [$rsp+0]
	#DEBUG_VALUE: buf <- $r15
	#DEBUG_VALUE: totalSize <- $r12
	#DEBUG_VALUE: Extract:testMode <- [DW_OP_plus_uconst 16] [$rsp+0]
	#DEBUG_VALUE: Extract:extractCallback <- [DW_OP_plus_uconst 8] [$rsp+0]
	#DEBUG_VALUE: __result__ <- $r13d
	.loc	4 0 5                   # /home/chris/test-suite/MultiSource/Benchmarks/7zip/CPP/7zip/Archive/SwfHandler.cpp:0:5
	jmp	.LBB32_56
.Ltmp467:
.LBB32_35:                              # %lpad43
	#DEBUG_VALUE: i <- [DW_OP_plus_uconst 80] [$rsp+0]
	#DEBUG_VALUE: index <- $r13d
	#DEBUG_VALUE: totalSize <- $r12
	#DEBUG_VALUE: Extract:testMode <- [DW_OP_plus_uconst 16] [$rsp+0]
	#DEBUG_VALUE: Extract:extractCallback <- [DW_OP_plus_uconst 8] [$rsp+0]
.Ltmp373:
	movq	%rdx, %rbx
	movq	%rax, %rbp
	.loc	4 400 1 is_stmt 1       # /home/chris/test-suite/MultiSource/Benchmarks/7zip/CPP/7zip/Archive/SwfHandler.cpp:400:1
	jmp	.LBB32_59
.Ltmp468:
.LBB32_36:                              # %lpad53
	#DEBUG_VALUE: i <- [DW_OP_plus_uconst 80] [$rsp+0]
	#DEBUG_VALUE: buf <- $r15
	#DEBUG_VALUE: totalSize <- $r12
	#DEBUG_VALUE: Extract:testMode <- [DW_OP_plus_uconst 16] [$rsp+0]
	#DEBUG_VALUE: Extract:extractCallback <- [DW_OP_plus_uconst 8] [$rsp+0]
.Ltmp376:
	.loc	4 0 1 is_stmt 0         # /home/chris/test-suite/MultiSource/Benchmarks/7zip/CPP/7zip/Archive/SwfHandler.cpp:0:1
	movq	%rdx, %rbx
	movq	%rax, %rbp
	.loc	4 388 5 is_stmt 1       # /home/chris/test-suite/MultiSource/Benchmarks/7zip/CPP/7zip/Archive/SwfHandler.cpp:388:5
	jmp	.LBB32_57
.Ltmp469:
.LBB32_37:                              # %cleanup.cont65
                                        #   in Loop: Header=BB32_20 Depth=1
	#DEBUG_VALUE: i <- [DW_OP_plus_uconst 80] [$rsp+0]
	#DEBUG_VALUE: buf <- $r15
	#DEBUG_VALUE: totalSize <- $r12
	#DEBUG_VALUE: Extract:testMode <- [DW_OP_plus_uconst 16] [$rsp+0]
	#DEBUG_VALUE: Extract:extractCallback <- [DW_OP_plus_uconst 8] [$rsp+0]
	.loc	4 0 0 is_stmt 0         # /home/chris/test-suite/MultiSource/Benchmarks/7zip/CPP/7zip/Archive/SwfHandler.cpp:0:0
	cmpl	$0, 16(%rsp)            # 4-byte Folded Reload
	movq	%r14, %rbx
.Ltmp470:
	.loc	4 389 19 is_stmt 1      # /home/chris/test-suite/MultiSource/Benchmarks/7zip/CPP/7zip/Archive/SwfHandler.cpp:389:19
	jne	.LBB32_40
	jmp	.LBB32_38
.Ltmp471:
.LBB32_38:                              # %land.lhs.true
                                        #   in Loop: Header=BB32_20 Depth=1
	#DEBUG_VALUE: i <- [DW_OP_plus_uconst 80] [$rsp+0]
	#DEBUG_VALUE: buf <- $r15
	#DEBUG_VALUE: totalSize <- $r12
	#DEBUG_VALUE: Extract:testMode <- [DW_OP_plus_uconst 16] [$rsp+0]
	#DEBUG_VALUE: Extract:extractCallback <- [DW_OP_plus_uconst 8] [$rsp+0]
	.loc	4 389 22 is_stmt 0      # /home/chris/test-suite/MultiSource/Benchmarks/7zip/CPP/7zip/Archive/SwfHandler.cpp:389:22
	movq	%rbx, %rdi
	callq	_ZNK9CMyComPtrI20ISequentialOutStreamEntEv
.Ltmp472:
	.loc	4 389 9                 # /home/chris/test-suite/MultiSource/Benchmarks/7zip/CPP/7zip/Archive/SwfHandler.cpp:389:9
	testb	%al, %al
	jne	.LBB32_54
	jmp	.LBB32_40
.Ltmp473:
.LBB32_39:                              # %lpad67
	#DEBUG_VALUE: i <- [DW_OP_plus_uconst 80] [$rsp+0]
	#DEBUG_VALUE: buf <- $r15
	#DEBUG_VALUE: totalSize <- $r12
	#DEBUG_VALUE: Extract:testMode <- [DW_OP_plus_uconst 16] [$rsp+0]
	#DEBUG_VALUE: Extract:extractCallback <- [DW_OP_plus_uconst 8] [$rsp+0]
.Ltmp385:
	.loc	4 0 9                   # /home/chris/test-suite/MultiSource/Benchmarks/7zip/CPP/7zip/Archive/SwfHandler.cpp:0:9
	movq	%rdx, %rbx
	movq	%rax, %rbp
.Ltmp474:
	.loc	4 400 1 is_stmt 1       # /home/chris/test-suite/MultiSource/Benchmarks/7zip/CPP/7zip/Archive/SwfHandler.cpp:400:1
	jmp	.LBB32_57
.Ltmp475:
.LBB32_40:                              # %if.end71
                                        #   in Loop: Header=BB32_20 Depth=1
	#DEBUG_VALUE: i <- [DW_OP_plus_uconst 80] [$rsp+0]
	#DEBUG_VALUE: buf <- $r15
	#DEBUG_VALUE: totalSize <- $r12
	#DEBUG_VALUE: Extract:testMode <- [DW_OP_plus_uconst 16] [$rsp+0]
	#DEBUG_VALUE: Extract:extractCallback <- [DW_OP_plus_uconst 8] [$rsp+0]
	.loc	4 0 1 is_stmt 0         # /home/chris/test-suite/MultiSource/Benchmarks/7zip/CPP/7zip/Archive/SwfHandler.cpp:0:1
	movq	8(%rsp), %rdi           # 8-byte Reload
.Ltmp476:
	.loc	4 392 5 is_stmt 1       # /home/chris/test-suite/MultiSource/Benchmarks/7zip/CPP/7zip/Archive/SwfHandler.cpp:392:5
	movq	(%rdi), %rax
.Ltmp377:
	movl	20(%rsp), %esi          # 4-byte Reload
	callq	*64(%rax)
	movl	%eax, %r13d
.Ltmp378:
	jmp	.LBB32_41
.Ltmp477:
.LBB32_41:                              # %invoke.cont76
                                        #   in Loop: Header=BB32_20 Depth=1
	#DEBUG_VALUE: i <- [DW_OP_plus_uconst 80] [$rsp+0]
	#DEBUG_VALUE: buf <- $r15
	#DEBUG_VALUE: totalSize <- $r12
	#DEBUG_VALUE: Extract:testMode <- [DW_OP_plus_uconst 16] [$rsp+0]
	#DEBUG_VALUE: Extract:extractCallback <- [DW_OP_plus_uconst 8] [$rsp+0]
	.loc	4 392 5 is_stmt 0       # /home/chris/test-suite/MultiSource/Benchmarks/7zip/CPP/7zip/Archive/SwfHandler.cpp:392:5
	testl	%r13d, %r13d
	je	.LBB32_44
.Ltmp478:
# %bb.42:
	#DEBUG_VALUE: i <- [DW_OP_plus_uconst 80] [$rsp+0]
	#DEBUG_VALUE: buf <- $r15
	#DEBUG_VALUE: totalSize <- $r12
	#DEBUG_VALUE: Extract:testMode <- [DW_OP_plus_uconst 16] [$rsp+0]
	#DEBUG_VALUE: Extract:extractCallback <- [DW_OP_plus_uconst 8] [$rsp+0]
	#DEBUG_VALUE: __result__ <- $r13d
	.loc	4 0 5                   # /home/chris/test-suite/MultiSource/Benchmarks/7zip/CPP/7zip/Archive/SwfHandler.cpp:0:5
	jmp	.LBB32_56
.Ltmp479:
.LBB32_43:                              # %lpad75
	#DEBUG_VALUE: i <- [DW_OP_plus_uconst 80] [$rsp+0]
	#DEBUG_VALUE: buf <- $r15
	#DEBUG_VALUE: totalSize <- $r12
	#DEBUG_VALUE: Extract:testMode <- [DW_OP_plus_uconst 16] [$rsp+0]
	#DEBUG_VALUE: Extract:extractCallback <- [DW_OP_plus_uconst 8] [$rsp+0]
.Ltmp379:
	movq	%rdx, %rbx
	movq	%rax, %rbp
	.loc	4 392 5                 # /home/chris/test-suite/MultiSource/Benchmarks/7zip/CPP/7zip/Archive/SwfHandler.cpp:392:5
	jmp	.LBB32_57
.Ltmp480:
.LBB32_44:                              # %cleanup.cont83
                                        #   in Loop: Header=BB32_20 Depth=1
	#DEBUG_VALUE: i <- [DW_OP_plus_uconst 80] [$rsp+0]
	#DEBUG_VALUE: buf <- $r15
	#DEBUG_VALUE: totalSize <- $r12
	#DEBUG_VALUE: Extract:testMode <- [DW_OP_plus_uconst 16] [$rsp+0]
	#DEBUG_VALUE: Extract:extractCallback <- [DW_OP_plus_uconst 8] [$rsp+0]
	.loc	4 393 9 is_stmt 1       # /home/chris/test-suite/MultiSource/Benchmarks/7zip/CPP/7zip/Archive/SwfHandler.cpp:393:9
	movq	%rbx, %rdi
	callq	_ZNK9CMyComPtrI20ISequentialOutStreamEcvPS0_Ev
	testq	%rax, %rax
.Ltmp481:
	.loc	4 393 9 is_stmt 0       # /home/chris/test-suite/MultiSource/Benchmarks/7zip/CPP/7zip/Archive/SwfHandler.cpp:393:9
	je	.LBB32_49
	jmp	.LBB32_45
.Ltmp482:
.LBB32_45:                              # %if.then87
                                        #   in Loop: Header=BB32_20 Depth=1
	#DEBUG_VALUE: i <- [DW_OP_plus_uconst 80] [$rsp+0]
	#DEBUG_VALUE: buf <- $r15
	#DEBUG_VALUE: totalSize <- $r12
	#DEBUG_VALUE: Extract:testMode <- [DW_OP_plus_uconst 16] [$rsp+0]
	#DEBUG_VALUE: Extract:extractCallback <- [DW_OP_plus_uconst 8] [$rsp+0]
	.loc	4 394 7 is_stmt 1       # /home/chris/test-suite/MultiSource/Benchmarks/7zip/CPP/7zip/Archive/SwfHandler.cpp:394:7
	movq	%rbx, %rdi
	callq	_ZNK9CMyComPtrI20ISequentialOutStreamEcvPS0_Ev
	movq	%rax, %r13
	movq	%r15, %rdi
	callq	_ZNK7CBufferIhEcvPKhEv
	movq	%rax, %rbx
	movq	%r15, %rdi
	callq	_ZNK7CBufferIhE11GetCapacityEv
.Ltmp380:
	movq	%r13, %rdi
	movq	%rbx, %rsi
	movq	%rax, %rdx
	callq	_Z11WriteStreamP20ISequentialOutStreamPKvm
	movl	%eax, %r13d
.Ltmp381:
	jmp	.LBB32_46
.Ltmp483:
.LBB32_46:                              # %invoke.cont96
                                        #   in Loop: Header=BB32_20 Depth=1
	#DEBUG_VALUE: i <- [DW_OP_plus_uconst 80] [$rsp+0]
	#DEBUG_VALUE: buf <- $r15
	#DEBUG_VALUE: totalSize <- $r12
	#DEBUG_VALUE: Extract:testMode <- [DW_OP_plus_uconst 16] [$rsp+0]
	#DEBUG_VALUE: Extract:extractCallback <- [DW_OP_plus_uconst 8] [$rsp+0]
	.loc	4 394 7 is_stmt 0       # /home/chris/test-suite/MultiSource/Benchmarks/7zip/CPP/7zip/Archive/SwfHandler.cpp:394:7
	testl	%r13d, %r13d
	movq	%r14, %rbx
	je	.LBB32_49
.Ltmp484:
# %bb.47:
	#DEBUG_VALUE: i <- [DW_OP_plus_uconst 80] [$rsp+0]
	#DEBUG_VALUE: buf <- $r15
	#DEBUG_VALUE: totalSize <- $r12
	#DEBUG_VALUE: Extract:testMode <- [DW_OP_plus_uconst 16] [$rsp+0]
	#DEBUG_VALUE: Extract:extractCallback <- [DW_OP_plus_uconst 8] [$rsp+0]
	#DEBUG_VALUE: __result__ <- $r13d
	.loc	4 0 7                   # /home/chris/test-suite/MultiSource/Benchmarks/7zip/CPP/7zip/Archive/SwfHandler.cpp:0:7
	jmp	.LBB32_56
.Ltmp485:
.LBB32_48:                              # %lpad89
	#DEBUG_VALUE: i <- [DW_OP_plus_uconst 80] [$rsp+0]
	#DEBUG_VALUE: buf <- $r15
	#DEBUG_VALUE: totalSize <- $r12
	#DEBUG_VALUE: Extract:testMode <- [DW_OP_plus_uconst 16] [$rsp+0]
	#DEBUG_VALUE: Extract:extractCallback <- [DW_OP_plus_uconst 8] [$rsp+0]
.Ltmp382:
	movq	%rdx, %rbx
	movq	%rax, %rbp
	.loc	4 394 7                 # /home/chris/test-suite/MultiSource/Benchmarks/7zip/CPP/7zip/Archive/SwfHandler.cpp:394:7
	jmp	.LBB32_57
.Ltmp486:
.LBB32_49:                              # %if.end104
                                        #   in Loop: Header=BB32_20 Depth=1
	#DEBUG_VALUE: i <- [DW_OP_plus_uconst 80] [$rsp+0]
	#DEBUG_VALUE: buf <- $r15
	#DEBUG_VALUE: totalSize <- $r12
	#DEBUG_VALUE: Extract:testMode <- [DW_OP_plus_uconst 16] [$rsp+0]
	#DEBUG_VALUE: Extract:extractCallback <- [DW_OP_plus_uconst 8] [$rsp+0]
.Ltmp383:
	.loc	4 395 15 is_stmt 1      # /home/chris/test-suite/MultiSource/Benchmarks/7zip/CPP/7zip/Archive/SwfHandler.cpp:395:15
	movq	%rbx, %rdi
	callq	_ZN9CMyComPtrI20ISequentialOutStreamE7ReleaseEv
.Ltmp384:
	jmp	.LBB32_50
.Ltmp487:
.LBB32_50:                              # %invoke.cont105
                                        #   in Loop: Header=BB32_20 Depth=1
	#DEBUG_VALUE: i <- [DW_OP_plus_uconst 80] [$rsp+0]
	#DEBUG_VALUE: buf <- $r15
	#DEBUG_VALUE: totalSize <- $r12
	#DEBUG_VALUE: Extract:testMode <- [DW_OP_plus_uconst 16] [$rsp+0]
	#DEBUG_VALUE: Extract:extractCallback <- [DW_OP_plus_uconst 8] [$rsp+0]
	.loc	4 0 15 is_stmt 0        # /home/chris/test-suite/MultiSource/Benchmarks/7zip/CPP/7zip/Archive/SwfHandler.cpp:0:15
	movq	8(%rsp), %rdi           # 8-byte Reload
.Ltmp488:
	.loc	4 396 5 is_stmt 1       # /home/chris/test-suite/MultiSource/Benchmarks/7zip/CPP/7zip/Archive/SwfHandler.cpp:396:5
	movq	(%rdi), %rax
.Ltmp386:
	xorl	%esi, %esi
	callq	*72(%rax)
	movl	%eax, %r13d
.Ltmp387:
	jmp	.LBB32_51
.Ltmp489:
.LBB32_51:                              # %invoke.cont110
                                        #   in Loop: Header=BB32_20 Depth=1
	#DEBUG_VALUE: i <- [DW_OP_plus_uconst 80] [$rsp+0]
	#DEBUG_VALUE: buf <- $r15
	#DEBUG_VALUE: totalSize <- $r12
	#DEBUG_VALUE: Extract:testMode <- [DW_OP_plus_uconst 16] [$rsp+0]
	#DEBUG_VALUE: Extract:extractCallback <- [DW_OP_plus_uconst 8] [$rsp+0]
	.loc	4 396 5 is_stmt 0       # /home/chris/test-suite/MultiSource/Benchmarks/7zip/CPP/7zip/Archive/SwfHandler.cpp:396:5
	testl	%r13d, %r13d
	je	.LBB32_54
.Ltmp490:
# %bb.52:
	#DEBUG_VALUE: i <- [DW_OP_plus_uconst 80] [$rsp+0]
	#DEBUG_VALUE: buf <- $r15
	#DEBUG_VALUE: totalSize <- $r12
	#DEBUG_VALUE: Extract:testMode <- [DW_OP_plus_uconst 16] [$rsp+0]
	#DEBUG_VALUE: Extract:extractCallback <- [DW_OP_plus_uconst 8] [$rsp+0]
	#DEBUG_VALUE: __result__ <- $r13d
	.loc	4 0 5                   # /home/chris/test-suite/MultiSource/Benchmarks/7zip/CPP/7zip/Archive/SwfHandler.cpp:0:5
	jmp	.LBB32_56
.Ltmp491:
.LBB32_53:                              # %lpad109
	#DEBUG_VALUE: i <- [DW_OP_plus_uconst 80] [$rsp+0]
	#DEBUG_VALUE: buf <- $r15
	#DEBUG_VALUE: totalSize <- $r12
	#DEBUG_VALUE: Extract:testMode <- [DW_OP_plus_uconst 16] [$rsp+0]
	#DEBUG_VALUE: Extract:extractCallback <- [DW_OP_plus_uconst 8] [$rsp+0]
.Ltmp388:
	movq	%rdx, %rbx
	movq	%rax, %rbp
	.loc	4 396 5                 # /home/chris/test-suite/MultiSource/Benchmarks/7zip/CPP/7zip/Archive/SwfHandler.cpp:396:5
	jmp	.LBB32_57
.Ltmp492:
.LBB32_54:                              # %cleanup118.thread
                                        #   in Loop: Header=BB32_20 Depth=1
	#DEBUG_VALUE: i <- [DW_OP_plus_uconst 80] [$rsp+0]
	#DEBUG_VALUE: totalSize <- $r12
	#DEBUG_VALUE: Extract:testMode <- [DW_OP_plus_uconst 16] [$rsp+0]
	#DEBUG_VALUE: Extract:extractCallback <- [DW_OP_plus_uconst 8] [$rsp+0]
	.loc	4 0 0                   # /home/chris/test-suite/MultiSource/Benchmarks/7zip/CPP/7zip/Archive/SwfHandler.cpp:0:0
	addq	%rbp, %r12
.Ltmp493:
	#DEBUG_VALUE: totalSize <- $r12
	.loc	4 397 3 is_stmt 1       # /home/chris/test-suite/MultiSource/Benchmarks/7zip/CPP/7zip/Archive/SwfHandler.cpp:397:3
	movq	%rbx, %rdi
	callq	_ZN9CMyComPtrI20ISequentialOutStreamED2Ev
	movq	80(%rsp), %rbp          # 8-byte Reload
.Ltmp494:
	#DEBUG_VALUE: i <- $rbp
	.loc	4 376 30                # /home/chris/test-suite/MultiSource/Benchmarks/7zip/CPP/7zip/Archive/SwfHandler.cpp:376:30
	addq	$1, %rbp
.Ltmp495:
	#DEBUG_VALUE: i <- $rbp
	.loc	4 376 17 is_stmt 0      # /home/chris/test-suite/MultiSource/Benchmarks/7zip/CPP/7zip/Archive/SwfHandler.cpp:376:17
	cmpq	%rbp, 24(%rsp)          # 8-byte Folded Reload
.Ltmp496:
	.loc	4 376 3                 # /home/chris/test-suite/MultiSource/Benchmarks/7zip/CPP/7zip/Archive/SwfHandler.cpp:376:3
	jne	.LBB32_20
.Ltmp497:
# %bb.55:
	#DEBUG_VALUE: totalSize <- $r12
	#DEBUG_VALUE: i <- $rbp
	#DEBUG_VALUE: Extract:testMode <- [DW_OP_plus_uconst 16] [$rsp+0]
	#DEBUG_VALUE: Extract:extractCallback <- [DW_OP_plus_uconst 8] [$rsp+0]
	.loc	4 0 3                   # /home/chris/test-suite/MultiSource/Benchmarks/7zip/CPP/7zip/Archive/SwfHandler.cpp:0:3
	xorl	%r13d, %r13d
	jmp	.LBB32_58
.Ltmp498:
.LBB32_56:                              # %cleanup118
	#DEBUG_VALUE: i <- [DW_OP_plus_uconst 80] [$rsp+0]
	#DEBUG_VALUE: totalSize <- $r12
	#DEBUG_VALUE: Extract:testMode <- [DW_OP_plus_uconst 16] [$rsp+0]
	#DEBUG_VALUE: Extract:extractCallback <- [DW_OP_plus_uconst 8] [$rsp+0]
	leaq	40(%rsp), %rdi
.Ltmp499:
	.loc	4 397 3 is_stmt 1       # /home/chris/test-suite/MultiSource/Benchmarks/7zip/CPP/7zip/Archive/SwfHandler.cpp:397:3
	callq	_ZN9CMyComPtrI20ISequentialOutStreamED2Ev
	jmp	.LBB32_58
.Ltmp500:
.LBB32_57:                              # %ehcleanup
	#DEBUG_VALUE: i <- [DW_OP_plus_uconst 80] [$rsp+0]
	#DEBUG_VALUE: totalSize <- $r12
	#DEBUG_VALUE: Extract:testMode <- [DW_OP_plus_uconst 16] [$rsp+0]
	#DEBUG_VALUE: Extract:extractCallback <- [DW_OP_plus_uconst 8] [$rsp+0]
	.loc	4 0 3 is_stmt 0         # /home/chris/test-suite/MultiSource/Benchmarks/7zip/CPP/7zip/Archive/SwfHandler.cpp:0:3
	leaq	40(%rsp), %rdi
	.loc	4 397 3                 # /home/chris/test-suite/MultiSource/Benchmarks/7zip/CPP/7zip/Archive/SwfHandler.cpp:397:3
	callq	_ZN9CMyComPtrI20ISequentialOutStreamED2Ev
	jmp	.LBB32_59
.Ltmp501:
.LBB32_58:                              # %cleanup132
	#DEBUG_VALUE: Extract:testMode <- [DW_OP_plus_uconst 16] [$rsp+0]
	#DEBUG_VALUE: Extract:extractCallback <- [DW_OP_plus_uconst 8] [$rsp+0]
	.loc	4 0 3                   # /home/chris/test-suite/MultiSource/Benchmarks/7zip/CPP/7zip/Archive/SwfHandler.cpp:0:3
	leaq	48(%rsp), %rdi
	.loc	4 399 3 is_stmt 1       # /home/chris/test-suite/MultiSource/Benchmarks/7zip/CPP/7zip/Archive/SwfHandler.cpp:399:3
	callq	_ZN9CMyComPtrI21ICompressProgressInfoED2Ev
	jmp	.LBB32_65
.Ltmp502:
.LBB32_59:                              # %ehcleanup133
	#DEBUG_VALUE: Extract:testMode <- [DW_OP_plus_uconst 16] [$rsp+0]
	#DEBUG_VALUE: Extract:extractCallback <- [DW_OP_plus_uconst 8] [$rsp+0]
	.loc	4 0 3 is_stmt 0         # /home/chris/test-suite/MultiSource/Benchmarks/7zip/CPP/7zip/Archive/SwfHandler.cpp:0:3
	leaq	48(%rsp), %rdi
	.loc	4 399 3                 # /home/chris/test-suite/MultiSource/Benchmarks/7zip/CPP/7zip/Archive/SwfHandler.cpp:399:3
	callq	_ZN9CMyComPtrI21ICompressProgressInfoED2Ev
.Ltmp503:
.LBB32_60:                              # %ehcleanup135
	#DEBUG_VALUE: Extract:testMode <- [DW_OP_plus_uconst 16] [$rsp+0]
	#DEBUG_VALUE: Extract:extractCallback <- [DW_OP_plus_uconst 8] [$rsp+0]
.LBB32_61:                              # %ehcleanup139
	#DEBUG_VALUE: Extract:testMode <- [DW_OP_plus_uconst 16] [$rsp+0]
	#DEBUG_VALUE: Extract:extractCallback <- [DW_OP_plus_uconst 8] [$rsp+0]
	.loc	4 0 0                   # /home/chris/test-suite/MultiSource/Benchmarks/7zip/CPP/7zip/Archive/SwfHandler.cpp:0:0
	movq	%rbp, %rdi
	callq	__cxa_begin_catch
	movq	%rax, %rbp
.Ltmp504:
	#DEBUG_VALUE: Extract:s <- $rbp
	.loc	4 399 3                 # /home/chris/test-suite/MultiSource/Benchmarks/7zip/CPP/7zip/Archive/SwfHandler.cpp:399:3
	cmpl	$2, %ebx
	jne	.LBB32_63
	jmp	.LBB32_62
.Ltmp505:
.LBB32_62:                              # %catch145
	#DEBUG_VALUE: Extract:s <- $rbp
	#DEBUG_VALUE: Extract:testMode <- [DW_OP_plus_uconst 16] [$rsp+0]
	#DEBUG_VALUE: Extract:extractCallback <- [DW_OP_plus_uconst 8] [$rsp+0]
	.loc	4 399 3                 # /home/chris/test-suite/MultiSource/Benchmarks/7zip/CPP/7zip/Archive/SwfHandler.cpp:399:3
	movl	$8, %edi
	callq	__cxa_allocate_exception
	movq	%rbp, (%rax)
.Ltmp389:
	movl	$_ZTIPKc, %esi
	movq	%rax, %rdi
	xorl	%edx, %edx
	callq	__cxa_throw
.Ltmp390:
	jmp	.LBB32_66
.Ltmp506:
.LBB32_63:                              # %catch
	#DEBUG_VALUE: Extract:s <- $rbp
	#DEBUG_VALUE: Extract:testMode <- [DW_OP_plus_uconst 16] [$rsp+0]
	#DEBUG_VALUE: Extract:extractCallback <- [DW_OP_plus_uconst 8] [$rsp+0]
	.loc	4 399 3                 # /home/chris/test-suite/MultiSource/Benchmarks/7zip/CPP/7zip/Archive/SwfHandler.cpp:399:3
	callq	__cxa_end_catch
	movl	$-2147024882, %r13d     # imm = 0x8007000E
	jmp	.LBB32_65
.Ltmp507:
.LBB32_64:                              # %lpad147
	#DEBUG_VALUE: Extract:s <- $rbp
	#DEBUG_VALUE: Extract:testMode <- [DW_OP_plus_uconst 16] [$rsp+0]
	#DEBUG_VALUE: Extract:extractCallback <- [DW_OP_plus_uconst 8] [$rsp+0]
.Ltmp391:
	.loc	4 0 3                   # /home/chris/test-suite/MultiSource/Benchmarks/7zip/CPP/7zip/Archive/SwfHandler.cpp:0:3
	movq	%rax, %rbx
.Ltmp508:
	.loc	4 399 3                 # /home/chris/test-suite/MultiSource/Benchmarks/7zip/CPP/7zip/Archive/SwfHandler.cpp:399:3
	callq	__cxa_end_catch
	movq	%rbx, %rdi
	callq	_Unwind_Resume
.Ltmp509:
.LBB32_65:                              # %return
	#DEBUG_VALUE: Extract:testMode <- [DW_OP_plus_uconst 16] [$rsp+0]
	#DEBUG_VALUE: Extract:extractCallback <- [DW_OP_plus_uconst 8] [$rsp+0]
	.loc	4 400 1 is_stmt 1       # /home/chris/test-suite/MultiSource/Benchmarks/7zip/CPP/7zip/Archive/SwfHandler.cpp:400:1
	movl	%r13d, %eax
	addq	$88, %rsp
	.cfi_def_cfa_offset 56
	popq	%rbx
	.cfi_def_cfa_offset 48
	popq	%r12
	.cfi_def_cfa_offset 40
	popq	%r13
	.cfi_def_cfa_offset 32
	popq	%r14
	.cfi_def_cfa_offset 24
	popq	%r15
	.cfi_def_cfa_offset 16
	popq	%rbp
	.cfi_def_cfa_offset 8
	retq
.Ltmp510:
.LBB32_66:                              # %unreachable
	#DEBUG_VALUE: Extract:s <- $rbp
	#DEBUG_VALUE: Extract:testMode <- [DW_OP_plus_uconst 16] [$rsp+0]
	#DEBUG_VALUE: Extract:extractCallback <- [DW_OP_plus_uconst 8] [$rsp+0]
.Lfunc_end32:
	.size	_ZN8NArchive4NSwf8CHandler7ExtractEPKjjiP23IArchiveExtractCallback, .Lfunc_end32-_ZN8NArchive4NSwf8CHandler7ExtractEPKjjiP23IArchiveExtractCallback
	.cfi_endproc
	.section	.gcc_except_table,"a",@progbits
	.p2align	2
GCC_except_table32:
.Lexception7:
	.byte	255                     # @LPStart Encoding = omit
	.byte	3                       # @TType Encoding = udata4
	.uleb128 .Lttbase3-.Lttbaseref3
.Lttbaseref3:
	.byte	1                       # Call site Encoding = uleb128
	.uleb128 .Lcst_end7-.Lcst_begin7
.Lcst_begin7:
	.uleb128 .Ltmp350-.Lfunc_begin32 # >> Call Site 1 <<
	.uleb128 .Ltmp351-.Ltmp350      #   Call between .Ltmp350 and .Ltmp351
	.uleb128 .Ltmp352-.Lfunc_begin32 #     jumps to .Ltmp352
	.byte	3                       #   On action: 2
	.uleb128 .Ltmp353-.Lfunc_begin32 # >> Call Site 2 <<
	.uleb128 .Ltmp354-.Ltmp353      #   Call between .Ltmp353 and .Ltmp354
	.uleb128 .Ltmp355-.Lfunc_begin32 #     jumps to .Ltmp355
	.byte	3                       #   On action: 2
	.uleb128 .Ltmp356-.Lfunc_begin32 # >> Call Site 3 <<
	.uleb128 .Ltmp357-.Ltmp356      #   Call between .Ltmp356 and .Ltmp357
	.uleb128 .Ltmp358-.Lfunc_begin32 #     jumps to .Ltmp358
	.byte	3                       #   On action: 2
	.uleb128 .Ltmp359-.Lfunc_begin32 # >> Call Site 4 <<
	.uleb128 .Ltmp360-.Ltmp359      #   Call between .Ltmp359 and .Ltmp360
	.uleb128 .Ltmp361-.Lfunc_begin32 #     jumps to .Ltmp361
	.byte	3                       #   On action: 2
	.uleb128 .Ltmp362-.Lfunc_begin32 # >> Call Site 5 <<
	.uleb128 .Ltmp363-.Ltmp362      #   Call between .Ltmp362 and .Ltmp363
	.uleb128 .Ltmp364-.Lfunc_begin32 #     jumps to .Ltmp364
	.byte	3                       #   On action: 2
	.uleb128 .Ltmp365-.Lfunc_begin32 # >> Call Site 6 <<
	.uleb128 .Ltmp366-.Ltmp365      #   Call between .Ltmp365 and .Ltmp366
	.uleb128 .Ltmp367-.Lfunc_begin32 #     jumps to .Ltmp367
	.byte	3                       #   On action: 2
	.uleb128 .Ltmp368-.Lfunc_begin32 # >> Call Site 7 <<
	.uleb128 .Ltmp369-.Ltmp368      #   Call between .Ltmp368 and .Ltmp369
	.uleb128 .Ltmp370-.Lfunc_begin32 #     jumps to .Ltmp370
	.byte	3                       #   On action: 2
	.uleb128 .Ltmp371-.Lfunc_begin32 # >> Call Site 8 <<
	.uleb128 .Ltmp372-.Ltmp371      #   Call between .Ltmp371 and .Ltmp372
	.uleb128 .Ltmp373-.Lfunc_begin32 #     jumps to .Ltmp373
	.byte	3                       #   On action: 2
	.uleb128 .Ltmp374-.Lfunc_begin32 # >> Call Site 9 <<
	.uleb128 .Ltmp375-.Ltmp374      #   Call between .Ltmp374 and .Ltmp375
	.uleb128 .Ltmp376-.Lfunc_begin32 #     jumps to .Ltmp376
	.byte	3                       #   On action: 2
	.uleb128 .Ltmp377-.Lfunc_begin32 # >> Call Site 10 <<
	.uleb128 .Ltmp378-.Ltmp377      #   Call between .Ltmp377 and .Ltmp378
	.uleb128 .Ltmp379-.Lfunc_begin32 #     jumps to .Ltmp379
	.byte	3                       #   On action: 2
	.uleb128 .Ltmp380-.Lfunc_begin32 # >> Call Site 11 <<
	.uleb128 .Ltmp381-.Ltmp380      #   Call between .Ltmp380 and .Ltmp381
	.uleb128 .Ltmp382-.Lfunc_begin32 #     jumps to .Ltmp382
	.byte	3                       #   On action: 2
	.uleb128 .Ltmp383-.Lfunc_begin32 # >> Call Site 12 <<
	.uleb128 .Ltmp384-.Ltmp383      #   Call between .Ltmp383 and .Ltmp384
	.uleb128 .Ltmp385-.Lfunc_begin32 #     jumps to .Ltmp385
	.byte	3                       #   On action: 2
	.uleb128 .Ltmp386-.Lfunc_begin32 # >> Call Site 13 <<
	.uleb128 .Ltmp387-.Ltmp386      #   Call between .Ltmp386 and .Ltmp387
	.uleb128 .Ltmp388-.Lfunc_begin32 #     jumps to .Ltmp388
	.byte	3                       #   On action: 2
	.uleb128 .Ltmp387-.Lfunc_begin32 # >> Call Site 14 <<
	.uleb128 .Ltmp389-.Ltmp387      #   Call between .Ltmp387 and .Ltmp389
	.byte	0                       #     has no landing pad
	.byte	0                       #   On action: cleanup
	.uleb128 .Ltmp389-.Lfunc_begin32 # >> Call Site 15 <<
	.uleb128 .Ltmp390-.Ltmp389      #   Call between .Ltmp389 and .Ltmp390
	.uleb128 .Ltmp391-.Lfunc_begin32 #     jumps to .Ltmp391
	.byte	0                       #   On action: cleanup
	.uleb128 .Ltmp390-.Lfunc_begin32 # >> Call Site 16 <<
	.uleb128 .Lfunc_end32-.Ltmp390  #   Call between .Ltmp390 and .Lfunc_end32
	.byte	0                       #     has no landing pad
	.byte	0                       #   On action: cleanup
.Lcst_end7:
	.byte	1                       # >> Action Record 1 <<
                                        #   Catch TypeInfo 1
	.byte	0                       #   No further actions
	.byte	2                       # >> Action Record 2 <<
                                        #   Catch TypeInfo 2
	.byte	125                     #   Continue to action 1
	.p2align	2
                                        # >> Catch TypeInfos <<
	.long	_ZTIPKc                 # TypeInfo 2
	.long	0                       # TypeInfo 1
.Lttbase3:
	.p2align	2
                                        # -- End function
	.section	.text._ZN9CMyComPtrI21ICompressProgressInfoEC2EPS0_,"axG",@progbits,_ZN9CMyComPtrI21ICompressProgressInfoEC2EPS0_,comdat
	.weak	_ZN9CMyComPtrI21ICompressProgressInfoEC2EPS0_ # -- Begin function _ZN9CMyComPtrI21ICompressProgressInfoEC2EPS0_
	.p2align	4, 0x90
	.type	_ZN9CMyComPtrI21ICompressProgressInfoEC2EPS0_,@function
_ZN9CMyComPtrI21ICompressProgressInfoEC2EPS0_: # @_ZN9CMyComPtrI21ICompressProgressInfoEC2EPS0_
.Lfunc_begin33:
	.loc	20 19 0                 # /home/chris/test-suite/MultiSource/Benchmarks/7zip/CPP/Common/MyCom.h:19:0
	.cfi_startproc
# %bb.0:                                # %entry
	#DEBUG_VALUE: CMyComPtr:this <- $rdi
	#DEBUG_VALUE: CMyComPtr:p <- $rsi
	.loc	20 19 28 prologue_end   # /home/chris/test-suite/MultiSource/Benchmarks/7zip/CPP/Common/MyCom.h:19:28
	movq	%rsi, (%rdi)
	.loc	20 19 33 is_stmt 0      # /home/chris/test-suite/MultiSource/Benchmarks/7zip/CPP/Common/MyCom.h:19:33
	cmpq	$0, %rsi
.Ltmp511:
	.loc	20 19 24                # /home/chris/test-suite/MultiSource/Benchmarks/7zip/CPP/Common/MyCom.h:19:24
	je	.LBB33_2
.Ltmp512:
# %bb.1:                                # %if.then
	#DEBUG_VALUE: CMyComPtr:p <- $rsi
	#DEBUG_VALUE: CMyComPtr:this <- $rdi
	.loc	20 19 45                # /home/chris/test-suite/MultiSource/Benchmarks/7zip/CPP/Common/MyCom.h:19:45
	movq	(%rsi), %rax
	movq	8(%rax), %rax
	movq	%rsi, %rdi
.Ltmp513:
	jmpq	*%rax                   # TAILCALL
.Ltmp514:
.LBB33_2:                               # %if.end
	#DEBUG_VALUE: CMyComPtr:p <- $rsi
	#DEBUG_VALUE: CMyComPtr:this <- $rdi
	.loc	20 19 55                # /home/chris/test-suite/MultiSource/Benchmarks/7zip/CPP/Common/MyCom.h:19:55
	retq
.Ltmp515:
.Lfunc_end33:
	.size	_ZN9CMyComPtrI21ICompressProgressInfoEC2EPS0_, .Lfunc_end33-_ZN9CMyComPtrI21ICompressProgressInfoEC2EPS0_
	.cfi_endproc
                                        # -- End function
	.section	.text._ZN9CMyComPtrI20ISequentialOutStreamEC2Ev,"axG",@progbits,_ZN9CMyComPtrI20ISequentialOutStreamEC2Ev,comdat
	.weak	_ZN9CMyComPtrI20ISequentialOutStreamEC2Ev # -- Begin function _ZN9CMyComPtrI20ISequentialOutStreamEC2Ev
	.p2align	4, 0x90
	.type	_ZN9CMyComPtrI20ISequentialOutStreamEC2Ev,@function
_ZN9CMyComPtrI20ISequentialOutStreamEC2Ev: # @_ZN9CMyComPtrI20ISequentialOutStreamEC2Ev
.Lfunc_begin34:
	.loc	20 18 0 is_stmt 1       # /home/chris/test-suite/MultiSource/Benchmarks/7zip/CPP/Common/MyCom.h:18:0
	.cfi_startproc
# %bb.0:                                # %entry
	#DEBUG_VALUE: CMyComPtr:this <- $rdi
	.loc	20 18 20 prologue_end   # /home/chris/test-suite/MultiSource/Benchmarks/7zip/CPP/Common/MyCom.h:18:20
	movq	$0, (%rdi)
.Ltmp516:
	.loc	20 18 27 is_stmt 0      # /home/chris/test-suite/MultiSource/Benchmarks/7zip/CPP/Common/MyCom.h:18:27
	retq
.Ltmp517:
.Lfunc_end34:
	.size	_ZN9CMyComPtrI20ISequentialOutStreamEC2Ev, .Lfunc_end34-_ZN9CMyComPtrI20ISequentialOutStreamEC2Ev
	.cfi_endproc
                                        # -- End function
	.section	.text._ZN9CMyComPtrI20ISequentialOutStreamEadEv,"axG",@progbits,_ZN9CMyComPtrI20ISequentialOutStreamEadEv,comdat
	.weak	_ZN9CMyComPtrI20ISequentialOutStreamEadEv # -- Begin function _ZN9CMyComPtrI20ISequentialOutStreamEadEv
	.p2align	4, 0x90
	.type	_ZN9CMyComPtrI20ISequentialOutStreamEadEv,@function
_ZN9CMyComPtrI20ISequentialOutStreamEadEv: # @_ZN9CMyComPtrI20ISequentialOutStreamEadEv
.Lfunc_begin35:
	.loc	20 29 0 is_stmt 1       # /home/chris/test-suite/MultiSource/Benchmarks/7zip/CPP/Common/MyCom.h:29:0
	.cfi_startproc
# %bb.0:                                # %entry
	movq	%rdi, %rax
.Ltmp518:
	#DEBUG_VALUE: operator&:this <- $rax
	.loc	20 29 21 prologue_end   # /home/chris/test-suite/MultiSource/Benchmarks/7zip/CPP/Common/MyCom.h:29:21
	retq
.Ltmp519:
.Lfunc_end35:
	.size	_ZN9CMyComPtrI20ISequentialOutStreamEadEv, .Lfunc_end35-_ZN9CMyComPtrI20ISequentialOutStreamEadEv
	.cfi_endproc
                                        # -- End function
	.section	.text._ZNK9CMyComPtrI20ISequentialOutStreamEntEv,"axG",@progbits,_ZNK9CMyComPtrI20ISequentialOutStreamEntEv,comdat
	.weak	_ZNK9CMyComPtrI20ISequentialOutStreamEntEv # -- Begin function _ZNK9CMyComPtrI20ISequentialOutStreamEntEv
	.p2align	4, 0x90
	.type	_ZNK9CMyComPtrI20ISequentialOutStreamEntEv,@function
_ZNK9CMyComPtrI20ISequentialOutStreamEntEv: # @_ZNK9CMyComPtrI20ISequentialOutStreamEntEv
.Lfunc_begin36:
	.loc	20 41 0                 # /home/chris/test-suite/MultiSource/Benchmarks/7zip/CPP/Common/MyCom.h:41:0
	.cfi_startproc
# %bb.0:                                # %entry
	#DEBUG_VALUE: operator!:this <- $rdi
	.loc	20 41 39 prologue_end   # /home/chris/test-suite/MultiSource/Benchmarks/7zip/CPP/Common/MyCom.h:41:39
	cmpq	$0, (%rdi)
	sete	%al
	.loc	20 41 28 is_stmt 0      # /home/chris/test-suite/MultiSource/Benchmarks/7zip/CPP/Common/MyCom.h:41:28
	andb	$1, %al
	movzbl	%al, %eax
	retq
.Ltmp520:
.Lfunc_end36:
	.size	_ZNK9CMyComPtrI20ISequentialOutStreamEntEv, .Lfunc_end36-_ZNK9CMyComPtrI20ISequentialOutStreamEntEv
	.cfi_endproc
                                        # -- End function
	.section	.text._ZNK9CMyComPtrI20ISequentialOutStreamEcvPS0_Ev,"axG",@progbits,_ZNK9CMyComPtrI20ISequentialOutStreamEcvPS0_Ev,comdat
	.weak	_ZNK9CMyComPtrI20ISequentialOutStreamEcvPS0_Ev # -- Begin function _ZNK9CMyComPtrI20ISequentialOutStreamEcvPS0_Ev
	.p2align	4, 0x90
	.type	_ZNK9CMyComPtrI20ISequentialOutStreamEcvPS0_Ev,@function
_ZNK9CMyComPtrI20ISequentialOutStreamEcvPS0_Ev: # @_ZNK9CMyComPtrI20ISequentialOutStreamEcvPS0_Ev
.Lfunc_begin37:
	.loc	20 27 0 is_stmt 1       # /home/chris/test-suite/MultiSource/Benchmarks/7zip/CPP/Common/MyCom.h:27:0
	.cfi_startproc
# %bb.0:                                # %entry
	#DEBUG_VALUE: operator ISequentialOutStream *:this <- $rdi
	.loc	20 27 37 prologue_end   # /home/chris/test-suite/MultiSource/Benchmarks/7zip/CPP/Common/MyCom.h:27:37
	movq	(%rdi), %rax
	.loc	20 27 26 is_stmt 0      # /home/chris/test-suite/MultiSource/Benchmarks/7zip/CPP/Common/MyCom.h:27:26
	retq
.Ltmp521:
.Lfunc_end37:
	.size	_ZNK9CMyComPtrI20ISequentialOutStreamEcvPS0_Ev, .Lfunc_end37-_ZNK9CMyComPtrI20ISequentialOutStreamEcvPS0_Ev
	.cfi_endproc
                                        # -- End function
	.section	.text._ZNK7CBufferIhEcvPKhEv,"axG",@progbits,_ZNK7CBufferIhEcvPKhEv,comdat
	.weak	_ZNK7CBufferIhEcvPKhEv  # -- Begin function _ZNK7CBufferIhEcvPKhEv
	.p2align	4, 0x90
	.type	_ZNK7CBufferIhEcvPKhEv,@function
_ZNK7CBufferIhEcvPKhEv:                 # @_ZNK7CBufferIhEcvPKhEv
.Lfunc_begin38:
	.loc	9 25 0 is_stmt 1        # /home/chris/test-suite/MultiSource/Benchmarks/7zip/CPP/Common/Buffer.h:25:0
	.cfi_startproc
# %bb.0:                                # %entry
	#DEBUG_VALUE: operator const unsigned char *:this <- $rdi
	.loc	9 25 39 prologue_end    # /home/chris/test-suite/MultiSource/Benchmarks/7zip/CPP/Common/Buffer.h:25:39
	movq	16(%rdi), %rax
	.loc	9 25 32 is_stmt 0       # /home/chris/test-suite/MultiSource/Benchmarks/7zip/CPP/Common/Buffer.h:25:32
	retq
.Ltmp522:
.Lfunc_end38:
	.size	_ZNK7CBufferIhEcvPKhEv, .Lfunc_end38-_ZNK7CBufferIhEcvPKhEv
	.cfi_endproc
                                        # -- End function
	.section	.text._ZN9CMyComPtrI20ISequentialOutStreamE7ReleaseEv,"axG",@progbits,_ZN9CMyComPtrI20ISequentialOutStreamE7ReleaseEv,comdat
	.weak	_ZN9CMyComPtrI20ISequentialOutStreamE7ReleaseEv # -- Begin function _ZN9CMyComPtrI20ISequentialOutStreamE7ReleaseEv
	.p2align	4, 0x90
	.type	_ZN9CMyComPtrI20ISequentialOutStreamE7ReleaseEv,@function
_ZN9CMyComPtrI20ISequentialOutStreamE7ReleaseEv: # @_ZN9CMyComPtrI20ISequentialOutStreamE7ReleaseEv
.Lfunc_begin39:
	.loc	20 26 0 is_stmt 1       # /home/chris/test-suite/MultiSource/Benchmarks/7zip/CPP/Common/MyCom.h:26:0
	.cfi_startproc
# %bb.0:                                # %entry
	pushq	%rbx
	.cfi_def_cfa_offset 16
	.cfi_offset %rbx, -16
	movq	%rdi, %rbx
.Ltmp523:
	#DEBUG_VALUE: Release:this <- $rbx
	.loc	20 26 24 prologue_end   # /home/chris/test-suite/MultiSource/Benchmarks/7zip/CPP/Common/MyCom.h:26:24
	movq	(%rbx), %rdi
	cmpq	$0, %rdi
.Ltmp524:
	.loc	20 26 24 is_stmt 0      # /home/chris/test-suite/MultiSource/Benchmarks/7zip/CPP/Common/MyCom.h:26:24
	je	.LBB39_2
.Ltmp525:
# %bb.1:                                # %if.then
	#DEBUG_VALUE: Release:this <- $rbx
	.loc	20 26 34                # /home/chris/test-suite/MultiSource/Benchmarks/7zip/CPP/Common/MyCom.h:26:34
	movq	(%rdi), %rax
	callq	*16(%rax)
	.loc	20 26 48                # /home/chris/test-suite/MultiSource/Benchmarks/7zip/CPP/Common/MyCom.h:26:48
	movq	$0, (%rbx)
.Ltmp526:
.LBB39_2:                               # %if.end
	#DEBUG_VALUE: Release:this <- $rbx
	.loc	20 26 58                # /home/chris/test-suite/MultiSource/Benchmarks/7zip/CPP/Common/MyCom.h:26:58
	popq	%rbx
.Ltmp527:
	.cfi_def_cfa_offset 8
	retq
.Ltmp528:
.Lfunc_end39:
	.size	_ZN9CMyComPtrI20ISequentialOutStreamE7ReleaseEv, .Lfunc_end39-_ZN9CMyComPtrI20ISequentialOutStreamE7ReleaseEv
	.cfi_endproc
                                        # -- End function
	.section	.text._ZN9CMyComPtrI20ISequentialOutStreamED2Ev,"axG",@progbits,_ZN9CMyComPtrI20ISequentialOutStreamED2Ev,comdat
	.weak	_ZN9CMyComPtrI20ISequentialOutStreamED2Ev # -- Begin function _ZN9CMyComPtrI20ISequentialOutStreamED2Ev
	.p2align	4, 0x90
	.type	_ZN9CMyComPtrI20ISequentialOutStreamED2Ev,@function
_ZN9CMyComPtrI20ISequentialOutStreamED2Ev: # @_ZN9CMyComPtrI20ISequentialOutStreamED2Ev
.Lfunc_begin40:
	.loc	20 25 0 is_stmt 1       # /home/chris/test-suite/MultiSource/Benchmarks/7zip/CPP/Common/MyCom.h:25:0
	.cfi_startproc
	.cfi_personality 3, __gxx_personality_v0
	.cfi_lsda 3, .Lexception8
# %bb.0:                                # %entry
	#DEBUG_VALUE: ~CMyComPtr:this <- $rdi
	pushq	%rax
	.cfi_def_cfa_offset 16
.Ltmp532:
	.loc	20 25 22 prologue_end   # /home/chris/test-suite/MultiSource/Benchmarks/7zip/CPP/Common/MyCom.h:25:22
	movq	(%rdi), %rdi
.Ltmp533:
	cmpq	$0, %rdi
.Ltmp534:
	.loc	20 25 22 is_stmt 0      # /home/chris/test-suite/MultiSource/Benchmarks/7zip/CPP/Common/MyCom.h:25:22
	je	.LBB40_2
# %bb.1:                                # %if.then
.Ltmp535:
	.loc	20 25 30                # /home/chris/test-suite/MultiSource/Benchmarks/7zip/CPP/Common/MyCom.h:25:30
	movq	(%rdi), %rax
	movq	16(%rax), %rax
.Ltmp529:
	callq	*%rax
.Ltmp530:
	jmp	.LBB40_2
.Ltmp536:
.LBB40_2:                               # %if.end
	.loc	20 25 41                # /home/chris/test-suite/MultiSource/Benchmarks/7zip/CPP/Common/MyCom.h:25:41
	popq	%rax
	.cfi_def_cfa_offset 8
	retq
.LBB40_3:                               # %terminate.lpad
	.cfi_def_cfa_offset 16
.Ltmp531:
                                        # kill: killed $rdx
.Ltmp537:
	.loc	20 25 30                # /home/chris/test-suite/MultiSource/Benchmarks/7zip/CPP/Common/MyCom.h:25:30
	movq	%rax, %rdi
	callq	__clang_call_terminate
.Ltmp538:
.Lfunc_end40:
	.size	_ZN9CMyComPtrI20ISequentialOutStreamED2Ev, .Lfunc_end40-_ZN9CMyComPtrI20ISequentialOutStreamED2Ev
	.cfi_endproc
	.section	.gcc_except_table,"a",@progbits
	.p2align	2
GCC_except_table40:
.Lexception8:
	.byte	255                     # @LPStart Encoding = omit
	.byte	3                       # @TType Encoding = udata4
	.uleb128 .Lttbase4-.Lttbaseref4
.Lttbaseref4:
	.byte	1                       # Call site Encoding = uleb128
	.uleb128 .Lcst_end8-.Lcst_begin8
.Lcst_begin8:
	.uleb128 .Ltmp529-.Lfunc_begin40 # >> Call Site 1 <<
	.uleb128 .Ltmp530-.Ltmp529      #   Call between .Ltmp529 and .Ltmp530
	.uleb128 .Ltmp531-.Lfunc_begin40 #     jumps to .Ltmp531
	.byte	1                       #   On action: 1
.Lcst_end8:
	.byte	1                       # >> Action Record 1 <<
                                        #   Catch TypeInfo 1
	.byte	0                       #   No further actions
	.p2align	2
                                        # >> Catch TypeInfos <<
	.long	0                       # TypeInfo 1
.Lttbase4:
	.p2align	2
                                        # -- End function
	.section	.text._ZN9CMyComPtrI21ICompressProgressInfoED2Ev,"axG",@progbits,_ZN9CMyComPtrI21ICompressProgressInfoED2Ev,comdat
	.weak	_ZN9CMyComPtrI21ICompressProgressInfoED2Ev # -- Begin function _ZN9CMyComPtrI21ICompressProgressInfoED2Ev
	.p2align	4, 0x90
	.type	_ZN9CMyComPtrI21ICompressProgressInfoED2Ev,@function
_ZN9CMyComPtrI21ICompressProgressInfoED2Ev: # @_ZN9CMyComPtrI21ICompressProgressInfoED2Ev
.Lfunc_begin41:
	.loc	20 25 0 is_stmt 1       # /home/chris/test-suite/MultiSource/Benchmarks/7zip/CPP/Common/MyCom.h:25:0
	.cfi_startproc
	.cfi_personality 3, __gxx_personality_v0
	.cfi_lsda 3, .Lexception9
# %bb.0:                                # %entry
	#DEBUG_VALUE: ~CMyComPtr:this <- $rdi
	pushq	%rax
	.cfi_def_cfa_offset 16
.Ltmp542:
	.loc	20 25 22 prologue_end   # /home/chris/test-suite/MultiSource/Benchmarks/7zip/CPP/Common/MyCom.h:25:22
	movq	(%rdi), %rdi
.Ltmp543:
	cmpq	$0, %rdi
.Ltmp544:
	.loc	20 25 22 is_stmt 0      # /home/chris/test-suite/MultiSource/Benchmarks/7zip/CPP/Common/MyCom.h:25:22
	je	.LBB41_2
# %bb.1:                                # %if.then
.Ltmp545:
	.loc	20 25 30                # /home/chris/test-suite/MultiSource/Benchmarks/7zip/CPP/Common/MyCom.h:25:30
	movq	(%rdi), %rax
	movq	16(%rax), %rax
.Ltmp539:
	callq	*%rax
.Ltmp540:
	jmp	.LBB41_2
.Ltmp546:
.LBB41_2:                               # %if.end
	.loc	20 25 41                # /home/chris/test-suite/MultiSource/Benchmarks/7zip/CPP/Common/MyCom.h:25:41
	popq	%rax
	.cfi_def_cfa_offset 8
	retq
.LBB41_3:                               # %terminate.lpad
	.cfi_def_cfa_offset 16
.Ltmp541:
                                        # kill: killed $rdx
.Ltmp547:
	.loc	20 25 30                # /home/chris/test-suite/MultiSource/Benchmarks/7zip/CPP/Common/MyCom.h:25:30
	movq	%rax, %rdi
	callq	__clang_call_terminate
.Ltmp548:
.Lfunc_end41:
	.size	_ZN9CMyComPtrI21ICompressProgressInfoED2Ev, .Lfunc_end41-_ZN9CMyComPtrI21ICompressProgressInfoED2Ev
	.cfi_endproc
	.section	.gcc_except_table,"a",@progbits
	.p2align	2
GCC_except_table41:
.Lexception9:
	.byte	255                     # @LPStart Encoding = omit
	.byte	3                       # @TType Encoding = udata4
	.uleb128 .Lttbase5-.Lttbaseref5
.Lttbaseref5:
	.byte	1                       # Call site Encoding = uleb128
	.uleb128 .Lcst_end9-.Lcst_begin9
.Lcst_begin9:
	.uleb128 .Ltmp539-.Lfunc_begin41 # >> Call Site 1 <<
	.uleb128 .Ltmp540-.Ltmp539      #   Call between .Ltmp539 and .Ltmp540
	.uleb128 .Ltmp541-.Lfunc_begin41 #     jumps to .Ltmp541
	.byte	1                       #   On action: 1
.Lcst_end9:
	.byte	1                       # >> Action Record 1 <<
                                        #   Catch TypeInfo 1
	.byte	0                       #   No further actions
	.p2align	2
                                        # >> Catch TypeInfos <<
	.long	0                       # TypeInfo 1
.Lttbase5:
	.p2align	2
                                        # -- End function
	.section	.text.startup,"ax",@progbits
	.p2align	4, 0x90         # -- Begin function __cxx_global_var_init
	.type	__cxx_global_var_init,@function
__cxx_global_var_init:                  # @__cxx_global_var_init
.Lfunc_begin42:
	.loc	4 407 0 is_stmt 1       # /home/chris/test-suite/MultiSource/Benchmarks/7zip/CPP/7zip/Archive/SwfHandler.cpp:407:0
	.cfi_startproc
# %bb.0:                                # %entry
	.loc	4 407 1 prologue_end    # /home/chris/test-suite/MultiSource/Benchmarks/7zip/CPP/7zip/Archive/SwfHandler.cpp:407:1
	movl	$_ZN8NArchive4NSwfL13g_RegisterArcE, %edi
	jmp	_ZN8NArchive4NSwf12CRegisterSwfC2Ev # TAILCALL
.Ltmp549:
.Lfunc_end42:
	.size	__cxx_global_var_init, .Lfunc_end42-__cxx_global_var_init
	.cfi_endproc
                                        # -- End function
	.section	.text._ZN8NArchive4NSwf12CRegisterSwfC2Ev,"axG",@progbits,_ZN8NArchive4NSwf12CRegisterSwfC2Ev,comdat
	.weak	_ZN8NArchive4NSwf12CRegisterSwfC2Ev # -- Begin function _ZN8NArchive4NSwf12CRegisterSwfC2Ev
	.p2align	4, 0x90
	.type	_ZN8NArchive4NSwf12CRegisterSwfC2Ev,@function
_ZN8NArchive4NSwf12CRegisterSwfC2Ev:    # @_ZN8NArchive4NSwf12CRegisterSwfC2Ev
.Lfunc_begin43:
	.loc	4 407 0                 # /home/chris/test-suite/MultiSource/Benchmarks/7zip/CPP/7zip/Archive/SwfHandler.cpp:407:0
	.cfi_startproc
# %bb.0:                                # %entry
                                        # kill: killed $rdi
	.loc	4 407 1 prologue_end    # /home/chris/test-suite/MultiSource/Benchmarks/7zip/CPP/7zip/Archive/SwfHandler.cpp:407:1
	movl	$_ZN8NArchive4NSwfL9g_ArcInfoE, %edi
	#DEBUG_VALUE: CRegisterSwf:this <- undef
	jmp	_Z11RegisterArcPK8CArcInfo # TAILCALL
.Ltmp550:
.Lfunc_end43:
	.size	_ZN8NArchive4NSwf12CRegisterSwfC2Ev, .Lfunc_end43-_ZN8NArchive4NSwf12CRegisterSwfC2Ev
	.cfi_endproc
                                        # -- End function
	.section	.text._ZN8NArchive4NSwf8CHandler14QueryInterfaceERK4GUIDPPv,"axG",@progbits,_ZN8NArchive4NSwf8CHandler14QueryInterfaceERK4GUIDPPv,comdat
	.weak	_ZN8NArchive4NSwf8CHandler14QueryInterfaceERK4GUIDPPv # -- Begin function _ZN8NArchive4NSwf8CHandler14QueryInterfaceERK4GUIDPPv
	.p2align	4, 0x90
	.type	_ZN8NArchive4NSwf8CHandler14QueryInterfaceERK4GUIDPPv,@function
_ZN8NArchive4NSwf8CHandler14QueryInterfaceERK4GUIDPPv: # @_ZN8NArchive4NSwf8CHandler14QueryInterfaceERK4GUIDPPv
.Lfunc_begin44:
	.loc	4 53 0                  # /home/chris/test-suite/MultiSource/Benchmarks/7zip/CPP/7zip/Archive/SwfHandler.cpp:53:0
	.cfi_startproc
# %bb.0:                                # %entry
	pushq	%r15
	.cfi_def_cfa_offset 16
	pushq	%r14
	.cfi_def_cfa_offset 24
	pushq	%rbx
	.cfi_def_cfa_offset 32
	.cfi_offset %rbx, -32
	.cfi_offset %r14, -24
	.cfi_offset %r15, -16
	movq	%rdx, %r14
	movq	%rsi, %rbx
	movq	%rdi, %r15
.Ltmp551:
	#DEBUG_VALUE: QueryInterface:outObject <- $r14
	#DEBUG_VALUE: QueryInterface:iid <- $rbx
	#DEBUG_VALUE: QueryInterface:this <- $r15
	.loc	4 53 3 prologue_end     # /home/chris/test-suite/MultiSource/Benchmarks/7zip/CPP/7zip/Archive/SwfHandler.cpp:53:3
	movq	%rbx, %rdi
	movabsq	$IID_IUnknown, %rsi
	callq	_ZeqRK4GUIDS1_
	cmpl	$0, %eax
.Ltmp552:
	.loc	4 53 3 is_stmt 0        # /home/chris/test-suite/MultiSource/Benchmarks/7zip/CPP/7zip/Archive/SwfHandler.cpp:53:3
	je	.LBB44_2
.Ltmp553:
# %bb.1:                                # %if.then
	#DEBUG_VALUE: QueryInterface:this <- $r15
	#DEBUG_VALUE: QueryInterface:iid <- $rbx
	#DEBUG_VALUE: QueryInterface:outObject <- $r14
	.loc	4 53 3                  # /home/chris/test-suite/MultiSource/Benchmarks/7zip/CPP/7zip/Archive/SwfHandler.cpp:53:3
	movq	%r15, (%r14)
	movq	(%r15), %rax
	movq	%r15, %rdi
	callq	*8(%rax)
	xorl	%eax, %eax
	jmp	.LBB44_6
.Ltmp554:
.LBB44_2:                               # %if.end
	#DEBUG_VALUE: QueryInterface:this <- $r15
	#DEBUG_VALUE: QueryInterface:iid <- $rbx
	#DEBUG_VALUE: QueryInterface:outObject <- $r14
	.loc	4 53 3                  # /home/chris/test-suite/MultiSource/Benchmarks/7zip/CPP/7zip/Archive/SwfHandler.cpp:53:3
	movq	%rbx, %rdi
	movabsq	$IID_IInArchive, %rsi
	callq	_ZeqRK4GUIDS1_
	cmpl	$0, %eax
.Ltmp555:
	.loc	4 53 3                  # /home/chris/test-suite/MultiSource/Benchmarks/7zip/CPP/7zip/Archive/SwfHandler.cpp:53:3
	je	.LBB44_4
.Ltmp556:
# %bb.3:                                # %if.then5
	#DEBUG_VALUE: QueryInterface:this <- $r15
	#DEBUG_VALUE: QueryInterface:iid <- $rbx
	#DEBUG_VALUE: QueryInterface:outObject <- $r14
	.loc	4 53 3                  # /home/chris/test-suite/MultiSource/Benchmarks/7zip/CPP/7zip/Archive/SwfHandler.cpp:53:3
	movq	%r15, (%r14)
	movq	(%r15), %rax
	movq	%r15, %rdi
	callq	*8(%rax)
	xorl	%eax, %eax
	jmp	.LBB44_6
.Ltmp557:
.LBB44_4:                               # %if.end9
	#DEBUG_VALUE: QueryInterface:this <- $r15
	#DEBUG_VALUE: QueryInterface:iid <- $rbx
	#DEBUG_VALUE: QueryInterface:outObject <- $r14
	.loc	4 53 3                  # /home/chris/test-suite/MultiSource/Benchmarks/7zip/CPP/7zip/Archive/SwfHandler.cpp:53:3
	movq	%rbx, %rdi
	movabsq	$IID_IArchiveOpenSeq, %rsi
	callq	_ZeqRK4GUIDS1_
	cmpl	$0, %eax
.Ltmp558:
	.loc	4 53 3                  # /home/chris/test-suite/MultiSource/Benchmarks/7zip/CPP/7zip/Archive/SwfHandler.cpp:53:3
	movl	$2147500034, %eax       # imm = 0x80004002
	je	.LBB44_6
.Ltmp559:
# %bb.5:                                # %if.then12
	#DEBUG_VALUE: QueryInterface:this <- $r15
	#DEBUG_VALUE: QueryInterface:iid <- $rbx
	#DEBUG_VALUE: QueryInterface:outObject <- $r14
	.loc	4 53 3                  # /home/chris/test-suite/MultiSource/Benchmarks/7zip/CPP/7zip/Archive/SwfHandler.cpp:53:3
	movq	%r15, %rax
	addq	$8, %rax
	movq	%rax, (%r14)
	movq	(%r15), %rax
	movq	%r15, %rdi
	callq	*8(%rax)
	xorl	%eax, %eax
.Ltmp560:
.LBB44_6:                               # %return
	#DEBUG_VALUE: QueryInterface:this <- $r15
	#DEBUG_VALUE: QueryInterface:iid <- $rbx
	#DEBUG_VALUE: QueryInterface:outObject <- $r14
	.loc	4 53 3                  # /home/chris/test-suite/MultiSource/Benchmarks/7zip/CPP/7zip/Archive/SwfHandler.cpp:53:3
	popq	%rbx
.Ltmp561:
	.cfi_def_cfa_offset 24
	popq	%r14
.Ltmp562:
	.cfi_def_cfa_offset 16
	popq	%r15
.Ltmp563:
	.cfi_def_cfa_offset 8
	retq
.Ltmp564:
.Lfunc_end44:
	.size	_ZN8NArchive4NSwf8CHandler14QueryInterfaceERK4GUIDPPv, .Lfunc_end44-_ZN8NArchive4NSwf8CHandler14QueryInterfaceERK4GUIDPPv
	.cfi_endproc
                                        # -- End function
	.section	.text._ZN8NArchive4NSwf8CHandler6AddRefEv,"axG",@progbits,_ZN8NArchive4NSwf8CHandler6AddRefEv,comdat
	.weak	_ZN8NArchive4NSwf8CHandler6AddRefEv # -- Begin function _ZN8NArchive4NSwf8CHandler6AddRefEv
	.p2align	4, 0x90
	.type	_ZN8NArchive4NSwf8CHandler6AddRefEv,@function
_ZN8NArchive4NSwf8CHandler6AddRefEv:    # @_ZN8NArchive4NSwf8CHandler6AddRefEv
.Lfunc_begin45:
	.loc	4 53 0 is_stmt 1        # /home/chris/test-suite/MultiSource/Benchmarks/7zip/CPP/7zip/Archive/SwfHandler.cpp:53:0
	.cfi_startproc
# %bb.0:                                # %entry
	#DEBUG_VALUE: AddRef:this <- $rdi
	.loc	4 53 3 prologue_end     # /home/chris/test-suite/MultiSource/Benchmarks/7zip/CPP/7zip/Archive/SwfHandler.cpp:53:3
	movl	16(%rdi), %eax
	addl	$1, %eax
	movl	%eax, 16(%rdi)
	retq
.Ltmp565:
.Lfunc_end45:
	.size	_ZN8NArchive4NSwf8CHandler6AddRefEv, .Lfunc_end45-_ZN8NArchive4NSwf8CHandler6AddRefEv
	.cfi_endproc
                                        # -- End function
	.section	.text._ZN8NArchive4NSwf8CHandler7ReleaseEv,"axG",@progbits,_ZN8NArchive4NSwf8CHandler7ReleaseEv,comdat
	.weak	_ZN8NArchive4NSwf8CHandler7ReleaseEv # -- Begin function _ZN8NArchive4NSwf8CHandler7ReleaseEv
	.p2align	4, 0x90
	.type	_ZN8NArchive4NSwf8CHandler7ReleaseEv,@function
_ZN8NArchive4NSwf8CHandler7ReleaseEv:   # @_ZN8NArchive4NSwf8CHandler7ReleaseEv
.Lfunc_begin46:
	.loc	4 53 0                  # /home/chris/test-suite/MultiSource/Benchmarks/7zip/CPP/7zip/Archive/SwfHandler.cpp:53:0
	.cfi_startproc
# %bb.0:                                # %entry
	#DEBUG_VALUE: Release:this <- $rdi
	pushq	%rbx
	.cfi_def_cfa_offset 16
	.cfi_offset %rbx, -16
	.loc	4 53 3 prologue_end     # /home/chris/test-suite/MultiSource/Benchmarks/7zip/CPP/7zip/Archive/SwfHandler.cpp:53:3
	movl	16(%rdi), %ebx
	addl	$-1, %ebx
	movl	%ebx, 16(%rdi)
	cmpl	$0, %ebx
.Ltmp566:
	.loc	4 53 3 is_stmt 0        # /home/chris/test-suite/MultiSource/Benchmarks/7zip/CPP/7zip/Archive/SwfHandler.cpp:53:3
	jne	.LBB46_2
.Ltmp567:
# %bb.1:                                # %delete.notnull
	#DEBUG_VALUE: Release:this <- $rdi
	movq	(%rdi), %rax
	callq	*32(%rax)
.Ltmp568:
.LBB46_2:                               # %return
	movl	%ebx, %eax
	popq	%rbx
	.cfi_def_cfa_offset 8
	retq
.Ltmp569:
.Lfunc_end46:
	.size	_ZN8NArchive4NSwf8CHandler7ReleaseEv, .Lfunc_end46-_ZN8NArchive4NSwf8CHandler7ReleaseEv
	.cfi_endproc
                                        # -- End function
	.section	.text._ZN8NArchive4NSwf8CHandlerD2Ev,"axG",@progbits,_ZN8NArchive4NSwf8CHandlerD2Ev,comdat
	.weak	_ZN8NArchive4NSwf8CHandlerD2Ev # -- Begin function _ZN8NArchive4NSwf8CHandlerD2Ev
	.p2align	4, 0x90
	.type	_ZN8NArchive4NSwf8CHandlerD2Ev,@function
_ZN8NArchive4NSwf8CHandlerD2Ev:         # @_ZN8NArchive4NSwf8CHandlerD2Ev
.Lfunc_begin47:
	.loc	4 42 0 is_stmt 1        # /home/chris/test-suite/MultiSource/Benchmarks/7zip/CPP/7zip/Archive/SwfHandler.cpp:42:0
	.cfi_startproc
# %bb.0:                                # %entry
	pushq	%r14
	.cfi_def_cfa_offset 16
	pushq	%rbx
	.cfi_def_cfa_offset 24
	pushq	%rax
	.cfi_def_cfa_offset 32
	.cfi_offset %rbx, -24
	.cfi_offset %r14, -16
	movq	%rdi, %rbx
.Ltmp570:
	#DEBUG_VALUE: ~CHandler:this <- $rbx
	.loc	4 42 7 prologue_end     # /home/chris/test-suite/MultiSource/Benchmarks/7zip/CPP/7zip/Archive/SwfHandler.cpp:42:7
	movq	$_ZTVN8NArchive4NSwf8CHandlerE+16, (%rbx)
	movq	%rbx, %r14
	addq	$8, %r14
	movq	$_ZTVN8NArchive4NSwf8CHandlerE+160, 8(%rbx)
.Ltmp571:
	.loc	4 42 7 is_stmt 0        # /home/chris/test-suite/MultiSource/Benchmarks/7zip/CPP/7zip/Archive/SwfHandler.cpp:42:7
	movq	%rbx, %rdi
	addq	$24, %rdi
	callq	_ZN13CObjectVectorIN8NArchive4NSwf4CTagEED2Ev
	movq	%r14, %rdi
	callq	_ZN8IUnknownD2Ev
	movq	%rbx, %rdi
	addq	$8, %rsp
	.cfi_def_cfa_offset 24
	popq	%rbx
.Ltmp572:
	.cfi_def_cfa_offset 16
	popq	%r14
	.cfi_def_cfa_offset 8
	jmp	_ZN8IUnknownD2Ev        # TAILCALL
.Ltmp573:
.Lfunc_end47:
	.size	_ZN8NArchive4NSwf8CHandlerD2Ev, .Lfunc_end47-_ZN8NArchive4NSwf8CHandlerD2Ev
	.cfi_endproc
                                        # -- End function
	.section	.text._ZN8NArchive4NSwf8CHandlerD0Ev,"axG",@progbits,_ZN8NArchive4NSwf8CHandlerD0Ev,comdat
	.weak	_ZN8NArchive4NSwf8CHandlerD0Ev # -- Begin function _ZN8NArchive4NSwf8CHandlerD0Ev
	.p2align	4, 0x90
	.type	_ZN8NArchive4NSwf8CHandlerD0Ev,@function
_ZN8NArchive4NSwf8CHandlerD0Ev:         # @_ZN8NArchive4NSwf8CHandlerD0Ev
.Lfunc_begin48:
	.loc	4 42 0 is_stmt 1        # /home/chris/test-suite/MultiSource/Benchmarks/7zip/CPP/7zip/Archive/SwfHandler.cpp:42:0
	.cfi_startproc
# %bb.0:                                # %entry
	pushq	%rbx
	.cfi_def_cfa_offset 16
	.cfi_offset %rbx, -16
	movq	%rdi, %rbx
.Ltmp574:
	#DEBUG_VALUE: ~CHandler:this <- $rbx
	.loc	4 42 7 prologue_end     # /home/chris/test-suite/MultiSource/Benchmarks/7zip/CPP/7zip/Archive/SwfHandler.cpp:42:7
	movq	%rbx, %rdi
	callq	_ZN8NArchive4NSwf8CHandlerD2Ev
	movq	%rbx, %rdi
	popq	%rbx
.Ltmp575:
	.cfi_def_cfa_offset 8
	jmp	_ZdlPv                  # TAILCALL
.Ltmp576:
.Lfunc_end48:
	.size	_ZN8NArchive4NSwf8CHandlerD0Ev, .Lfunc_end48-_ZN8NArchive4NSwf8CHandlerD0Ev
	.cfi_endproc
                                        # -- End function
	.section	.text._ZThn8_N8NArchive4NSwf8CHandler14QueryInterfaceERK4GUIDPPv,"axG",@progbits,_ZThn8_N8NArchive4NSwf8CHandler14QueryInterfaceERK4GUIDPPv,comdat
	.weak	_ZThn8_N8NArchive4NSwf8CHandler14QueryInterfaceERK4GUIDPPv # -- Begin function _ZThn8_N8NArchive4NSwf8CHandler14QueryInterfaceERK4GUIDPPv
	.p2align	4, 0x90
	.type	_ZThn8_N8NArchive4NSwf8CHandler14QueryInterfaceERK4GUIDPPv,@function
_ZThn8_N8NArchive4NSwf8CHandler14QueryInterfaceERK4GUIDPPv: # @_ZThn8_N8NArchive4NSwf8CHandler14QueryInterfaceERK4GUIDPPv
.Lfunc_begin49:
	.loc	4 0 0                   # /home/chris/test-suite/MultiSource/Benchmarks/7zip/CPP/7zip/Archive/SwfHandler.cpp:0:0
	.cfi_startproc
# %bb.0:                                # %entry
	addq	$-8, %rdi
	jmp	_ZN8NArchive4NSwf8CHandler14QueryInterfaceERK4GUIDPPv # TAILCALL
.Ltmp577:
.Lfunc_end49:
	.size	_ZThn8_N8NArchive4NSwf8CHandler14QueryInterfaceERK4GUIDPPv, .Lfunc_end49-_ZThn8_N8NArchive4NSwf8CHandler14QueryInterfaceERK4GUIDPPv
	.cfi_endproc
                                        # -- End function
	.section	.text._ZThn8_N8NArchive4NSwf8CHandler6AddRefEv,"axG",@progbits,_ZThn8_N8NArchive4NSwf8CHandler6AddRefEv,comdat
	.weak	_ZThn8_N8NArchive4NSwf8CHandler6AddRefEv # -- Begin function _ZThn8_N8NArchive4NSwf8CHandler6AddRefEv
	.p2align	4, 0x90
	.type	_ZThn8_N8NArchive4NSwf8CHandler6AddRefEv,@function
_ZThn8_N8NArchive4NSwf8CHandler6AddRefEv: # @_ZThn8_N8NArchive4NSwf8CHandler6AddRefEv
.Lfunc_begin50:
	.loc	4 0 0                   # /home/chris/test-suite/MultiSource/Benchmarks/7zip/CPP/7zip/Archive/SwfHandler.cpp:0:0
	.cfi_startproc
# %bb.0:                                # %entry
	addq	$-8, %rdi
	jmp	_ZN8NArchive4NSwf8CHandler6AddRefEv # TAILCALL
.Ltmp578:
.Lfunc_end50:
	.size	_ZThn8_N8NArchive4NSwf8CHandler6AddRefEv, .Lfunc_end50-_ZThn8_N8NArchive4NSwf8CHandler6AddRefEv
	.cfi_endproc
                                        # -- End function
	.section	.text._ZThn8_N8NArchive4NSwf8CHandler7ReleaseEv,"axG",@progbits,_ZThn8_N8NArchive4NSwf8CHandler7ReleaseEv,comdat
	.weak	_ZThn8_N8NArchive4NSwf8CHandler7ReleaseEv # -- Begin function _ZThn8_N8NArchive4NSwf8CHandler7ReleaseEv
	.p2align	4, 0x90
	.type	_ZThn8_N8NArchive4NSwf8CHandler7ReleaseEv,@function
_ZThn8_N8NArchive4NSwf8CHandler7ReleaseEv: # @_ZThn8_N8NArchive4NSwf8CHandler7ReleaseEv
.Lfunc_begin51:
	.loc	4 0 0                   # /home/chris/test-suite/MultiSource/Benchmarks/7zip/CPP/7zip/Archive/SwfHandler.cpp:0:0
	.cfi_startproc
# %bb.0:                                # %entry
	addq	$-8, %rdi
	jmp	_ZN8NArchive4NSwf8CHandler7ReleaseEv # TAILCALL
.Ltmp579:
.Lfunc_end51:
	.size	_ZThn8_N8NArchive4NSwf8CHandler7ReleaseEv, .Lfunc_end51-_ZThn8_N8NArchive4NSwf8CHandler7ReleaseEv
	.cfi_endproc
                                        # -- End function
	.section	.text._ZThn8_N8NArchive4NSwf8CHandlerD1Ev,"axG",@progbits,_ZThn8_N8NArchive4NSwf8CHandlerD1Ev,comdat
	.weak	_ZThn8_N8NArchive4NSwf8CHandlerD1Ev # -- Begin function _ZThn8_N8NArchive4NSwf8CHandlerD1Ev
	.p2align	4, 0x90
	.type	_ZThn8_N8NArchive4NSwf8CHandlerD1Ev,@function
_ZThn8_N8NArchive4NSwf8CHandlerD1Ev:    # @_ZThn8_N8NArchive4NSwf8CHandlerD1Ev
.Lfunc_begin52:
	.loc	4 0 0                   # /home/chris/test-suite/MultiSource/Benchmarks/7zip/CPP/7zip/Archive/SwfHandler.cpp:0:0
	.cfi_startproc
# %bb.0:                                # %entry
	addq	$-8, %rdi
	jmp	_ZN8NArchive4NSwf8CHandlerD2Ev # TAILCALL
.Ltmp580:
.Lfunc_end52:
	.size	_ZThn8_N8NArchive4NSwf8CHandlerD1Ev, .Lfunc_end52-_ZThn8_N8NArchive4NSwf8CHandlerD1Ev
	.cfi_endproc
                                        # -- End function
	.section	.text._ZThn8_N8NArchive4NSwf8CHandlerD0Ev,"axG",@progbits,_ZThn8_N8NArchive4NSwf8CHandlerD0Ev,comdat
	.weak	_ZThn8_N8NArchive4NSwf8CHandlerD0Ev # -- Begin function _ZThn8_N8NArchive4NSwf8CHandlerD0Ev
	.p2align	4, 0x90
	.type	_ZThn8_N8NArchive4NSwf8CHandlerD0Ev,@function
_ZThn8_N8NArchive4NSwf8CHandlerD0Ev:    # @_ZThn8_N8NArchive4NSwf8CHandlerD0Ev
.Lfunc_begin53:
	.loc	4 0 0                   # /home/chris/test-suite/MultiSource/Benchmarks/7zip/CPP/7zip/Archive/SwfHandler.cpp:0:0
	.cfi_startproc
# %bb.0:                                # %entry
	addq	$-8, %rdi
	jmp	_ZN8NArchive4NSwf8CHandlerD0Ev # TAILCALL
.Ltmp581:
.Lfunc_end53:
	.size	_ZThn8_N8NArchive4NSwf8CHandlerD0Ev, .Lfunc_end53-_ZThn8_N8NArchive4NSwf8CHandlerD0Ev
	.cfi_endproc
                                        # -- End function
	.section	.text.__clang_call_terminate,"axG",@progbits,__clang_call_terminate,comdat
	.hidden	__clang_call_terminate  # -- Begin function __clang_call_terminate
	.weak	__clang_call_terminate
	.p2align	4, 0x90
	.type	__clang_call_terminate,@function
__clang_call_terminate:                 # @__clang_call_terminate
.Lfunc_begin54:
	.cfi_startproc
# %bb.0:
	pushq	%rax
	.cfi_def_cfa_offset 16
	callq	__cxa_begin_catch
	callq	_ZSt9terminatev
.Lfunc_end54:
	.size	__clang_call_terminate, .Lfunc_end54-__clang_call_terminate
	.cfi_endproc
                                        # -- End function
	.section	.text._ZN9CInBuffer8ReadByteERh,"axG",@progbits,_ZN9CInBuffer8ReadByteERh,comdat
	.weak	_ZN9CInBuffer8ReadByteERh # -- Begin function _ZN9CInBuffer8ReadByteERh
	.p2align	4, 0x90
	.type	_ZN9CInBuffer8ReadByteERh,@function
_ZN9CInBuffer8ReadByteERh:              # @_ZN9CInBuffer8ReadByteERh
.Lfunc_begin55:
	.loc	23 46 0                 # /home/chris/test-suite/MultiSource/Benchmarks/7zip/CPP/7zip/Archive/../Compress/../Common/InBuffer.h:46:0
	.cfi_startproc
# %bb.0:                                # %entry
	pushq	%r14
	.cfi_def_cfa_offset 16
	pushq	%rbx
	.cfi_def_cfa_offset 24
	pushq	%rax
	.cfi_def_cfa_offset 32
	.cfi_offset %rbx, -24
	.cfi_offset %r14, -16
	movq	%rsi, %r14
	movq	%rdi, %rbx
.Ltmp582:
	#DEBUG_VALUE: ReadByte:b <- $r14
	#DEBUG_VALUE: ReadByte:this <- $rbx
	.loc	23 47 9 prologue_end    # /home/chris/test-suite/MultiSource/Benchmarks/7zip/CPP/7zip/Archive/../Compress/../Common/InBuffer.h:47:9
	movq	(%rbx), %rax
	.loc	23 47 17 is_stmt 0      # /home/chris/test-suite/MultiSource/Benchmarks/7zip/CPP/7zip/Archive/../Compress/../Common/InBuffer.h:47:17
	cmpq	8(%rbx), %rax
.Ltmp583:
	.loc	23 47 9                 # /home/chris/test-suite/MultiSource/Benchmarks/7zip/CPP/7zip/Archive/../Compress/../Common/InBuffer.h:47:9
	jb	.LBB55_2
.Ltmp584:
# %bb.1:                                # %if.then
	#DEBUG_VALUE: ReadByte:this <- $rbx
	#DEBUG_VALUE: ReadByte:b <- $r14
	.loc	23 48 12 is_stmt 1      # /home/chris/test-suite/MultiSource/Benchmarks/7zip/CPP/7zip/Archive/../Compress/../Common/InBuffer.h:48:12
	movq	%rbx, %rdi
	callq	_ZN9CInBuffer9ReadBlockEv
	xorl	%ecx, %ecx
.Ltmp585:
	.loc	23 48 11 is_stmt 0      # /home/chris/test-suite/MultiSource/Benchmarks/7zip/CPP/7zip/Archive/../Compress/../Common/InBuffer.h:48:11
	testb	$1, %al
	jne	.LBB55_2
	jmp	.LBB55_3
.Ltmp586:
.LBB55_2:                               # %if.end3
	#DEBUG_VALUE: ReadByte:this <- $rbx
	#DEBUG_VALUE: ReadByte:b <- $r14
	.loc	23 50 17 is_stmt 1      # /home/chris/test-suite/MultiSource/Benchmarks/7zip/CPP/7zip/Archive/../Compress/../Common/InBuffer.h:50:17
	movq	(%rbx), %rax
	movq	%rax, %rcx
	addq	$1, %rcx
	movq	%rcx, (%rbx)
	.loc	23 50 9 is_stmt 0       # /home/chris/test-suite/MultiSource/Benchmarks/7zip/CPP/7zip/Archive/../Compress/../Common/InBuffer.h:50:9
	movb	(%rax), %al
	.loc	23 50 7                 # /home/chris/test-suite/MultiSource/Benchmarks/7zip/CPP/7zip/Archive/../Compress/../Common/InBuffer.h:50:7
	movb	%al, (%r14)
	movb	$1, %cl
.Ltmp587:
.LBB55_3:                               # %return
	#DEBUG_VALUE: ReadByte:this <- $rbx
	#DEBUG_VALUE: ReadByte:b <- $r14
	.loc	23 52 3 is_stmt 1       # /home/chris/test-suite/MultiSource/Benchmarks/7zip/CPP/7zip/Archive/../Compress/../Common/InBuffer.h:52:3
	andb	$1, %cl
	movzbl	%cl, %eax
	addq	$8, %rsp
	.cfi_def_cfa_offset 24
	popq	%rbx
.Ltmp588:
	.cfi_def_cfa_offset 16
	popq	%r14
.Ltmp589:
	.cfi_def_cfa_offset 8
	retq
.Ltmp590:
.Lfunc_end55:
	.size	_ZN9CInBuffer8ReadByteERh, .Lfunc_end55-_ZN9CInBuffer8ReadByteERh
	.cfi_endproc
                                        # -- End function
	.section	.text._ZN7CBufferIhEC2Ev,"axG",@progbits,_ZN7CBufferIhEC2Ev,comdat
	.weak	_ZN7CBufferIhEC2Ev      # -- Begin function _ZN7CBufferIhEC2Ev
	.p2align	4, 0x90
	.type	_ZN7CBufferIhEC2Ev,@function
_ZN7CBufferIhEC2Ev:                     # @_ZN7CBufferIhEC2Ev
.Lfunc_begin56:
	.loc	9 20 0                  # /home/chris/test-suite/MultiSource/Benchmarks/7zip/CPP/Common/Buffer.h:20:0
	.cfi_startproc
# %bb.0:                                # %entry
	pushq	%rax
	.cfi_def_cfa_offset 16
	movabsq	$_ZTV7CBufferIhE, %rax
	addq	$16, %rax
.Ltmp591:
	#DEBUG_VALUE: CBuffer:this <- $rdi
	.loc	9 20 38 prologue_end    # /home/chris/test-suite/MultiSource/Benchmarks/7zip/CPP/Common/Buffer.h:20:38
	movq	%rax, (%rdi)
	.loc	9 20 14 is_stmt 0       # /home/chris/test-suite/MultiSource/Benchmarks/7zip/CPP/Common/Buffer.h:20:14
	addq	$8, %rdi
.Ltmp592:
	.loc	9 20 28                 # /home/chris/test-suite/MultiSource/Benchmarks/7zip/CPP/Common/Buffer.h:20:28
	xorl	%esi, %esi
	movl	$16, %edx
	callq	memset
	.loc	9 20 39                 # /home/chris/test-suite/MultiSource/Benchmarks/7zip/CPP/Common/Buffer.h:20:39
	popq	%rax
	.cfi_def_cfa_offset 8
	retq
.Ltmp593:
.Lfunc_end56:
	.size	_ZN7CBufferIhEC2Ev, .Lfunc_end56-_ZN7CBufferIhEC2Ev
	.cfi_endproc
                                        # -- End function
	.section	.text._ZN7CBufferIhED2Ev,"axG",@progbits,_ZN7CBufferIhED2Ev,comdat
	.weak	_ZN7CBufferIhED2Ev      # -- Begin function _ZN7CBufferIhED2Ev
	.p2align	4, 0x90
	.type	_ZN7CBufferIhED2Ev,@function
_ZN7CBufferIhED2Ev:                     # @_ZN7CBufferIhED2Ev
.Lfunc_begin57:
	.loc	9 23 0 is_stmt 1        # /home/chris/test-suite/MultiSource/Benchmarks/7zip/CPP/Common/Buffer.h:23:0
	.cfi_startproc
# %bb.0:                                # %entry
	movabsq	$_ZTV7CBufferIhE, %rax
	addq	$16, %rax
.Ltmp594:
	#DEBUG_VALUE: ~CBuffer:this <- $rdi
	.loc	9 23 22 prologue_end    # /home/chris/test-suite/MultiSource/Benchmarks/7zip/CPP/Common/Buffer.h:23:22
	movq	%rax, (%rdi)
.Ltmp595:
	.loc	9 23 33 is_stmt 0       # /home/chris/test-suite/MultiSource/Benchmarks/7zip/CPP/Common/Buffer.h:23:33
	movq	16(%rdi), %rdi
.Ltmp596:
	.loc	9 23 24                 # /home/chris/test-suite/MultiSource/Benchmarks/7zip/CPP/Common/Buffer.h:23:24
	cmpq	$0, %rdi
	je	.LBB57_2
# %bb.1:                                # %delete.notnull
	jmp	_ZdaPv                  # TAILCALL
.Ltmp597:
.LBB57_2:                               # %delete.end
	.loc	9 23 41                 # /home/chris/test-suite/MultiSource/Benchmarks/7zip/CPP/Common/Buffer.h:23:41
	retq
.Ltmp598:
.Lfunc_end57:
	.size	_ZN7CBufferIhED2Ev, .Lfunc_end57-_ZN7CBufferIhED2Ev
	.cfi_endproc
                                        # -- End function
	.section	.text._ZN7CBufferIhED0Ev,"axG",@progbits,_ZN7CBufferIhED0Ev,comdat
	.weak	_ZN7CBufferIhED0Ev      # -- Begin function _ZN7CBufferIhED0Ev
	.p2align	4, 0x90
	.type	_ZN7CBufferIhED0Ev,@function
_ZN7CBufferIhED0Ev:                     # @_ZN7CBufferIhED0Ev
.Lfunc_begin58:
	.loc	9 23 0 is_stmt 1        # /home/chris/test-suite/MultiSource/Benchmarks/7zip/CPP/Common/Buffer.h:23:0
	.cfi_startproc
# %bb.0:                                # %entry
	pushq	%rbx
	.cfi_def_cfa_offset 16
	.cfi_offset %rbx, -16
	movq	%rdi, %rbx
.Ltmp599:
	#DEBUG_VALUE: ~CBuffer:this <- $rbx
	.loc	9 23 22 prologue_end    # /home/chris/test-suite/MultiSource/Benchmarks/7zip/CPP/Common/Buffer.h:23:22
	movq	%rbx, %rdi
	callq	_ZN7CBufferIhED2Ev
	movq	%rbx, %rdi
	popq	%rbx
.Ltmp600:
	.cfi_def_cfa_offset 8
	jmp	_ZdlPv                  # TAILCALL
.Ltmp601:
.Lfunc_end58:
	.size	_ZN7CBufferIhED0Ev, .Lfunc_end58-_ZN7CBufferIhED0Ev
	.cfi_endproc
                                        # -- End function
	.section	.text._ZN9CMyComPtrI19ISequentialInStreamED2Ev,"axG",@progbits,_ZN9CMyComPtrI19ISequentialInStreamED2Ev,comdat
	.weak	_ZN9CMyComPtrI19ISequentialInStreamED2Ev # -- Begin function _ZN9CMyComPtrI19ISequentialInStreamED2Ev
	.p2align	4, 0x90
	.type	_ZN9CMyComPtrI19ISequentialInStreamED2Ev,@function
_ZN9CMyComPtrI19ISequentialInStreamED2Ev: # @_ZN9CMyComPtrI19ISequentialInStreamED2Ev
.Lfunc_begin59:
	.loc	20 25 0                 # /home/chris/test-suite/MultiSource/Benchmarks/7zip/CPP/Common/MyCom.h:25:0
	.cfi_startproc
	.cfi_personality 3, __gxx_personality_v0
	.cfi_lsda 3, .Lexception10
# %bb.0:                                # %entry
	#DEBUG_VALUE: ~CMyComPtr:this <- $rdi
	pushq	%rax
	.cfi_def_cfa_offset 16
.Ltmp605:
	.loc	20 25 22 prologue_end   # /home/chris/test-suite/MultiSource/Benchmarks/7zip/CPP/Common/MyCom.h:25:22
	movq	(%rdi), %rdi
.Ltmp606:
	cmpq	$0, %rdi
.Ltmp607:
	.loc	20 25 22 is_stmt 0      # /home/chris/test-suite/MultiSource/Benchmarks/7zip/CPP/Common/MyCom.h:25:22
	je	.LBB59_2
# %bb.1:                                # %if.then
.Ltmp608:
	.loc	20 25 30                # /home/chris/test-suite/MultiSource/Benchmarks/7zip/CPP/Common/MyCom.h:25:30
	movq	(%rdi), %rax
	movq	16(%rax), %rax
.Ltmp602:
	callq	*%rax
.Ltmp603:
	jmp	.LBB59_2
.Ltmp609:
.LBB59_2:                               # %if.end
	.loc	20 25 41                # /home/chris/test-suite/MultiSource/Benchmarks/7zip/CPP/Common/MyCom.h:25:41
	popq	%rax
	.cfi_def_cfa_offset 8
	retq
.LBB59_3:                               # %terminate.lpad
	.cfi_def_cfa_offset 16
.Ltmp604:
                                        # kill: killed $rdx
.Ltmp610:
	.loc	20 25 30                # /home/chris/test-suite/MultiSource/Benchmarks/7zip/CPP/Common/MyCom.h:25:30
	movq	%rax, %rdi
	callq	__clang_call_terminate
.Ltmp611:
.Lfunc_end59:
	.size	_ZN9CMyComPtrI19ISequentialInStreamED2Ev, .Lfunc_end59-_ZN9CMyComPtrI19ISequentialInStreamED2Ev
	.cfi_endproc
	.section	.gcc_except_table,"a",@progbits
	.p2align	2
GCC_except_table59:
.Lexception10:
	.byte	255                     # @LPStart Encoding = omit
	.byte	3                       # @TType Encoding = udata4
	.uleb128 .Lttbase6-.Lttbaseref6
.Lttbaseref6:
	.byte	1                       # Call site Encoding = uleb128
	.uleb128 .Lcst_end10-.Lcst_begin10
.Lcst_begin10:
	.uleb128 .Ltmp602-.Lfunc_begin59 # >> Call Site 1 <<
	.uleb128 .Ltmp603-.Ltmp602      #   Call between .Ltmp602 and .Ltmp603
	.uleb128 .Ltmp604-.Lfunc_begin59 #     jumps to .Ltmp604
	.byte	1                       #   On action: 1
.Lcst_end10:
	.byte	1                       # >> Action Record 1 <<
                                        #   Catch TypeInfo 1
	.byte	0                       #   No further actions
	.p2align	2
                                        # >> Catch TypeInfos <<
	.long	0                       # TypeInfo 1
.Lttbase6:
	.p2align	2
                                        # -- End function
	.text
	.p2align	4, 0x90         # -- Begin function _ZN8NArchive4NSwfL9CreateArcEv
	.type	_ZN8NArchive4NSwfL9CreateArcEv,@function
_ZN8NArchive4NSwfL9CreateArcEv:         # @_ZN8NArchive4NSwfL9CreateArcEv
.Lfunc_begin60:
	.loc	4 402 0 is_stmt 1       # /home/chris/test-suite/MultiSource/Benchmarks/7zip/CPP/7zip/Archive/SwfHandler.cpp:402:0
	.cfi_startproc
	.cfi_personality 3, __gxx_personality_v0
	.cfi_lsda 3, .Lexception11
# %bb.0:                                # %entry
	pushq	%r14
	.cfi_def_cfa_offset 16
	pushq	%rbx
	.cfi_def_cfa_offset 24
	pushq	%rax
	.cfi_def_cfa_offset 32
	.cfi_offset %rbx, -24
	.cfi_offset %r14, -16
	.loc	4 402 41 prologue_end   # /home/chris/test-suite/MultiSource/Benchmarks/7zip/CPP/7zip/Archive/SwfHandler.cpp:402:41
	movl	$64, %edi
	callq	_Znwm
	movq	%rax, %rbx
.Ltmp612:
	.loc	4 402 45 is_stmt 0      # /home/chris/test-suite/MultiSource/Benchmarks/7zip/CPP/7zip/Archive/SwfHandler.cpp:402:45
	movq	%rbx, %rdi
	callq	_ZN8NArchive4NSwf8CHandlerC2Ev
.Ltmp613:
	jmp	.LBB60_1
.LBB60_1:                               # %invoke.cont
	.loc	4 402 34                # /home/chris/test-suite/MultiSource/Benchmarks/7zip/CPP/7zip/Archive/SwfHandler.cpp:402:34
	movq	%rbx, %rax
	addq	$8, %rsp
	.cfi_def_cfa_offset 24
	popq	%rbx
	.cfi_def_cfa_offset 16
	popq	%r14
	.cfi_def_cfa_offset 8
	retq
.LBB60_2:                               # %lpad
	.cfi_def_cfa_offset 32
.Ltmp614:
                                        # kill: killed $rdx
	.loc	4 0 34                  # /home/chris/test-suite/MultiSource/Benchmarks/7zip/CPP/7zip/Archive/SwfHandler.cpp:0:34
	movq	%rax, %r14
	.loc	4 402 41                # /home/chris/test-suite/MultiSource/Benchmarks/7zip/CPP/7zip/Archive/SwfHandler.cpp:402:41
	movq	%rbx, %rdi
	callq	_ZdlPv
	movq	%r14, %rdi
	callq	_Unwind_Resume
.Ltmp615:
.Lfunc_end60:
	.size	_ZN8NArchive4NSwfL9CreateArcEv, .Lfunc_end60-_ZN8NArchive4NSwfL9CreateArcEv
	.cfi_endproc
	.section	.gcc_except_table,"a",@progbits
	.p2align	2
GCC_except_table60:
.Lexception11:
	.byte	255                     # @LPStart Encoding = omit
	.byte	255                     # @TType Encoding = omit
	.byte	1                       # Call site Encoding = uleb128
	.uleb128 .Lcst_end11-.Lcst_begin11
.Lcst_begin11:
	.uleb128 .Lfunc_begin60-.Lfunc_begin60 # >> Call Site 1 <<
	.uleb128 .Ltmp612-.Lfunc_begin60 #   Call between .Lfunc_begin60 and .Ltmp612
	.byte	0                       #     has no landing pad
	.byte	0                       #   On action: cleanup
	.uleb128 .Ltmp612-.Lfunc_begin60 # >> Call Site 2 <<
	.uleb128 .Ltmp613-.Ltmp612      #   Call between .Ltmp612 and .Ltmp613
	.uleb128 .Ltmp614-.Lfunc_begin60 #     jumps to .Ltmp614
	.byte	0                       #   On action: cleanup
	.uleb128 .Ltmp613-.Lfunc_begin60 # >> Call Site 3 <<
	.uleb128 .Lfunc_end60-.Ltmp613  #   Call between .Ltmp613 and .Lfunc_end60
	.byte	0                       #     has no landing pad
	.byte	0                       #   On action: cleanup
.Lcst_end11:
	.p2align	2
                                        # -- End function
	.section	.text._ZN8NArchive4NSwf8CHandlerC2Ev,"axG",@progbits,_ZN8NArchive4NSwf8CHandlerC2Ev,comdat
	.weak	_ZN8NArchive4NSwf8CHandlerC2Ev # -- Begin function _ZN8NArchive4NSwf8CHandlerC2Ev
	.p2align	4, 0x90
	.type	_ZN8NArchive4NSwf8CHandlerC2Ev,@function
_ZN8NArchive4NSwf8CHandlerC2Ev:         # @_ZN8NArchive4NSwf8CHandlerC2Ev
.Lfunc_begin61:
	.loc	4 42 0 is_stmt 1        # /home/chris/test-suite/MultiSource/Benchmarks/7zip/CPP/7zip/Archive/SwfHandler.cpp:42:0
	.cfi_startproc
	.cfi_personality 3, __gxx_personality_v0
	.cfi_lsda 3, .Lexception12
# %bb.0:                                # %entry
	pushq	%r15
	.cfi_def_cfa_offset 16
	pushq	%r14
	.cfi_def_cfa_offset 24
	pushq	%rbx
	.cfi_def_cfa_offset 32
	.cfi_offset %rbx, -32
	.cfi_offset %r14, -24
	.cfi_offset %r15, -16
	movq	%rdi, %rbx
.Ltmp619:
	#DEBUG_VALUE: CHandler:this <- $rbx
	.loc	4 42 7 prologue_end     # /home/chris/test-suite/MultiSource/Benchmarks/7zip/CPP/7zip/Archive/SwfHandler.cpp:42:7
	movq	%rbx, %rdi
	callq	_ZN10IInArchiveC2Ev
	movq	%rbx, %r14
	addq	$8, %r14
	movq	%r14, %rdi
	callq	_ZN15IArchiveOpenSeqC2Ev
	movq	%rbx, %rdi
	addq	$16, %rdi
	callq	_ZN13CMyUnknownImpC2Ev
	movq	$_ZTVN8NArchive4NSwf8CHandlerE+16, (%rbx)
	movq	$_ZTVN8NArchive4NSwf8CHandlerE+160, 8(%rbx)
	movq	%rbx, %rdi
	addq	$24, %rdi
.Ltmp616:
	callq	_ZN13CObjectVectorIN8NArchive4NSwf4CTagEEC2Ev
.Ltmp617:
	jmp	.LBB61_1
.Ltmp620:
.LBB61_1:                               # %invoke.cont2
	#DEBUG_VALUE: CHandler:this <- $rbx
	popq	%rbx
.Ltmp621:
	.cfi_def_cfa_offset 24
	popq	%r14
	.cfi_def_cfa_offset 16
	popq	%r15
	.cfi_def_cfa_offset 8
	retq
.LBB61_2:                               # %lpad
	.cfi_def_cfa_offset 32
.Ltmp622:
	#DEBUG_VALUE: CHandler:this <- $rbx
.Ltmp618:
                                        # kill: killed $rdx
	.loc	4 0 7 is_stmt 0         # /home/chris/test-suite/MultiSource/Benchmarks/7zip/CPP/7zip/Archive/SwfHandler.cpp:0:7
	movq	%rax, %r15
.Ltmp623:
	.loc	4 42 7                  # /home/chris/test-suite/MultiSource/Benchmarks/7zip/CPP/7zip/Archive/SwfHandler.cpp:42:7
	movq	%r14, %rdi
	callq	_ZN8IUnknownD2Ev
	movq	%rbx, %rdi
	callq	_ZN8IUnknownD2Ev
	movq	%r15, %rdi
	callq	_Unwind_Resume
.Ltmp624:
.Lfunc_end61:
	.size	_ZN8NArchive4NSwf8CHandlerC2Ev, .Lfunc_end61-_ZN8NArchive4NSwf8CHandlerC2Ev
	.cfi_endproc
	.section	.gcc_except_table,"a",@progbits
	.p2align	2
GCC_except_table61:
.Lexception12:
	.byte	255                     # @LPStart Encoding = omit
	.byte	255                     # @TType Encoding = omit
	.byte	1                       # Call site Encoding = uleb128
	.uleb128 .Lcst_end12-.Lcst_begin12
.Lcst_begin12:
	.uleb128 .Ltmp616-.Lfunc_begin61 # >> Call Site 1 <<
	.uleb128 .Ltmp617-.Ltmp616      #   Call between .Ltmp616 and .Ltmp617
	.uleb128 .Ltmp618-.Lfunc_begin61 #     jumps to .Ltmp618
	.byte	0                       #   On action: cleanup
	.uleb128 .Ltmp617-.Lfunc_begin61 # >> Call Site 2 <<
	.uleb128 .Lfunc_end61-.Ltmp617  #   Call between .Ltmp617 and .Lfunc_end61
	.byte	0                       #     has no landing pad
	.byte	0                       #   On action: cleanup
.Lcst_end12:
	.p2align	2
                                        # -- End function
	.section	.text._ZN10IInArchiveC2Ev,"axG",@progbits,_ZN10IInArchiveC2Ev,comdat
	.weak	_ZN10IInArchiveC2Ev     # -- Begin function _ZN10IInArchiveC2Ev
	.p2align	4, 0x90
	.type	_ZN10IInArchiveC2Ev,@function
_ZN10IInArchiveC2Ev:                    # @_ZN10IInArchiveC2Ev
.Lfunc_begin62:
	.loc	7 136 0 is_stmt 1       # /home/chris/test-suite/MultiSource/Benchmarks/7zip/CPP/7zip/Archive/../Common/../Archive/IArchive.h:136:0
	.cfi_startproc
# %bb.0:                                # %entry
	pushq	%rbx
	.cfi_def_cfa_offset 16
	.cfi_offset %rbx, -16
	movq	%rdi, %rbx
.Ltmp625:
	#DEBUG_VALUE: IInArchive:this <- $rbx
	.loc	7 136 1 prologue_end    # /home/chris/test-suite/MultiSource/Benchmarks/7zip/CPP/7zip/Archive/../Common/../Archive/IArchive.h:136:1
	movq	%rbx, %rdi
	callq	_ZN8IUnknownC2Ev
	movabsq	$_ZTV10IInArchive, %rax
	addq	$16, %rax
	movq	%rax, (%rbx)
	popq	%rbx
.Ltmp626:
	.cfi_def_cfa_offset 8
	retq
.Ltmp627:
.Lfunc_end62:
	.size	_ZN10IInArchiveC2Ev, .Lfunc_end62-_ZN10IInArchiveC2Ev
	.cfi_endproc
                                        # -- End function
	.section	.text._ZN15IArchiveOpenSeqC2Ev,"axG",@progbits,_ZN15IArchiveOpenSeqC2Ev,comdat
	.weak	_ZN15IArchiveOpenSeqC2Ev # -- Begin function _ZN15IArchiveOpenSeqC2Ev
	.p2align	4, 0x90
	.type	_ZN15IArchiveOpenSeqC2Ev,@function
_ZN15IArchiveOpenSeqC2Ev:               # @_ZN15IArchiveOpenSeqC2Ev
.Lfunc_begin63:
	.loc	7 141 0                 # /home/chris/test-suite/MultiSource/Benchmarks/7zip/CPP/7zip/Archive/../Common/../Archive/IArchive.h:141:0
	.cfi_startproc
# %bb.0:                                # %entry
	pushq	%rbx
	.cfi_def_cfa_offset 16
	.cfi_offset %rbx, -16
	movq	%rdi, %rbx
.Ltmp628:
	#DEBUG_VALUE: IArchiveOpenSeq:this <- $rbx
	.loc	7 141 1 prologue_end    # /home/chris/test-suite/MultiSource/Benchmarks/7zip/CPP/7zip/Archive/../Common/../Archive/IArchive.h:141:1
	movq	%rbx, %rdi
	callq	_ZN8IUnknownC2Ev
	movabsq	$_ZTV15IArchiveOpenSeq, %rax
	addq	$16, %rax
	movq	%rax, (%rbx)
	popq	%rbx
.Ltmp629:
	.cfi_def_cfa_offset 8
	retq
.Ltmp630:
.Lfunc_end63:
	.size	_ZN15IArchiveOpenSeqC2Ev, .Lfunc_end63-_ZN15IArchiveOpenSeqC2Ev
	.cfi_endproc
                                        # -- End function
	.section	.text._ZN13CMyUnknownImpC2Ev,"axG",@progbits,_ZN13CMyUnknownImpC2Ev,comdat
	.weak	_ZN13CMyUnknownImpC2Ev  # -- Begin function _ZN13CMyUnknownImpC2Ev
	.p2align	4, 0x90
	.type	_ZN13CMyUnknownImpC2Ev,@function
_ZN13CMyUnknownImpC2Ev:                 # @_ZN13CMyUnknownImpC2Ev
.Lfunc_begin64:
	.loc	20 155 0                # /home/chris/test-suite/MultiSource/Benchmarks/7zip/CPP/Common/MyCom.h:155:0
	.cfi_startproc
# %bb.0:                                # %entry
	#DEBUG_VALUE: CMyUnknownImp:this <- $rdi
	.loc	20 155 20 prologue_end  # /home/chris/test-suite/MultiSource/Benchmarks/7zip/CPP/Common/MyCom.h:155:20
	movl	$0, (%rdi)
	.loc	20 155 37 is_stmt 0     # /home/chris/test-suite/MultiSource/Benchmarks/7zip/CPP/Common/MyCom.h:155:37
	retq
.Ltmp631:
.Lfunc_end64:
	.size	_ZN13CMyUnknownImpC2Ev, .Lfunc_end64-_ZN13CMyUnknownImpC2Ev
	.cfi_endproc
                                        # -- End function
	.section	.text._ZN13CObjectVectorIN8NArchive4NSwf4CTagEEC2Ev,"axG",@progbits,_ZN13CObjectVectorIN8NArchive4NSwf4CTagEEC2Ev,comdat
	.weak	_ZN13CObjectVectorIN8NArchive4NSwf4CTagEEC2Ev # -- Begin function _ZN13CObjectVectorIN8NArchive4NSwf4CTagEEC2Ev
	.p2align	4, 0x90
	.type	_ZN13CObjectVectorIN8NArchive4NSwf4CTagEEC2Ev,@function
_ZN13CObjectVectorIN8NArchive4NSwf4CTagEEC2Ev: # @_ZN13CObjectVectorIN8NArchive4NSwf4CTagEEC2Ev
.Lfunc_begin65:
	.loc	21 183 0 is_stmt 1      # /home/chris/test-suite/MultiSource/Benchmarks/7zip/CPP/Common/MyVector.h:183:0
	.cfi_startproc
# %bb.0:                                # %entry
	pushq	%rbx
	.cfi_def_cfa_offset 16
	.cfi_offset %rbx, -16
	movq	%rdi, %rbx
.Ltmp632:
	#DEBUG_VALUE: CObjectVector:this <- $rbx
	.loc	21 183 3 prologue_end   # /home/chris/test-suite/MultiSource/Benchmarks/7zip/CPP/Common/MyVector.h:183:3
	movq	%rbx, %rdi
	callq	_ZN13CRecordVectorIPvEC2Ev
	movabsq	$_ZTV13CObjectVectorIN8NArchive4NSwf4CTagEE, %rax
	addq	$16, %rax
	.loc	21 183 19 is_stmt 0     # /home/chris/test-suite/MultiSource/Benchmarks/7zip/CPP/Common/MyVector.h:183:19
	movq	%rax, (%rbx)
	.loc	21 183 20               # /home/chris/test-suite/MultiSource/Benchmarks/7zip/CPP/Common/MyVector.h:183:20
	popq	%rbx
.Ltmp633:
	.cfi_def_cfa_offset 8
	retq
.Ltmp634:
.Lfunc_end65:
	.size	_ZN13CObjectVectorIN8NArchive4NSwf4CTagEEC2Ev, .Lfunc_end65-_ZN13CObjectVectorIN8NArchive4NSwf4CTagEEC2Ev
	.cfi_endproc
                                        # -- End function
	.section	.text._ZN8IUnknownC2Ev,"axG",@progbits,_ZN8IUnknownC2Ev,comdat
	.weak	_ZN8IUnknownC2Ev        # -- Begin function _ZN8IUnknownC2Ev
	.p2align	4, 0x90
	.type	_ZN8IUnknownC2Ev,@function
_ZN8IUnknownC2Ev:                       # @_ZN8IUnknownC2Ev
.Lfunc_begin66:
	.loc	1 110 0 is_stmt 1       # /home/chris/test-suite/MultiSource/Benchmarks/7zip/CPP/Windows/../Common/MyWindows.h:110:0
	.cfi_startproc
# %bb.0:                                # %entry
	movabsq	$_ZTV8IUnknown, %rax
	addq	$16, %rax
.Ltmp635:
	#DEBUG_VALUE: IUnknown:this <- $rdi
	.loc	1 110 8 prologue_end    # /home/chris/test-suite/MultiSource/Benchmarks/7zip/CPP/Windows/../Common/MyWindows.h:110:8
	movq	%rax, (%rdi)
	retq
.Ltmp636:
.Lfunc_end66:
	.size	_ZN8IUnknownC2Ev, .Lfunc_end66-_ZN8IUnknownC2Ev
	.cfi_endproc
                                        # -- End function
	.section	.text._ZN8IUnknownD2Ev,"axG",@progbits,_ZN8IUnknownD2Ev,comdat
	.weak	_ZN8IUnknownD2Ev        # -- Begin function _ZN8IUnknownD2Ev
	.p2align	4, 0x90
	.type	_ZN8IUnknownD2Ev,@function
_ZN8IUnknownD2Ev:                       # @_ZN8IUnknownD2Ev
.Lfunc_begin67:
	.loc	1 116 0                 # /home/chris/test-suite/MultiSource/Benchmarks/7zip/CPP/Windows/../Common/MyWindows.h:116:0
	.cfi_startproc
# %bb.0:                                # %entry
                                        # kill: killed $rdi
	#DEBUG_VALUE: ~IUnknown:this <- undef
	.loc	1 116 24 prologue_end   # /home/chris/test-suite/MultiSource/Benchmarks/7zip/CPP/Windows/../Common/MyWindows.h:116:24
	retq
.Ltmp637:
.Lfunc_end67:
	.size	_ZN8IUnknownD2Ev, .Lfunc_end67-_ZN8IUnknownD2Ev
	.cfi_endproc
                                        # -- End function
	.section	.text._ZN10IInArchiveD0Ev,"axG",@progbits,_ZN10IInArchiveD0Ev,comdat
	.weak	_ZN10IInArchiveD0Ev     # -- Begin function _ZN10IInArchiveD0Ev
	.p2align	4, 0x90
	.type	_ZN10IInArchiveD0Ev,@function
_ZN10IInArchiveD0Ev:                    # @_ZN10IInArchiveD0Ev
.Lfunc_begin68:
	.loc	7 136 0                 # /home/chris/test-suite/MultiSource/Benchmarks/7zip/CPP/7zip/Archive/../Common/../Archive/IArchive.h:136:0
	.cfi_startproc
# %bb.0:                                # %entry
                                        # kill: killed $rdi
	#DEBUG_VALUE: ~IInArchive:this <- undef
	.loc	7 136 1 prologue_end    # /home/chris/test-suite/MultiSource/Benchmarks/7zip/CPP/7zip/Archive/../Common/../Archive/IArchive.h:136:1
	ud2
.Ltmp638:
.Lfunc_end68:
	.size	_ZN10IInArchiveD0Ev, .Lfunc_end68-_ZN10IInArchiveD0Ev
	.cfi_endproc
                                        # -- End function
	.section	.text._ZN8IUnknownD0Ev,"axG",@progbits,_ZN8IUnknownD0Ev,comdat
	.weak	_ZN8IUnknownD0Ev        # -- Begin function _ZN8IUnknownD0Ev
	.p2align	4, 0x90
	.type	_ZN8IUnknownD0Ev,@function
_ZN8IUnknownD0Ev:                       # @_ZN8IUnknownD0Ev
.Lfunc_begin69:
	.loc	1 116 0                 # /home/chris/test-suite/MultiSource/Benchmarks/7zip/CPP/Windows/../Common/MyWindows.h:116:0
	.cfi_startproc
# %bb.0:                                # %entry
                                        # kill: killed $rdi
	#DEBUG_VALUE: ~IUnknown:this <- undef
	.loc	1 116 23 prologue_end   # /home/chris/test-suite/MultiSource/Benchmarks/7zip/CPP/Windows/../Common/MyWindows.h:116:23
	ud2
.Ltmp639:
.Lfunc_end69:
	.size	_ZN8IUnknownD0Ev, .Lfunc_end69-_ZN8IUnknownD0Ev
	.cfi_endproc
                                        # -- End function
	.section	.text._ZN15IArchiveOpenSeqD0Ev,"axG",@progbits,_ZN15IArchiveOpenSeqD0Ev,comdat
	.weak	_ZN15IArchiveOpenSeqD0Ev # -- Begin function _ZN15IArchiveOpenSeqD0Ev
	.p2align	4, 0x90
	.type	_ZN15IArchiveOpenSeqD0Ev,@function
_ZN15IArchiveOpenSeqD0Ev:               # @_ZN15IArchiveOpenSeqD0Ev
.Lfunc_begin70:
	.loc	7 141 0                 # /home/chris/test-suite/MultiSource/Benchmarks/7zip/CPP/7zip/Archive/../Common/../Archive/IArchive.h:141:0
	.cfi_startproc
# %bb.0:                                # %entry
                                        # kill: killed $rdi
	#DEBUG_VALUE: ~IArchiveOpenSeq:this <- undef
	.loc	7 141 1 prologue_end    # /home/chris/test-suite/MultiSource/Benchmarks/7zip/CPP/7zip/Archive/../Common/../Archive/IArchive.h:141:1
	ud2
.Ltmp640:
.Lfunc_end70:
	.size	_ZN15IArchiveOpenSeqD0Ev, .Lfunc_end70-_ZN15IArchiveOpenSeqD0Ev
	.cfi_endproc
                                        # -- End function
	.section	.text._ZN13CRecordVectorIPvEC2Ev,"axG",@progbits,_ZN13CRecordVectorIPvEC2Ev,comdat
	.weak	_ZN13CRecordVectorIPvEC2Ev # -- Begin function _ZN13CRecordVectorIPvEC2Ev
	.p2align	4, 0x90
	.type	_ZN13CRecordVectorIPvEC2Ev,@function
_ZN13CRecordVectorIPvEC2Ev:             # @_ZN13CRecordVectorIPvEC2Ev
.Lfunc_begin71:
	.loc	21 39 0                 # /home/chris/test-suite/MultiSource/Benchmarks/7zip/CPP/Common/MyVector.h:39:0
	.cfi_startproc
# %bb.0:                                # %entry
	pushq	%rbx
	.cfi_def_cfa_offset 16
	.cfi_offset %rbx, -16
	movq	%rdi, %rbx
.Ltmp641:
	#DEBUG_VALUE: CRecordVector:this <- $rbx
	.loc	21 39 20 prologue_end   # /home/chris/test-suite/MultiSource/Benchmarks/7zip/CPP/Common/MyVector.h:39:20
	movq	%rbx, %rdi
	movl	$8, %esi
	callq	_ZN17CBaseRecordVectorC2Em
	movabsq	$_ZTV13CRecordVectorIPvE, %rax
	addq	$16, %rax
	.loc	21 39 48 is_stmt 0      # /home/chris/test-suite/MultiSource/Benchmarks/7zip/CPP/Common/MyVector.h:39:48
	movq	%rax, (%rbx)
	.loc	21 39 49                # /home/chris/test-suite/MultiSource/Benchmarks/7zip/CPP/Common/MyVector.h:39:49
	popq	%rbx
.Ltmp642:
	.cfi_def_cfa_offset 8
	retq
.Ltmp643:
.Lfunc_end71:
	.size	_ZN13CRecordVectorIPvEC2Ev, .Lfunc_end71-_ZN13CRecordVectorIPvEC2Ev
	.cfi_endproc
                                        # -- End function
	.section	.text._ZN13CObjectVectorIN8NArchive4NSwf4CTagEED2Ev,"axG",@progbits,_ZN13CObjectVectorIN8NArchive4NSwf4CTagEED2Ev,comdat
	.weak	_ZN13CObjectVectorIN8NArchive4NSwf4CTagEED2Ev # -- Begin function _ZN13CObjectVectorIN8NArchive4NSwf4CTagEED2Ev
	.p2align	4, 0x90
	.type	_ZN13CObjectVectorIN8NArchive4NSwf4CTagEED2Ev,@function
_ZN13CObjectVectorIN8NArchive4NSwf4CTagEED2Ev: # @_ZN13CObjectVectorIN8NArchive4NSwf4CTagEED2Ev
.Lfunc_begin72:
	.loc	21 184 0 is_stmt 1      # /home/chris/test-suite/MultiSource/Benchmarks/7zip/CPP/Common/MyVector.h:184:0
	.cfi_startproc
	.cfi_personality 3, __gxx_personality_v0
	.cfi_lsda 3, .Lexception13
# %bb.0:                                # %entry
	pushq	%r14
	.cfi_def_cfa_offset 16
	pushq	%rbx
	.cfi_def_cfa_offset 24
	pushq	%rax
	.cfi_def_cfa_offset 32
	.cfi_offset %rbx, -24
	.cfi_offset %r14, -16
	movq	%rdi, %rbx
.Ltmp647:
	#DEBUG_VALUE: ~CObjectVector:this <- $rbx
	.loc	21 184 20 prologue_end  # /home/chris/test-suite/MultiSource/Benchmarks/7zip/CPP/Common/MyVector.h:184:20
	movq	$_ZTV13CObjectVectorIN8NArchive4NSwf4CTagEE+16, (%rbx)
.Ltmp644:
.Ltmp648:
	.loc	21 184 22 is_stmt 0     # /home/chris/test-suite/MultiSource/Benchmarks/7zip/CPP/Common/MyVector.h:184:22
	movq	%rbx, %rdi
	callq	_ZN17CBaseRecordVector5ClearEv
.Ltmp645:
	jmp	.LBB72_1
.Ltmp649:
.LBB72_1:                               # %invoke.cont
	#DEBUG_VALUE: ~CObjectVector:this <- $rbx
	.loc	21 184 31               # /home/chris/test-suite/MultiSource/Benchmarks/7zip/CPP/Common/MyVector.h:184:31
	movq	%rbx, %rdi
	addq	$8, %rsp
	.cfi_def_cfa_offset 24
	popq	%rbx
.Ltmp650:
	.cfi_def_cfa_offset 16
	popq	%r14
	.cfi_def_cfa_offset 8
	jmp	_ZN17CBaseRecordVectorD2Ev # TAILCALL
.LBB72_2:                               # %lpad
	.cfi_def_cfa_offset 32
.Ltmp651:
	#DEBUG_VALUE: ~CObjectVector:this <- $rbx
.Ltmp646:
                                        # kill: killed $rdx
	.loc	21 0 31                 # /home/chris/test-suite/MultiSource/Benchmarks/7zip/CPP/Common/MyVector.h:0:31
	movq	%rax, %r14
	.loc	21 184 31               # /home/chris/test-suite/MultiSource/Benchmarks/7zip/CPP/Common/MyVector.h:184:31
	movq	%rbx, %rdi
	callq	_ZN17CBaseRecordVectorD2Ev
	movq	%r14, %rdi
	callq	__clang_call_terminate
.Ltmp652:
.Lfunc_end72:
	.size	_ZN13CObjectVectorIN8NArchive4NSwf4CTagEED2Ev, .Lfunc_end72-_ZN13CObjectVectorIN8NArchive4NSwf4CTagEED2Ev
	.cfi_endproc
	.section	.gcc_except_table,"a",@progbits
	.p2align	2
GCC_except_table72:
.Lexception13:
	.byte	255                     # @LPStart Encoding = omit
	.byte	3                       # @TType Encoding = udata4
	.uleb128 .Lttbase7-.Lttbaseref7
.Lttbaseref7:
	.byte	1                       # Call site Encoding = uleb128
	.uleb128 .Lcst_end13-.Lcst_begin13
.Lcst_begin13:
	.uleb128 .Ltmp644-.Lfunc_begin72 # >> Call Site 1 <<
	.uleb128 .Ltmp645-.Ltmp644      #   Call between .Ltmp644 and .Ltmp645
	.uleb128 .Ltmp646-.Lfunc_begin72 #     jumps to .Ltmp646
	.byte	1                       #   On action: 1
.Lcst_end13:
	.byte	1                       # >> Action Record 1 <<
                                        #   Catch TypeInfo 1
	.byte	0                       #   No further actions
	.p2align	2
                                        # >> Catch TypeInfos <<
	.long	0                       # TypeInfo 1
.Lttbase7:
	.p2align	2
                                        # -- End function
	.section	.text._ZN13CObjectVectorIN8NArchive4NSwf4CTagEED0Ev,"axG",@progbits,_ZN13CObjectVectorIN8NArchive4NSwf4CTagEED0Ev,comdat
	.weak	_ZN13CObjectVectorIN8NArchive4NSwf4CTagEED0Ev # -- Begin function _ZN13CObjectVectorIN8NArchive4NSwf4CTagEED0Ev
	.p2align	4, 0x90
	.type	_ZN13CObjectVectorIN8NArchive4NSwf4CTagEED0Ev,@function
_ZN13CObjectVectorIN8NArchive4NSwf4CTagEED0Ev: # @_ZN13CObjectVectorIN8NArchive4NSwf4CTagEED0Ev
.Lfunc_begin73:
	.loc	21 184 0 is_stmt 1      # /home/chris/test-suite/MultiSource/Benchmarks/7zip/CPP/Common/MyVector.h:184:0
	.cfi_startproc
# %bb.0:                                # %entry
	pushq	%rbx
	.cfi_def_cfa_offset 16
	.cfi_offset %rbx, -16
	movq	%rdi, %rbx
.Ltmp653:
	#DEBUG_VALUE: ~CObjectVector:this <- $rbx
	.loc	21 184 20 prologue_end  # /home/chris/test-suite/MultiSource/Benchmarks/7zip/CPP/Common/MyVector.h:184:20
	movq	%rbx, %rdi
	callq	_ZN13CObjectVectorIN8NArchive4NSwf4CTagEED2Ev
	movq	%rbx, %rdi
	popq	%rbx
.Ltmp654:
	.cfi_def_cfa_offset 8
	jmp	_ZdlPv                  # TAILCALL
.Ltmp655:
.Lfunc_end73:
	.size	_ZN13CObjectVectorIN8NArchive4NSwf4CTagEED0Ev, .Lfunc_end73-_ZN13CObjectVectorIN8NArchive4NSwf4CTagEED0Ev
	.cfi_endproc
                                        # -- End function
	.section	.text._ZN13CObjectVectorIN8NArchive4NSwf4CTagEE6DeleteEii,"axG",@progbits,_ZN13CObjectVectorIN8NArchive4NSwf4CTagEE6DeleteEii,comdat
	.weak	_ZN13CObjectVectorIN8NArchive4NSwf4CTagEE6DeleteEii # -- Begin function _ZN13CObjectVectorIN8NArchive4NSwf4CTagEE6DeleteEii
	.p2align	4, 0x90
	.type	_ZN13CObjectVectorIN8NArchive4NSwf4CTagEE6DeleteEii,@function
_ZN13CObjectVectorIN8NArchive4NSwf4CTagEE6DeleteEii: # @_ZN13CObjectVectorIN8NArchive4NSwf4CTagEE6DeleteEii
.Lfunc_begin74:
	.loc	21 208 0                # /home/chris/test-suite/MultiSource/Benchmarks/7zip/CPP/Common/MyVector.h:208:0
	.cfi_startproc
# %bb.0:                                # %entry
	pushq	%rbp
	.cfi_def_cfa_offset 16
	pushq	%r15
	.cfi_def_cfa_offset 24
	pushq	%r14
	.cfi_def_cfa_offset 32
	pushq	%r12
	.cfi_def_cfa_offset 40
	pushq	%rbx
	.cfi_def_cfa_offset 48
	subq	$16, %rsp
	.cfi_def_cfa_offset 64
	.cfi_offset %rbx, -48
	.cfi_offset %r12, -40
	.cfi_offset %r14, -32
	.cfi_offset %r15, -24
	.cfi_offset %rbp, -16
	movl	%esi, %r14d
	movq	%rdi, %r15
.Ltmp656:
	#DEBUG_VALUE: Delete:num <- $edx
	#DEBUG_VALUE: Delete:index <- $r14d
	#DEBUG_VALUE: Delete:this <- $r15
	movl	%edx, 12(%rsp)
.Ltmp657:
	.loc	21 209 5 prologue_end   # /home/chris/test-suite/MultiSource/Benchmarks/7zip/CPP/Common/MyVector.h:209:5
	movq	%r15, %rdi
	movl	%r14d, %esi
	leaq	12(%rsp), %rdx
.Ltmp658:
	#DEBUG_VALUE: Delete:num <- [DW_OP_deref] $rdx
	callq	_ZNK17CBaseRecordVector22TestIndexAndCorrectNumEiRi
.Ltmp659:
	#DEBUG_VALUE: i <- 0
	.loc	21 210 25               # /home/chris/test-suite/MultiSource/Benchmarks/7zip/CPP/Common/MyVector.h:210:25
	movl	12(%rsp), %edx
.Ltmp660:
	#DEBUG_VALUE: Delete:num <- $edx
	.loc	21 210 23 is_stmt 0     # /home/chris/test-suite/MultiSource/Benchmarks/7zip/CPP/Common/MyVector.h:210:23
	cmpl	$0, %edx
.Ltmp661:
	.loc	21 210 5                # /home/chris/test-suite/MultiSource/Benchmarks/7zip/CPP/Common/MyVector.h:210:5
	jle	.LBB74_2
.Ltmp662:
# %bb.1:                                # %for.body.lr.ph
	#DEBUG_VALUE: i <- 0
	#DEBUG_VALUE: Delete:this <- $r15
	#DEBUG_VALUE: Delete:index <- $r14d
	#DEBUG_VALUE: Delete:num <- $edx
	.loc	21 0 5                  # /home/chris/test-suite/MultiSource/Benchmarks/7zip/CPP/Common/MyVector.h:0:5
	xorl	%ebx, %ebx
	.loc	21 210 5                # /home/chris/test-suite/MultiSource/Benchmarks/7zip/CPP/Common/MyVector.h:210:5
	movslq	%r14d, %r12
	shlq	$3, %r12
	jmp	.LBB74_3
.Ltmp663:
.LBB74_2:                               # %for.cond.cleanup
	#DEBUG_VALUE: Delete:this <- $r15
	#DEBUG_VALUE: Delete:index <- $r14d
	#DEBUG_VALUE: Delete:num <- $edx
	.loc	21 212 21 is_stmt 1     # /home/chris/test-suite/MultiSource/Benchmarks/7zip/CPP/Common/MyVector.h:212:21
	movq	%r15, %rdi
	movl	%r14d, %esi
	callq	_ZN17CBaseRecordVector6DeleteEii
.Ltmp664:
	.loc	21 213 3                # /home/chris/test-suite/MultiSource/Benchmarks/7zip/CPP/Common/MyVector.h:213:3
	addq	$16, %rsp
	.cfi_def_cfa_offset 48
	popq	%rbx
	.cfi_def_cfa_offset 40
	popq	%r12
	.cfi_def_cfa_offset 32
	popq	%r14
.Ltmp665:
	.cfi_def_cfa_offset 24
	popq	%r15
.Ltmp666:
	.cfi_def_cfa_offset 16
	popq	%rbp
	.cfi_def_cfa_offset 8
	retq
.LBB74_3:                               # %for.body
                                        # =>This Inner Loop Header: Depth=1
	.cfi_def_cfa_offset 64
.Ltmp667:
	#DEBUG_VALUE: Delete:this <- $r15
	#DEBUG_VALUE: Delete:index <- $r14d
	#DEBUG_VALUE: Delete:num <- $edx
	#DEBUG_VALUE: i <- $rbx
	.loc	21 211 30               # /home/chris/test-suite/MultiSource/Benchmarks/7zip/CPP/Common/MyVector.h:211:30
	movq	16(%r15), %rax
	.loc	21 211 20 is_stmt 0     # /home/chris/test-suite/MultiSource/Benchmarks/7zip/CPP/Common/MyVector.h:211:20
	addq	%r12, %rax
	movq	%rbx, %rcx
	shlq	$3, %rcx
	movq	(%rax,%rcx), %rbp
	.loc	21 211 7                # /home/chris/test-suite/MultiSource/Benchmarks/7zip/CPP/Common/MyVector.h:211:7
	cmpq	$0, %rbp
	je	.LBB74_5
.Ltmp668:
# %bb.4:                                # %delete.notnull
                                        #   in Loop: Header=BB74_3 Depth=1
	#DEBUG_VALUE: i <- $rbx
	#DEBUG_VALUE: Delete:this <- $r15
	#DEBUG_VALUE: Delete:index <- $r14d
	#DEBUG_VALUE: Delete:num <- $edx
	movq	%rbp, %rdi
	callq	_ZN8NArchive4NSwf4CTagD2Ev
.Ltmp669:
	movq	%rbp, %rdi
	callq	_ZdlPv
.Ltmp670:
.LBB74_5:                               # %for.inc
                                        #   in Loop: Header=BB74_3 Depth=1
	#DEBUG_VALUE: i <- $rbx
	#DEBUG_VALUE: Delete:this <- $r15
	#DEBUG_VALUE: Delete:index <- $r14d
	.loc	21 210 31 is_stmt 1     # /home/chris/test-suite/MultiSource/Benchmarks/7zip/CPP/Common/MyVector.h:210:31
	addq	$1, %rbx
.Ltmp671:
	#DEBUG_VALUE: i <- $rbx
	.loc	21 210 25 is_stmt 0     # /home/chris/test-suite/MultiSource/Benchmarks/7zip/CPP/Common/MyVector.h:210:25
	movl	12(%rsp), %edx
.Ltmp672:
	#DEBUG_VALUE: Delete:num <- $edx
	.loc	21 210 23               # /home/chris/test-suite/MultiSource/Benchmarks/7zip/CPP/Common/MyVector.h:210:23
	movslq	%edx, %rax
	cmpq	%rax, %rbx
.Ltmp673:
	.loc	21 210 5                # /home/chris/test-suite/MultiSource/Benchmarks/7zip/CPP/Common/MyVector.h:210:5
	jl	.LBB74_3
	jmp	.LBB74_2
.Ltmp674:
.Lfunc_end74:
	.size	_ZN13CObjectVectorIN8NArchive4NSwf4CTagEE6DeleteEii, .Lfunc_end74-_ZN13CObjectVectorIN8NArchive4NSwf4CTagEE6DeleteEii
	.cfi_endproc
                                        # -- End function
	.section	.text._ZN17CBaseRecordVectorC2Em,"axG",@progbits,_ZN17CBaseRecordVectorC2Em,comdat
	.weak	_ZN17CBaseRecordVectorC2Em # -- Begin function _ZN17CBaseRecordVectorC2Em
	.p2align	4, 0x90
	.type	_ZN17CBaseRecordVectorC2Em,@function
_ZN17CBaseRecordVectorC2Em:             # @_ZN17CBaseRecordVectorC2Em
.Lfunc_begin75:
	.loc	21 22 0 is_stmt 1       # /home/chris/test-suite/MultiSource/Benchmarks/7zip/CPP/Common/MyVector.h:22:0
	.cfi_startproc
# %bb.0:                                # %entry
	pushq	%r14
	.cfi_def_cfa_offset 16
	pushq	%rbx
	.cfi_def_cfa_offset 24
	pushq	%rax
	.cfi_def_cfa_offset 32
	.cfi_offset %rbx, -24
	.cfi_offset %r14, -16
	movq	%rsi, %r14
	movq	%rdi, %rbx
	movabsq	$_ZTV17CBaseRecordVector, %rax
	addq	$16, %rax
.Ltmp675:
	#DEBUG_VALUE: CBaseRecordVector:itemSize <- $r14
	#DEBUG_VALUE: CBaseRecordVector:this <- $rbx
	.loc	21 22 94 prologue_end   # /home/chris/test-suite/MultiSource/Benchmarks/7zip/CPP/Common/MyVector.h:22:94
	movq	%rax, (%rbx)
	.loc	21 22 39 is_stmt 0      # /home/chris/test-suite/MultiSource/Benchmarks/7zip/CPP/Common/MyVector.h:22:39
	movq	%rbx, %rdi
	addq	$8, %rdi
	.loc	21 22 53                # /home/chris/test-suite/MultiSource/Benchmarks/7zip/CPP/Common/MyVector.h:22:53
	xorl	%esi, %esi
	movl	$16, %edx
	callq	memset
	.loc	21 22 74                # /home/chris/test-suite/MultiSource/Benchmarks/7zip/CPP/Common/MyVector.h:22:74
	movq	%r14, 24(%rbx)
	.loc	21 22 95                # /home/chris/test-suite/MultiSource/Benchmarks/7zip/CPP/Common/MyVector.h:22:95
	addq	$8, %rsp
	.cfi_def_cfa_offset 24
	popq	%rbx
.Ltmp676:
	.cfi_def_cfa_offset 16
	popq	%r14
.Ltmp677:
	.cfi_def_cfa_offset 8
	retq
.Ltmp678:
.Lfunc_end75:
	.size	_ZN17CBaseRecordVectorC2Em, .Lfunc_end75-_ZN17CBaseRecordVectorC2Em
	.cfi_endproc
                                        # -- End function
	.section	.text._ZN13CRecordVectorIPvED0Ev,"axG",@progbits,_ZN13CRecordVectorIPvED0Ev,comdat
	.weak	_ZN13CRecordVectorIPvED0Ev # -- Begin function _ZN13CRecordVectorIPvED0Ev
	.p2align	4, 0x90
	.type	_ZN13CRecordVectorIPvED0Ev,@function
_ZN13CRecordVectorIPvED0Ev:             # @_ZN13CRecordVectorIPvED0Ev
.Lfunc_begin76:
	.loc	21 36 0 is_stmt 1       # /home/chris/test-suite/MultiSource/Benchmarks/7zip/CPP/Common/MyVector.h:36:0
	.cfi_startproc
# %bb.0:                                # %entry
	pushq	%rbx
	.cfi_def_cfa_offset 16
	.cfi_offset %rbx, -16
	movq	%rdi, %rbx
.Ltmp679:
	#DEBUG_VALUE: ~CRecordVector:this <- $rbx
	.loc	21 36 7 prologue_end    # /home/chris/test-suite/MultiSource/Benchmarks/7zip/CPP/Common/MyVector.h:36:7
	movq	%rbx, %rdi
	callq	_ZN17CBaseRecordVectorD2Ev
	movq	%rbx, %rdi
	popq	%rbx
.Ltmp680:
	.cfi_def_cfa_offset 8
	jmp	_ZdlPv                  # TAILCALL
.Ltmp681:
.Lfunc_end76:
	.size	_ZN13CRecordVectorIPvED0Ev, .Lfunc_end76-_ZN13CRecordVectorIPvED0Ev
	.cfi_endproc
                                        # -- End function
	.section	.text._ZNK17CBaseRecordVector22TestIndexAndCorrectNumEiRi,"axG",@progbits,_ZNK17CBaseRecordVector22TestIndexAndCorrectNumEiRi,comdat
	.weak	_ZNK17CBaseRecordVector22TestIndexAndCorrectNumEiRi # -- Begin function _ZNK17CBaseRecordVector22TestIndexAndCorrectNumEiRi
	.p2align	4, 0x90
	.type	_ZNK17CBaseRecordVector22TestIndexAndCorrectNumEiRi,@function
_ZNK17CBaseRecordVector22TestIndexAndCorrectNumEiRi: # @_ZNK17CBaseRecordVector22TestIndexAndCorrectNumEiRi
.Lfunc_begin77:
	.loc	21 20 0                 # /home/chris/test-suite/MultiSource/Benchmarks/7zip/CPP/Common/MyVector.h:20:0
	.cfi_startproc
# %bb.0:                                # %entry
	#DEBUG_VALUE: TestIndexAndCorrectNum:this <- $rdi
	#DEBUG_VALUE: TestIndexAndCorrectNum:index <- $esi
	#DEBUG_VALUE: TestIndexAndCorrectNum:num <- $rdx
	.loc	21 20 17 prologue_end   # /home/chris/test-suite/MultiSource/Benchmarks/7zip/CPP/Common/MyVector.h:20:17
	movl	%esi, %ecx
	addl	(%rdx), %ecx
	.loc	21 20 25 is_stmt 0      # /home/chris/test-suite/MultiSource/Benchmarks/7zip/CPP/Common/MyVector.h:20:25
	movl	12(%rdi), %eax
	.loc	21 20 23                # /home/chris/test-suite/MultiSource/Benchmarks/7zip/CPP/Common/MyVector.h:20:23
	cmpl	%eax, %ecx
.Ltmp682:
	.loc	21 20 11                # /home/chris/test-suite/MultiSource/Benchmarks/7zip/CPP/Common/MyVector.h:20:11
	jle	.LBB77_2
.Ltmp683:
# %bb.1:                                # %if.then
	#DEBUG_VALUE: TestIndexAndCorrectNum:num <- $rdx
	#DEBUG_VALUE: TestIndexAndCorrectNum:index <- $esi
	#DEBUG_VALUE: TestIndexAndCorrectNum:this <- $rdi
	.loc	21 20 44                # /home/chris/test-suite/MultiSource/Benchmarks/7zip/CPP/Common/MyVector.h:20:44
	subl	%esi, %eax
	.loc	21 20 36                # /home/chris/test-suite/MultiSource/Benchmarks/7zip/CPP/Common/MyVector.h:20:36
	movl	%eax, (%rdx)
.Ltmp684:
.LBB77_2:                               # %if.end
	#DEBUG_VALUE: TestIndexAndCorrectNum:num <- $rdx
	#DEBUG_VALUE: TestIndexAndCorrectNum:index <- $esi
	#DEBUG_VALUE: TestIndexAndCorrectNum:this <- $rdi
	.loc	21 20 53                # /home/chris/test-suite/MultiSource/Benchmarks/7zip/CPP/Common/MyVector.h:20:53
	retq
.Ltmp685:
.Lfunc_end77:
	.size	_ZNK17CBaseRecordVector22TestIndexAndCorrectNumEiRi, .Lfunc_end77-_ZNK17CBaseRecordVector22TestIndexAndCorrectNumEiRi
	.cfi_endproc
                                        # -- End function
	.section	.text._ZeqRK4GUIDS1_,"axG",@progbits,_ZeqRK4GUIDS1_,comdat
	.weak	_ZeqRK4GUIDS1_          # -- Begin function _ZeqRK4GUIDS1_
	.p2align	4, 0x90
	.type	_ZeqRK4GUIDS1_,@function
_ZeqRK4GUIDS1_:                         # @_ZeqRK4GUIDS1_
.Lfunc_begin78:
	.loc	6 26 0 is_stmt 1        # /home/chris/test-suite/MultiSource/Benchmarks/7zip/CPP/Common/MyGuidDef.h:26:0
	.cfi_startproc
# %bb.0:                                # %entry
	xorl	%ecx, %ecx
.Ltmp686:
	#DEBUG_VALUE: i <- 0
	#DEBUG_VALUE: operator==:g2 <- $rsi
	#DEBUG_VALUE: operator==:g1 <- $rdi
	.loc	6 27 3 prologue_end     # /home/chris/test-suite/MultiSource/Benchmarks/7zip/CPP/Common/MyGuidDef.h:27:3
	jmp	.LBB78_2
.Ltmp687:
.LBB78_1:                               # %for.cond
                                        #   in Loop: Header=BB78_2 Depth=1
	#DEBUG_VALUE: i <- $rcx
	#DEBUG_VALUE: operator==:g1 <- $rdi
	#DEBUG_VALUE: operator==:g2 <- $rsi
	.loc	6 27 21 is_stmt 0       # /home/chris/test-suite/MultiSource/Benchmarks/7zip/CPP/Common/MyGuidDef.h:27:21
	cmpq	$16, %rcx
.Ltmp688:
	.loc	6 27 3                  # /home/chris/test-suite/MultiSource/Benchmarks/7zip/CPP/Common/MyGuidDef.h:27:3
	movl	$1, %eax
	je	.LBB78_3
.Ltmp689:
.LBB78_2:                               # %for.body
                                        # =>This Inner Loop Header: Depth=1
	#DEBUG_VALUE: operator==:g1 <- $rdi
	#DEBUG_VALUE: operator==:g2 <- $rsi
	.loc	6 0 3                   # /home/chris/test-suite/MultiSource/Benchmarks/7zip/CPP/Common/MyGuidDef.h:0:3
	xorl	%eax, %eax
.Ltmp690:
	#DEBUG_VALUE: i <- $rcx
	.loc	6 28 9 is_stmt 1        # /home/chris/test-suite/MultiSource/Benchmarks/7zip/CPP/Common/MyGuidDef.h:28:9
	movb	(%rdi,%rcx), %r8b
	.loc	6 28 38 is_stmt 0       # /home/chris/test-suite/MultiSource/Benchmarks/7zip/CPP/Common/MyGuidDef.h:28:38
	movb	(%rsi,%rcx), %dl
.Ltmp691:
	.loc	6 27 41 is_stmt 1       # /home/chris/test-suite/MultiSource/Benchmarks/7zip/CPP/Common/MyGuidDef.h:27:41
	addq	$1, %rcx
.Ltmp692:
	#DEBUG_VALUE: i <- $rcx
	.loc	6 28 35                 # /home/chris/test-suite/MultiSource/Benchmarks/7zip/CPP/Common/MyGuidDef.h:28:35
	cmpb	%dl, %r8b
.Ltmp693:
	.loc	6 28 9 is_stmt 0        # /home/chris/test-suite/MultiSource/Benchmarks/7zip/CPP/Common/MyGuidDef.h:28:9
	je	.LBB78_1
.Ltmp694:
.LBB78_3:                               # %cleanup
	#DEBUG_VALUE: operator==:g1 <- $rdi
	#DEBUG_VALUE: operator==:g2 <- $rsi
	.loc	6 31 1 is_stmt 1        # /home/chris/test-suite/MultiSource/Benchmarks/7zip/CPP/Common/MyGuidDef.h:31:1
	retq
.Ltmp695:
.Lfunc_end78:
	.size	_ZeqRK4GUIDS1_, .Lfunc_end78-_ZeqRK4GUIDS1_
	.cfi_endproc
                                        # -- End function
	.section	.text._ZN13CRecordVectorIPvEixEi,"axG",@progbits,_ZN13CRecordVectorIPvEixEi,comdat
	.weak	_ZN13CRecordVectorIPvEixEi # -- Begin function _ZN13CRecordVectorIPvEixEi
	.p2align	4, 0x90
	.type	_ZN13CRecordVectorIPvEixEi,@function
_ZN13CRecordVectorIPvEixEi:             # @_ZN13CRecordVectorIPvEixEi
.Lfunc_begin79:
	.loc	21 68 0                 # /home/chris/test-suite/MultiSource/Benchmarks/7zip/CPP/Common/MyVector.h:68:0
	.cfi_startproc
# %bb.0:                                # %entry
	#DEBUG_VALUE: operator[]:this <- $rdi
	#DEBUG_VALUE: operator[]:index <- $esi
	.loc	21 68 43 prologue_end   # /home/chris/test-suite/MultiSource/Benchmarks/7zip/CPP/Common/MyVector.h:68:43
	movq	16(%rdi), %rax
	.loc	21 68 37 is_stmt 0      # /home/chris/test-suite/MultiSource/Benchmarks/7zip/CPP/Common/MyVector.h:68:37
	movslq	%esi, %rcx
	shlq	$3, %rcx
	addq	%rcx, %rax
	.loc	21 68 30                # /home/chris/test-suite/MultiSource/Benchmarks/7zip/CPP/Common/MyVector.h:68:30
	retq
.Ltmp696:
.Lfunc_end79:
	.size	_ZN13CRecordVectorIPvEixEi, .Lfunc_end79-_ZN13CRecordVectorIPvEixEi
	.cfi_endproc
                                        # -- End function
	.section	.text._ZN13CRecordVectorIPvE3AddES0_,"axG",@progbits,_ZN13CRecordVectorIPvE3AddES0_,comdat
	.weak	_ZN13CRecordVectorIPvE3AddES0_ # -- Begin function _ZN13CRecordVectorIPvE3AddES0_
	.p2align	4, 0x90
	.type	_ZN13CRecordVectorIPvE3AddES0_,@function
_ZN13CRecordVectorIPvE3AddES0_:         # @_ZN13CRecordVectorIPvE3AddES0_
.Lfunc_begin80:
	.loc	21 55 0 is_stmt 1       # /home/chris/test-suite/MultiSource/Benchmarks/7zip/CPP/Common/MyVector.h:55:0
	.cfi_startproc
# %bb.0:                                # %entry
	pushq	%r14
	.cfi_def_cfa_offset 16
	pushq	%rbx
	.cfi_def_cfa_offset 24
	pushq	%rax
	.cfi_def_cfa_offset 32
	.cfi_offset %rbx, -24
	.cfi_offset %r14, -16
	movq	%rsi, %r14
	movq	%rdi, %rbx
.Ltmp697:
	#DEBUG_VALUE: Add:item <- $r14
	#DEBUG_VALUE: Add:this <- $rbx
	.loc	21 56 5 prologue_end    # /home/chris/test-suite/MultiSource/Benchmarks/7zip/CPP/Common/MyVector.h:56:5
	movq	%rbx, %rdi
	callq	_ZN17CBaseRecordVector18ReserveOnePositionEv
	.loc	21 57 11                # /home/chris/test-suite/MultiSource/Benchmarks/7zip/CPP/Common/MyVector.h:57:11
	movq	16(%rbx), %rcx
	.loc	21 57 19 is_stmt 0      # /home/chris/test-suite/MultiSource/Benchmarks/7zip/CPP/Common/MyVector.h:57:19
	movl	12(%rbx), %eax
	.loc	21 57 5                 # /home/chris/test-suite/MultiSource/Benchmarks/7zip/CPP/Common/MyVector.h:57:5
	movslq	%eax, %rdx
	.loc	21 57 26                # /home/chris/test-suite/MultiSource/Benchmarks/7zip/CPP/Common/MyVector.h:57:26
	movq	%r14, (%rcx,%rdx,8)
	.loc	21 58 17 is_stmt 1      # /home/chris/test-suite/MultiSource/Benchmarks/7zip/CPP/Common/MyVector.h:58:17
	movl	%eax, %ecx
	addl	$1, %ecx
	movl	%ecx, 12(%rbx)
	.loc	21 58 5 is_stmt 0       # /home/chris/test-suite/MultiSource/Benchmarks/7zip/CPP/Common/MyVector.h:58:5
	addq	$8, %rsp
	.cfi_def_cfa_offset 24
	popq	%rbx
.Ltmp698:
	.cfi_def_cfa_offset 16
	popq	%r14
.Ltmp699:
	.cfi_def_cfa_offset 8
	retq
.Ltmp700:
.Lfunc_end80:
	.size	_ZN13CRecordVectorIPvE3AddES0_, .Lfunc_end80-_ZN13CRecordVectorIPvE3AddES0_
	.cfi_endproc
                                        # -- End function
	.section	.text._ZN8NArchive4NSwf4CTagC2ERKS1_,"axG",@progbits,_ZN8NArchive4NSwf4CTagC2ERKS1_,comdat
	.weak	_ZN8NArchive4NSwf4CTagC2ERKS1_ # -- Begin function _ZN8NArchive4NSwf4CTagC2ERKS1_
	.p2align	4, 0x90
	.type	_ZN8NArchive4NSwf4CTagC2ERKS1_,@function
_ZN8NArchive4NSwf4CTagC2ERKS1_:         # @_ZN8NArchive4NSwf4CTagC2ERKS1_
.Lfunc_begin81:
	.loc	4 36 0 is_stmt 1        # /home/chris/test-suite/MultiSource/Benchmarks/7zip/CPP/7zip/Archive/SwfHandler.cpp:36:0
	.cfi_startproc
# %bb.0:                                # %entry
	#DEBUG_VALUE: CTag:this <- $rdi
	#DEBUG_VALUE: CTag: <- $rsi
	.loc	4 36 8 prologue_end     # /home/chris/test-suite/MultiSource/Benchmarks/7zip/CPP/7zip/Archive/SwfHandler.cpp:36:8
	movl	(%rsi), %eax
	movl	%eax, (%rdi)
	addq	$8, %rdi
.Ltmp701:
	addq	$8, %rsi
.Ltmp702:
	jmp	_ZN7CBufferIhEC2ERKS0_  # TAILCALL
.Ltmp703:
.Lfunc_end81:
	.size	_ZN8NArchive4NSwf4CTagC2ERKS1_, .Lfunc_end81-_ZN8NArchive4NSwf4CTagC2ERKS1_
	.cfi_endproc
                                        # -- End function
	.section	.text._ZN7CBufferIhEC2ERKS0_,"axG",@progbits,_ZN7CBufferIhEC2ERKS0_,comdat
	.weak	_ZN7CBufferIhEC2ERKS0_  # -- Begin function _ZN7CBufferIhEC2ERKS0_
	.p2align	4, 0x90
	.type	_ZN7CBufferIhEC2ERKS0_,@function
_ZN7CBufferIhEC2ERKS0_:                 # @_ZN7CBufferIhEC2ERKS0_
.Lfunc_begin82:
	.loc	9 21 0                  # /home/chris/test-suite/MultiSource/Benchmarks/7zip/CPP/Common/Buffer.h:21:0
	.cfi_startproc
# %bb.0:                                # %entry
	#DEBUG_VALUE: CBuffer:this <- $rdi
	.loc	9 21 59 prologue_end    # /home/chris/test-suite/MultiSource/Benchmarks/7zip/CPP/Common/Buffer.h:21:59
	movq	$_ZTV7CBufferIhE+16, (%rdi)
	.loc	9 21 49 is_stmt 0       # /home/chris/test-suite/MultiSource/Benchmarks/7zip/CPP/Common/Buffer.h:21:49
	xorps	%xmm0, %xmm0
	movups	%xmm0, 8(%rdi)
	#DEBUG_VALUE: CBuffer:buffer <- undef
.Ltmp704:
	.loc	9 21 67                 # /home/chris/test-suite/MultiSource/Benchmarks/7zip/CPP/Common/Buffer.h:21:67
	jmp	_ZN7CBufferIhEaSERKS0_  # TAILCALL
.Ltmp705:
.Lfunc_end82:
	.size	_ZN7CBufferIhEC2ERKS0_, .Lfunc_end82-_ZN7CBufferIhEC2ERKS0_
	.cfi_endproc
                                        # -- End function
	.section	.text._ZN7CBufferIhEaSERKS0_,"axG",@progbits,_ZN7CBufferIhEaSERKS0_,comdat
	.weak	_ZN7CBufferIhEaSERKS0_  # -- Begin function _ZN7CBufferIhEaSERKS0_
	.p2align	4, 0x90
	.type	_ZN7CBufferIhEaSERKS0_,@function
_ZN7CBufferIhEaSERKS0_:                 # @_ZN7CBufferIhEaSERKS0_
.Lfunc_begin83:
	.loc	9 45 0 is_stmt 1        # /home/chris/test-suite/MultiSource/Benchmarks/7zip/CPP/Common/Buffer.h:45:0
	.cfi_startproc
# %bb.0:                                # %entry
	pushq	%r14
	.cfi_def_cfa_offset 16
	pushq	%rbx
	.cfi_def_cfa_offset 24
	pushq	%rax
	.cfi_def_cfa_offset 32
	.cfi_offset %rbx, -24
	.cfi_offset %r14, -16
	movq	%rsi, %r14
	movq	%rdi, %rbx
.Ltmp706:
	#DEBUG_VALUE: operator=:buffer <- $r14
	#DEBUG_VALUE: operator=:this <- $rbx
	.loc	9 46 5 prologue_end     # /home/chris/test-suite/MultiSource/Benchmarks/7zip/CPP/Common/Buffer.h:46:5
	movq	%rbx, %rdi
	callq	_ZN7CBufferIhE4FreeEv
.Ltmp707:
	.loc	9 47 16                 # /home/chris/test-suite/MultiSource/Benchmarks/7zip/CPP/Common/Buffer.h:47:16
	movq	8(%r14), %rsi
