	.text
	.file	"SwfHandler.cpp"
	.file	1 "/home/chris/test-suite/MultiSource/Benchmarks/7zip/CPP/Windows/../Common/MyWindows.h"
	.file	2 "/home/chris/test-suite/MultiSource/Benchmarks/7zip/CPP/include_windows/windows.h"
	.file	3 "/home/chris/test-suite/MultiSource/Benchmarks/7zip/CPP/Common/../../C/Types.h"
	.file	4 "/home/chris/test-suite/MultiSource/Benchmarks/7zip/CPP/7zip/Archive/SwfHandler.cpp"
	.file	5 "/home/chris/test-suite/MultiSource/Benchmarks/7zip/CPP/7zip/Archive/../Common/RegisterArc.h"
	.file	6 "/home/chris/test-suite/MultiSource/Benchmarks/7zip/CPP/Common/MyGuidDef.h"
	.file	7 "/home/chris/test-suite/MultiSource/Benchmarks/7zip/CPP/7zip/Archive/../Common/../Archive/IArchive.h"
	.file	8 "/data/proj/compiler/llvm/llvm-project/build/lib/clang/10.0.0/include/stddef.h"
	.file	9 "/home/chris/test-suite/MultiSource/Benchmarks/7zip/CPP/Common/Buffer.h"
	.file	10 "/usr/include/stdlib.h"
	.file	11 "/usr/lib/gcc/x86_64-linux-gnu/7.4.0/../../../../include/c++/7.4.0/bits/std_abs.h"
	.file	12 "/usr/lib/gcc/x86_64-linux-gnu/7.4.0/../../../../include/c++/7.4.0/cstdlib"
	.file	13 "/usr/lib/gcc/x86_64-linux-gnu/7.4.0/../../../../include/c++/7.4.0/stdlib.h"
	.file	14 "/usr/include/x86_64-linux-gnu/bits/mathcalls.h"
	.file	15 "/usr/lib/gcc/x86_64-linux-gnu/7.4.0/../../../../include/c++/7.4.0/cmath"
	.file	16 "/usr/include/math.h"
	.file	17 "/usr/lib/gcc/x86_64-linux-gnu/7.4.0/../../../../include/c++/7.4.0/math.h"
	.globl	_ZN8NArchive4NSwf8CHandler21GetNumberOfPropertiesEPj # -- Begin function _ZN8NArchive4NSwf8CHandler21GetNumberOfPropertiesEPj
	.p2align	4, 0x90
	.type	_ZN8NArchive4NSwf8CHandler21GetNumberOfPropertiesEPj,@function
_ZN8NArchive4NSwf8CHandler21GetNumberOfPropertiesEPj: # @_ZN8NArchive4NSwf8CHandler21GetNumberOfPropertiesEPj
.Lfunc_begin0:
	.loc	4 66 0                  # /home/chris/test-suite/MultiSource/Benchmarks/7zip/CPP/7zip/Archive/SwfHandler.cpp:66:0
	.cfi_startproc
# %bb.0:
	pushq	%rbp
	.cfi_def_cfa_offset 16
	.cfi_offset %rbp, -16
	movq	%rsp, %rbp
	.cfi_def_cfa_register %rbp
	movq	%rdi, -16(%rbp)
	movq	%rsi, -8(%rbp)
.Ltmp0:
	.loc	4 66 1 prologue_end     # /home/chris/test-suite/MultiSource/Benchmarks/7zip/CPP/7zip/Archive/SwfHandler.cpp:66:1
	movq	-8(%rbp), %rax
	movl	$3, (%rax)
	xorl	%eax, %eax
	popq	%rbp
	.cfi_def_cfa %rsp, 8
	retq
.Ltmp1:
.Lfunc_end0:
	.size	_ZN8NArchive4NSwf8CHandler21GetNumberOfPropertiesEPj, .Lfunc_end0-_ZN8NArchive4NSwf8CHandler21GetNumberOfPropertiesEPj
	.cfi_endproc
	.file	18 "/home/chris/test-suite/MultiSource/Benchmarks/7zip/CPP/Common/MyCom.h"
	.file	19 "/home/chris/test-suite/MultiSource/Benchmarks/7zip/CPP/Common/MyVector.h"
                                        # -- End function
	.globl	_ZN8NArchive4NSwf8CHandler15GetPropertyInfoEjPPwPjPt # -- Begin function _ZN8NArchive4NSwf8CHandler15GetPropertyInfoEjPPwPjPt
	.p2align	4, 0x90
	.type	_ZN8NArchive4NSwf8CHandler15GetPropertyInfoEjPPwPjPt,@function
_ZN8NArchive4NSwf8CHandler15GetPropertyInfoEjPPwPjPt: # @_ZN8NArchive4NSwf8CHandler15GetPropertyInfoEjPPwPjPt
.Lfunc_begin1:
	.loc	4 66 0                  # /home/chris/test-suite/MultiSource/Benchmarks/7zip/CPP/7zip/Archive/SwfHandler.cpp:66:0
	.cfi_startproc
# %bb.0:
	pushq	%rbp
	.cfi_def_cfa_offset 16
	.cfi_offset %rbp, -16
	movq	%rsp, %rbp
	.cfi_def_cfa_register %rbp
	movq	%rdi, -48(%rbp)
	movl	%esi, -4(%rbp)
	movq	%rdx, -40(%rbp)
	movq	%rcx, -32(%rbp)
	movq	%r8, -24(%rbp)
.Ltmp2:
	.loc	4 66 1 prologue_end     # /home/chris/test-suite/MultiSource/Benchmarks/7zip/CPP/7zip/Archive/SwfHandler.cpp:66:1
	movl	-4(%rbp), %eax
	cmpq	$3, %rax
.Ltmp3:
	.loc	4 66 1 is_stmt 0        # /home/chris/test-suite/MultiSource/Benchmarks/7zip/CPP/7zip/Archive/SwfHandler.cpp:66:1
	jb	.LBB1_2
# %bb.1:
.Ltmp4:
	.loc	4 66 1                  # /home/chris/test-suite/MultiSource/Benchmarks/7zip/CPP/7zip/Archive/SwfHandler.cpp:66:1
	movl	$-2147024809, -8(%rbp)  # imm = 0x80070057
	jmp	.LBB1_3
.Ltmp5:
.LBB1_2:
	.loc	4 66 1                  # /home/chris/test-suite/MultiSource/Benchmarks/7zip/CPP/7zip/Archive/SwfHandler.cpp:66:1
	movl	-4(%rbp), %eax
	shlq	$4, %rax
	movabsq	$_ZN8NArchive4NSwf6kPropsE, %rcx
	addq	%rax, %rcx
	movq	%rcx, -16(%rbp)
	movq	-16(%rbp), %rax
	movl	8(%rax), %eax
	movq	-32(%rbp), %rcx
	movl	%eax, (%rcx)
	movq	-16(%rbp), %rax
	movw	12(%rax), %ax
	movq	-24(%rbp), %rcx
	movw	%ax, (%rcx)
	movq	-40(%rbp), %rax
	movq	$0, (%rax)
	movl	$0, -8(%rbp)
.LBB1_3:
	movl	-8(%rbp), %eax
	popq	%rbp
	.cfi_def_cfa %rsp, 8
	retq
.Ltmp6:
.Lfunc_end1:
	.size	_ZN8NArchive4NSwf8CHandler15GetPropertyInfoEjPPwPjPt, .Lfunc_end1-_ZN8NArchive4NSwf8CHandler15GetPropertyInfoEjPPwPjPt
	.cfi_endproc
                                        # -- End function
	.globl	_ZN8NArchive4NSwf8CHandler28GetNumberOfArchivePropertiesEPj # -- Begin function _ZN8NArchive4NSwf8CHandler28GetNumberOfArchivePropertiesEPj
	.p2align	4, 0x90
	.type	_ZN8NArchive4NSwf8CHandler28GetNumberOfArchivePropertiesEPj,@function
_ZN8NArchive4NSwf8CHandler28GetNumberOfArchivePropertiesEPj: # @_ZN8NArchive4NSwf8CHandler28GetNumberOfArchivePropertiesEPj
.Lfunc_begin2:
	.loc	4 67 0 is_stmt 1        # /home/chris/test-suite/MultiSource/Benchmarks/7zip/CPP/7zip/Archive/SwfHandler.cpp:67:0
	.cfi_startproc
# %bb.0:
	pushq	%rbp
	.cfi_def_cfa_offset 16
	.cfi_offset %rbp, -16
	movq	%rsp, %rbp
	.cfi_def_cfa_register %rbp
	movq	%rdi, -16(%rbp)
	movq	%rsi, -8(%rbp)
.Ltmp7:
	.loc	4 67 1 prologue_end     # /home/chris/test-suite/MultiSource/Benchmarks/7zip/CPP/7zip/Archive/SwfHandler.cpp:67:1
	movq	-8(%rbp), %rax
	movl	$0, (%rax)
	xorl	%eax, %eax
	popq	%rbp
	.cfi_def_cfa %rsp, 8
	retq
.Ltmp8:
.Lfunc_end2:
	.size	_ZN8NArchive4NSwf8CHandler28GetNumberOfArchivePropertiesEPj, .Lfunc_end2-_ZN8NArchive4NSwf8CHandler28GetNumberOfArchivePropertiesEPj
	.cfi_endproc
                                        # -- End function
	.globl	_ZN8NArchive4NSwf8CHandler22GetArchivePropertyInfoEjPPwPjPt # -- Begin function _ZN8NArchive4NSwf8CHandler22GetArchivePropertyInfoEjPPwPjPt
	.p2align	4, 0x90
	.type	_ZN8NArchive4NSwf8CHandler22GetArchivePropertyInfoEjPPwPjPt,@function
_ZN8NArchive4NSwf8CHandler22GetArchivePropertyInfoEjPPwPjPt: # @_ZN8NArchive4NSwf8CHandler22GetArchivePropertyInfoEjPPwPjPt
.Lfunc_begin3:
	.loc	4 67 0                  # /home/chris/test-suite/MultiSource/Benchmarks/7zip/CPP/7zip/Archive/SwfHandler.cpp:67:0
	.cfi_startproc
# %bb.0:
	pushq	%rbp
	.cfi_def_cfa_offset 16
	.cfi_offset %rbp, -16
	movq	%rsp, %rbp
	.cfi_def_cfa_register %rbp
	movq	%rdi, -40(%rbp)
	movl	%esi, -4(%rbp)
	movq	%rdx, -32(%rbp)
	movq	%rcx, -24(%rbp)
	movq	%r8, -16(%rbp)
.Ltmp9:
	.loc	4 67 1 prologue_end     # /home/chris/test-suite/MultiSource/Benchmarks/7zip/CPP/7zip/Archive/SwfHandler.cpp:67:1
	movl	$2147500033, %eax       # imm = 0x80004001
	popq	%rbp
	.cfi_def_cfa %rsp, 8
	retq
.Ltmp10:
.Lfunc_end3:
	.size	_ZN8NArchive4NSwf8CHandler22GetArchivePropertyInfoEjPPwPjPt, .Lfunc_end3-_ZN8NArchive4NSwf8CHandler22GetArchivePropertyInfoEjPPwPjPt
	.cfi_endproc
                                        # -- End function
	.globl	_ZN8NArchive4NSwf8CHandler18GetArchivePropertyEjP14tagPROPVARIANT # -- Begin function _ZN8NArchive4NSwf8CHandler18GetArchivePropertyEjP14tagPROPVARIANT
	.p2align	4, 0x90
	.type	_ZN8NArchive4NSwf8CHandler18GetArchivePropertyEjP14tagPROPVARIANT,@function
_ZN8NArchive4NSwf8CHandler18GetArchivePropertyEjP14tagPROPVARIANT: # @_ZN8NArchive4NSwf8CHandler18GetArchivePropertyEjP14tagPROPVARIANT
.Lfunc_begin4:
	.loc	4 70 0                  # /home/chris/test-suite/MultiSource/Benchmarks/7zip/CPP/7zip/Archive/SwfHandler.cpp:70:0
	.cfi_startproc
	.cfi_personality 3, __gxx_personality_v0
	.cfi_lsda 3, .Lexception0
# %bb.0:
	pushq	%rbp
	.cfi_def_cfa_offset 16
	.cfi_offset %rbp, -16
	movq	%rsp, %rbp
	.cfi_def_cfa_register %rbp
	pushq	%rbx
	subq	$56, %rsp
	.cfi_offset %rbx, -24
	movq	%rdi, -56(%rbp)
	movl	%esi, -12(%rbp)
	movq	%rdx, -48(%rbp)
	movq	-56(%rbp), %rbx
	leaq	-32(%rbp), %rdi
.Ltmp16:
	.loc	4 71 22 prologue_end    # /home/chris/test-suite/MultiSource/Benchmarks/7zip/CPP/7zip/Archive/SwfHandler.cpp:71:22
	callq	_ZN8NWindows4NCOM12CPropVariantC2Ev
	.loc	4 72 10                 # /home/chris/test-suite/MultiSource/Benchmarks/7zip/CPP/7zip/Archive/SwfHandler.cpp:72:10
	movl	-12(%rbp), %eax
	.loc	4 72 3 is_stmt 0        # /home/chris/test-suite/MultiSource/Benchmarks/7zip/CPP/7zip/Archive/SwfHandler.cpp:72:3
	subl	$44, %eax
	jne	.LBB4_4
	jmp	.LBB4_1
.LBB4_1:
.Ltmp17:
	.loc	4 74 30 is_stmt 1       # /home/chris/test-suite/MultiSource/Benchmarks/7zip/CPP/7zip/Archive/SwfHandler.cpp:74:30
	movq	56(%rbx), %rsi
.Ltmp11:
	leaq	-32(%rbp), %rdi
	.loc	4 74 28 is_stmt 0       # /home/chris/test-suite/MultiSource/Benchmarks/7zip/CPP/7zip/Archive/SwfHandler.cpp:74:28
	callq	_ZN8NWindows4NCOM12CPropVariantaSEy
.Ltmp12:
	jmp	.LBB4_2
.LBB4_2:
	.loc	4 74 41                 # /home/chris/test-suite/MultiSource/Benchmarks/7zip/CPP/7zip/Archive/SwfHandler.cpp:74:41
	jmp	.LBB4_4
.LBB4_3:
.Ltmp15:
	.loc	4 78 1 is_stmt 1        # /home/chris/test-suite/MultiSource/Benchmarks/7zip/CPP/7zip/Archive/SwfHandler.cpp:78:1
	movq	%rax, -40(%rbp)
	movl	%edx, -60(%rbp)
.Ltmp18:
	.loc	4 78 1 is_stmt 0        # /home/chris/test-suite/MultiSource/Benchmarks/7zip/CPP/7zip/Archive/SwfHandler.cpp:78:1
	leaq	-32(%rbp), %rdi
	callq	_ZN8NWindows4NCOM12CPropVariantD2Ev
	jmp	.LBB4_6
.LBB4_4:
	.loc	4 76 15 is_stmt 1       # /home/chris/test-suite/MultiSource/Benchmarks/7zip/CPP/7zip/Archive/SwfHandler.cpp:76:15
	movq	-48(%rbp), %rsi
.Ltmp13:
	leaq	-32(%rbp), %rdi
	.loc	4 76 8 is_stmt 0        # /home/chris/test-suite/MultiSource/Benchmarks/7zip/CPP/7zip/Archive/SwfHandler.cpp:76:8
	callq	_ZN8NWindows4NCOM12CPropVariant6DetachEP14tagPROPVARIANT
.Ltmp14:
	jmp	.LBB4_5
.LBB4_5:
	.loc	4 78 1 is_stmt 1        # /home/chris/test-suite/MultiSource/Benchmarks/7zip/CPP/7zip/Archive/SwfHandler.cpp:78:1
	leaq	-32(%rbp), %rdi
	callq	_ZN8NWindows4NCOM12CPropVariantD2Ev
	xorl	%eax, %eax
	addq	$56, %rsp
	popq	%rbx
	popq	%rbp
	.cfi_def_cfa %rsp, 8
	retq
.LBB4_6:
	.cfi_def_cfa %rbp, 16
	movq	-40(%rbp), %rdi
	callq	_Unwind_Resume
.Ltmp19:
.Lfunc_end4:
	.size	_ZN8NArchive4NSwf8CHandler18GetArchivePropertyEjP14tagPROPVARIANT, .Lfunc_end4-_ZN8NArchive4NSwf8CHandler18GetArchivePropertyEjP14tagPROPVARIANT
	.cfi_endproc
	.section	.gcc_except_table,"a",@progbits
	.p2align	2
GCC_except_table4:
.Lexception0:
	.byte	255                     # @LPStart Encoding = omit
	.byte	255                     # @TType Encoding = omit
	.byte	1                       # Call site Encoding = uleb128
	.uleb128 .Lcst_end0-.Lcst_begin0
.Lcst_begin0:
	.uleb128 .Ltmp11-.Lfunc_begin4  # >> Call Site 1 <<
	.uleb128 .Ltmp14-.Ltmp11        #   Call between .Ltmp11 and .Ltmp14
	.uleb128 .Ltmp15-.Lfunc_begin4  #     jumps to .Ltmp15
	.byte	0                       #   On action: cleanup
	.uleb128 .Ltmp14-.Lfunc_begin4  # >> Call Site 2 <<
	.uleb128 .Lfunc_end4-.Ltmp14    #   Call between .Ltmp14 and .Lfunc_end4
	.byte	0                       #     has no landing pad
	.byte	0                       #   On action: cleanup
.Lcst_end0:
	.p2align	2
                                        # -- End function
	.section	.text._ZN8NWindows4NCOM12CPropVariantC2Ev,"axG",@progbits,_ZN8NWindows4NCOM12CPropVariantC2Ev,comdat
	.weak	_ZN8NWindows4NCOM12CPropVariantC2Ev # -- Begin function _ZN8NWindows4NCOM12CPropVariantC2Ev
	.p2align	4, 0x90
	.type	_ZN8NWindows4NCOM12CPropVariantC2Ev,@function
_ZN8NWindows4NCOM12CPropVariantC2Ev:    # @_ZN8NWindows4NCOM12CPropVariantC2Ev
.Lfunc_begin5:
	.file	20 "/home/chris/test-suite/MultiSource/Benchmarks/7zip/CPP/Windows/PropVariant.h"
	.loc	20 15 0                 # /home/chris/test-suite/MultiSource/Benchmarks/7zip/CPP/Windows/PropVariant.h:15:0
	.cfi_startproc
# %bb.0:
	pushq	%rbp
	.cfi_def_cfa_offset 16
	.cfi_offset %rbp, -16
	movq	%rsp, %rbp
	.cfi_def_cfa_register %rbp
	movq	%rdi, -8(%rbp)
	movq	-8(%rbp), %rax
.Ltmp20:
	.loc	20 15 23 prologue_end   # /home/chris/test-suite/MultiSource/Benchmarks/7zip/CPP/Windows/PropVariant.h:15:23
	movw	$0, (%rax)
	.loc	20 15 46 is_stmt 0      # /home/chris/test-suite/MultiSource/Benchmarks/7zip/CPP/Windows/PropVariant.h:15:46
	movw	$0, 2(%rax)
.Ltmp21:
	.loc	20 15 51                # /home/chris/test-suite/MultiSource/Benchmarks/7zip/CPP/Windows/PropVariant.h:15:51
	popq	%rbp
	.cfi_def_cfa %rsp, 8
	retq
.Ltmp22:
.Lfunc_end5:
	.size	_ZN8NWindows4NCOM12CPropVariantC2Ev, .Lfunc_end5-_ZN8NWindows4NCOM12CPropVariantC2Ev
	.cfi_endproc
                                        # -- End function
	.section	.text._ZN8NWindows4NCOM12CPropVariantD2Ev,"axG",@progbits,_ZN8NWindows4NCOM12CPropVariantD2Ev,comdat
	.weak	_ZN8NWindows4NCOM12CPropVariantD2Ev # -- Begin function _ZN8NWindows4NCOM12CPropVariantD2Ev
	.p2align	4, 0x90
	.type	_ZN8NWindows4NCOM12CPropVariantD2Ev,@function
_ZN8NWindows4NCOM12CPropVariantD2Ev:    # @_ZN8NWindows4NCOM12CPropVariantD2Ev
.Lfunc_begin6:
	.loc	20 16 0 is_stmt 1       # /home/chris/test-suite/MultiSource/Benchmarks/7zip/CPP/Windows/PropVariant.h:16:0
	.cfi_startproc
	.cfi_personality 3, __gxx_personality_v0
	.cfi_lsda 3, .Lexception1
# %bb.0:
	pushq	%rbp
	.cfi_def_cfa_offset 16
	.cfi_offset %rbp, -16
	movq	%rsp, %rbp
	.cfi_def_cfa_register %rbp
	subq	$16, %rsp
	movq	%rdi, -8(%rbp)
	movq	-8(%rbp), %rdi
.Ltmp23:
.Ltmp26:
	.loc	20 16 21 prologue_end   # /home/chris/test-suite/MultiSource/Benchmarks/7zip/CPP/Windows/PropVariant.h:16:21
	callq	_ZN8NWindows4NCOM12CPropVariant5ClearEv
.Ltmp24:
	jmp	.LBB6_1
.Ltmp27:
.LBB6_1:
	.loc	20 16 30 is_stmt 0      # /home/chris/test-suite/MultiSource/Benchmarks/7zip/CPP/Windows/PropVariant.h:16:30
	addq	$16, %rsp
	popq	%rbp
	.cfi_def_cfa %rsp, 8
	retq
.LBB6_2:
	.cfi_def_cfa %rbp, 16
.Ltmp25:
                                        # kill: killed $rdx
.Ltmp28:
	.loc	20 16 21                # /home/chris/test-suite/MultiSource/Benchmarks/7zip/CPP/Windows/PropVariant.h:16:21
	movq	%rax, %rdi
	callq	__clang_call_terminate
.Ltmp29:
.Lfunc_end6:
	.size	_ZN8NWindows4NCOM12CPropVariantD2Ev, .Lfunc_end6-_ZN8NWindows4NCOM12CPropVariantD2Ev
	.cfi_endproc
	.section	.gcc_except_table,"a",@progbits
	.p2align	2
GCC_except_table6:
.Lexception1:
	.byte	255                     # @LPStart Encoding = omit
	.byte	3                       # @TType Encoding = udata4
	.uleb128 .Lttbase0-.Lttbaseref0
.Lttbaseref0:
	.byte	1                       # Call site Encoding = uleb128
	.uleb128 .Lcst_end1-.Lcst_begin1
.Lcst_begin1:
	.uleb128 .Ltmp23-.Lfunc_begin6  # >> Call Site 1 <<
	.uleb128 .Ltmp24-.Ltmp23        #   Call between .Ltmp23 and .Ltmp24
	.uleb128 .Ltmp25-.Lfunc_begin6  #     jumps to .Ltmp25
	.byte	1                       #   On action: 1
.Lcst_end1:
	.byte	1                       # >> Action Record 1 <<
                                        #   Catch TypeInfo 1
	.byte	0                       #   No further actions
	.p2align	2
                                        # >> Catch TypeInfos <<
	.long	0                       # TypeInfo 1
.Lttbase0:
	.p2align	2
                                        # -- End function
	.text
	.globl	_ZN8NArchive4NSwf8CHandler16GetNumberOfItemsEPj # -- Begin function _ZN8NArchive4NSwf8CHandler16GetNumberOfItemsEPj
	.p2align	4, 0x90
	.type	_ZN8NArchive4NSwf8CHandler16GetNumberOfItemsEPj,@function
_ZN8NArchive4NSwf8CHandler16GetNumberOfItemsEPj: # @_ZN8NArchive4NSwf8CHandler16GetNumberOfItemsEPj
.Lfunc_begin7:
	.loc	4 82 0 is_stmt 1        # /home/chris/test-suite/MultiSource/Benchmarks/7zip/CPP/7zip/Archive/SwfHandler.cpp:82:0
	.cfi_startproc
# %bb.0:
	pushq	%rbp
	.cfi_def_cfa_offset 16
	.cfi_offset %rbp, -16
	movq	%rsp, %rbp
	.cfi_def_cfa_register %rbp
	subq	$16, %rsp
	movq	%rdi, -16(%rbp)
	movq	%rsi, -8(%rbp)
	movq	-16(%rbp), %rdi
.Ltmp30:
	.loc	4 83 15 prologue_end    # /home/chris/test-suite/MultiSource/Benchmarks/7zip/CPP/7zip/Archive/SwfHandler.cpp:83:15
	addq	$24, %rdi
	.loc	4 83 21 is_stmt 0       # /home/chris/test-suite/MultiSource/Benchmarks/7zip/CPP/7zip/Archive/SwfHandler.cpp:83:21
	callq	_ZNK17CBaseRecordVector4SizeEv
	.loc	4 83 4                  # /home/chris/test-suite/MultiSource/Benchmarks/7zip/CPP/7zip/Archive/SwfHandler.cpp:83:4
	movq	-8(%rbp), %rcx
	.loc	4 83 13                 # /home/chris/test-suite/MultiSource/Benchmarks/7zip/CPP/7zip/Archive/SwfHandler.cpp:83:13
	movl	%eax, (%rcx)
	.loc	4 84 3 is_stmt 1        # /home/chris/test-suite/MultiSource/Benchmarks/7zip/CPP/7zip/Archive/SwfHandler.cpp:84:3
	xorl	%eax, %eax
	addq	$16, %rsp
	popq	%rbp
	.cfi_def_cfa %rsp, 8
	retq
.Ltmp31:
.Lfunc_end7:
	.size	_ZN8NArchive4NSwf8CHandler16GetNumberOfItemsEPj, .Lfunc_end7-_ZN8NArchive4NSwf8CHandler16GetNumberOfItemsEPj
	.cfi_endproc
                                        # -- End function
	.section	.text._ZNK17CBaseRecordVector4SizeEv,"axG",@progbits,_ZNK17CBaseRecordVector4SizeEv,comdat
	.weak	_ZNK17CBaseRecordVector4SizeEv # -- Begin function _ZNK17CBaseRecordVector4SizeEv
	.p2align	4, 0x90
	.type	_ZNK17CBaseRecordVector4SizeEv,@function
_ZNK17CBaseRecordVector4SizeEv:         # @_ZNK17CBaseRecordVector4SizeEv
.Lfunc_begin8:
	.loc	19 25 0                 # /home/chris/test-suite/MultiSource/Benchmarks/7zip/CPP/Common/MyVector.h:25:0
	.cfi_startproc
# %bb.0:
	pushq	%rbp
	.cfi_def_cfa_offset 16
	.cfi_offset %rbp, -16
	movq	%rsp, %rbp
	.cfi_def_cfa_register %rbp
	movq	%rdi, -8(%rbp)
	movq	-8(%rbp), %rax
.Ltmp32:
	.loc	19 25 29 prologue_end   # /home/chris/test-suite/MultiSource/Benchmarks/7zip/CPP/Common/MyVector.h:25:29
	movl	12(%rax), %eax
	.loc	19 25 22 is_stmt 0      # /home/chris/test-suite/MultiSource/Benchmarks/7zip/CPP/Common/MyVector.h:25:22
	popq	%rbp
	.cfi_def_cfa %rsp, 8
	retq
.Ltmp33:
.Lfunc_end8:
	.size	_ZNK17CBaseRecordVector4SizeEv, .Lfunc_end8-_ZNK17CBaseRecordVector4SizeEv
	.cfi_endproc
                                        # -- End function
	.text
	.globl	_ZN8NArchive4NSwf8CHandler11GetPropertyEjjP14tagPROPVARIANT # -- Begin function _ZN8NArchive4NSwf8CHandler11GetPropertyEjjP14tagPROPVARIANT
	.p2align	4, 0x90
	.type	_ZN8NArchive4NSwf8CHandler11GetPropertyEjjP14tagPROPVARIANT,@function
_ZN8NArchive4NSwf8CHandler11GetPropertyEjjP14tagPROPVARIANT: # @_ZN8NArchive4NSwf8CHandler11GetPropertyEjjP14tagPROPVARIANT
.Lfunc_begin9:
	.loc	4 184 0 is_stmt 1       # /home/chris/test-suite/MultiSource/Benchmarks/7zip/CPP/7zip/Archive/SwfHandler.cpp:184:0
	.cfi_startproc
	.cfi_personality 3, __gxx_personality_v0
	.cfi_lsda 3, .Lexception2
# %bb.0:
	pushq	%rbp
	.cfi_def_cfa_offset 16
	.cfi_offset %rbp, -16
	movq	%rsp, %rbp
	.cfi_def_cfa_register %rbp
	pushq	%rbx
	subq	$120, %rsp
	.cfi_offset %rbx, -24
	movq	%rdi, -88(%rbp)
	movl	%esi, -12(%rbp)
	movl	%edx, -36(%rbp)
	movq	%rcx, -80(%rbp)
	movq	-88(%rbp), %rbx
	leaq	-56(%rbp), %rdi
.Ltmp51:
	.loc	4 185 32 prologue_end   # /home/chris/test-suite/MultiSource/Benchmarks/7zip/CPP/7zip/Archive/SwfHandler.cpp:185:32
	callq	_ZN8NWindows4NCOM12CPropVariantC2Ev
	.loc	4 186 21                # /home/chris/test-suite/MultiSource/Benchmarks/7zip/CPP/7zip/Archive/SwfHandler.cpp:186:21
	addq	$24, %rbx
	.loc	4 186 27 is_stmt 0      # /home/chris/test-suite/MultiSource/Benchmarks/7zip/CPP/7zip/Archive/SwfHandler.cpp:186:27
	movl	-12(%rbp), %esi
.Ltmp34:
	.loc	4 186 21                # /home/chris/test-suite/MultiSource/Benchmarks/7zip/CPP/7zip/Archive/SwfHandler.cpp:186:21
	movq	%rbx, %rdi
	callq	_ZN13CObjectVectorIN8NArchive4NSwf4CTagEEixEi
.Ltmp35:
	jmp	.LBB9_1
.LBB9_1:
	.loc	4 186 15                # /home/chris/test-suite/MultiSource/Benchmarks/7zip/CPP/7zip/Archive/SwfHandler.cpp:186:15
	movq	%rax, -24(%rbp)
	.loc	4 187 10 is_stmt 1      # /home/chris/test-suite/MultiSource/Benchmarks/7zip/CPP/7zip/Archive/SwfHandler.cpp:187:10
	movl	-36(%rbp), %eax
	.loc	4 187 3 is_stmt 0       # /home/chris/test-suite/MultiSource/Benchmarks/7zip/CPP/7zip/Archive/SwfHandler.cpp:187:3
	movl	%eax, %ecx
	subl	$3, %ecx
	je	.LBB9_5
	jmp	.LBB9_2
.LBB9_2:
	movl	%eax, %ecx
	addl	$-7, %ecx
	subl	$2, %ecx
	jb	.LBB9_9
	jmp	.LBB9_3
.LBB9_3:
	subl	$28, %eax
	je	.LBB9_12
	jmp	.LBB9_18
.LBB9_4:
.Ltmp50:
	.loc	4 213 1 is_stmt 1       # /home/chris/test-suite/MultiSource/Benchmarks/7zip/CPP/7zip/Archive/SwfHandler.cpp:213:1
	movq	%rax, -72(%rbp)
	movl	%edx, -92(%rbp)
	leaq	-56(%rbp), %rdi
	callq	_ZN8NWindows4NCOM12CPropVariantD2Ev
	jmp	.LBB9_20
.LBB9_5:
.Ltmp52:
	.loc	4 192 29                # /home/chris/test-suite/MultiSource/Benchmarks/7zip/CPP/7zip/Archive/SwfHandler.cpp:192:29
	movl	-12(%rbp), %edi
.Ltmp42:
	leaq	-128(%rbp), %rsi
	.loc	4 192 7 is_stmt 0       # /home/chris/test-suite/MultiSource/Benchmarks/7zip/CPP/7zip/Archive/SwfHandler.cpp:192:7
	callq	_Z21ConvertUInt32ToStringjPc
.Ltmp43:
	jmp	.LBB9_6
.LBB9_6:
	.loc	4 0 7                   # /home/chris/test-suite/MultiSource/Benchmarks/7zip/CPP/7zip/Archive/SwfHandler.cpp:0:7
	leaq	-128(%rbp), %rdi
	.loc	4 193 18 is_stmt 1      # /home/chris/test-suite/MultiSource/Benchmarks/7zip/CPP/7zip/Archive/SwfHandler.cpp:193:18
	callq	strlen
	.loc	4 193 14 is_stmt 0      # /home/chris/test-suite/MultiSource/Benchmarks/7zip/CPP/7zip/Archive/SwfHandler.cpp:193:14
	movq	%rax, -32(%rbp)
	.loc	4 194 10 is_stmt 1      # /home/chris/test-suite/MultiSource/Benchmarks/7zip/CPP/7zip/Archive/SwfHandler.cpp:194:10
	movq	-32(%rbp), %rax
	movq	%rax, %rcx
	addq	$1, %rcx
	movq	%rcx, -32(%rbp)
	.loc	4 194 14 is_stmt 0      # /home/chris/test-suite/MultiSource/Benchmarks/7zip/CPP/7zip/Archive/SwfHandler.cpp:194:14
	movb	$46, -128(%rbp,%rax)
	.loc	4 195 29 is_stmt 1      # /home/chris/test-suite/MultiSource/Benchmarks/7zip/CPP/7zip/Archive/SwfHandler.cpp:195:29
	movq	-24(%rbp), %rax
	.loc	4 195 33 is_stmt 0      # /home/chris/test-suite/MultiSource/Benchmarks/7zip/CPP/7zip/Archive/SwfHandler.cpp:195:33
	movl	(%rax), %edi
	.loc	4 195 43                # /home/chris/test-suite/MultiSource/Benchmarks/7zip/CPP/7zip/Archive/SwfHandler.cpp:195:43
	movq	-32(%rbp), %rax
	.loc	4 195 41                # /home/chris/test-suite/MultiSource/Benchmarks/7zip/CPP/7zip/Archive/SwfHandler.cpp:195:41
	leaq	-128(%rbp,%rax), %rsi
.Ltmp44:
	.loc	4 195 7                 # /home/chris/test-suite/MultiSource/Benchmarks/7zip/CPP/7zip/Archive/SwfHandler.cpp:195:7
	callq	_Z21ConvertUInt32ToStringjPc
.Ltmp45:
	jmp	.LBB9_7
.LBB9_7:
.Ltmp46:
	.loc	4 0 7                   # /home/chris/test-suite/MultiSource/Benchmarks/7zip/CPP/7zip/Archive/SwfHandler.cpp:0:7
	leaq	-56(%rbp), %rdi
	leaq	-128(%rbp), %rsi
	.loc	4 196 12 is_stmt 1      # /home/chris/test-suite/MultiSource/Benchmarks/7zip/CPP/7zip/Archive/SwfHandler.cpp:196:12
	callq	_ZN8NWindows4NCOM12CPropVariantaSEPKc
.Ltmp47:
	jmp	.LBB9_8
.LBB9_8:
	.loc	4 197 7                 # /home/chris/test-suite/MultiSource/Benchmarks/7zip/CPP/7zip/Archive/SwfHandler.cpp:197:7
	jmp	.LBB9_18
.Ltmp53:
.LBB9_9:
	.loc	4 201 22                # /home/chris/test-suite/MultiSource/Benchmarks/7zip/CPP/7zip/Archive/SwfHandler.cpp:201:22
	movq	-24(%rbp), %rdi
	.loc	4 201 26 is_stmt 0      # /home/chris/test-suite/MultiSource/Benchmarks/7zip/CPP/7zip/Archive/SwfHandler.cpp:201:26
	addq	$8, %rdi
.Ltmp38:
	.loc	4 201 30                # /home/chris/test-suite/MultiSource/Benchmarks/7zip/CPP/7zip/Archive/SwfHandler.cpp:201:30
	callq	_ZNK7CBufferIhE11GetCapacityEv
.Ltmp39:
	jmp	.LBB9_10
.LBB9_10:
.Ltmp40:
	.loc	4 0 30                  # /home/chris/test-suite/MultiSource/Benchmarks/7zip/CPP/7zip/Archive/SwfHandler.cpp:0:30
	leaq	-56(%rbp), %rdi
	.loc	4 201 12                # /home/chris/test-suite/MultiSource/Benchmarks/7zip/CPP/7zip/Archive/SwfHandler.cpp:201:12
	movq	%rax, %rsi
	callq	_ZN8NWindows4NCOM12CPropVariantaSEy
.Ltmp41:
	jmp	.LBB9_11
.LBB9_11:
	.loc	4 201 45                # /home/chris/test-suite/MultiSource/Benchmarks/7zip/CPP/7zip/Archive/SwfHandler.cpp:201:45
	jmp	.LBB9_18
.LBB9_12:
.Ltmp54:
	.loc	4 203 11 is_stmt 1      # /home/chris/test-suite/MultiSource/Benchmarks/7zip/CPP/7zip/Archive/SwfHandler.cpp:203:11
	movq	-24(%rbp), %rax
	movl	(%rax), %eax
	.loc	4 203 20 is_stmt 0      # /home/chris/test-suite/MultiSource/Benchmarks/7zip/CPP/7zip/Archive/SwfHandler.cpp:203:20
	cmpq	$92, %rax
.Ltmp55:
	.loc	4 203 11                # /home/chris/test-suite/MultiSource/Benchmarks/7zip/CPP/7zip/Archive/SwfHandler.cpp:203:11
	jae	.LBB9_17
# %bb.13:
.Ltmp56:
	.loc	4 205 35 is_stmt 1      # /home/chris/test-suite/MultiSource/Benchmarks/7zip/CPP/7zip/Archive/SwfHandler.cpp:205:35
	movq	-24(%rbp), %rax
	.loc	4 205 25 is_stmt 0      # /home/chris/test-suite/MultiSource/Benchmarks/7zip/CPP/7zip/Archive/SwfHandler.cpp:205:25
	movl	(%rax), %eax
	movq	_ZN8NArchive4NSwfL9g_TagDescE(,%rax,8), %rax
	.loc	4 205 21                # /home/chris/test-suite/MultiSource/Benchmarks/7zip/CPP/7zip/Archive/SwfHandler.cpp:205:21
	movq	%rax, -64(%rbp)
.Ltmp57:
	.loc	4 206 15 is_stmt 1      # /home/chris/test-suite/MultiSource/Benchmarks/7zip/CPP/7zip/Archive/SwfHandler.cpp:206:15
	cmpq	$0, -64(%rbp)
.Ltmp58:
	.loc	4 206 13 is_stmt 0      # /home/chris/test-suite/MultiSource/Benchmarks/7zip/CPP/7zip/Archive/SwfHandler.cpp:206:13
	je	.LBB9_16
# %bb.14:
.Ltmp59:
	.loc	4 207 18 is_stmt 1      # /home/chris/test-suite/MultiSource/Benchmarks/7zip/CPP/7zip/Archive/SwfHandler.cpp:207:18
	movq	-64(%rbp), %rsi
.Ltmp36:
	leaq	-56(%rbp), %rdi
	.loc	4 207 16 is_stmt 0      # /home/chris/test-suite/MultiSource/Benchmarks/7zip/CPP/7zip/Archive/SwfHandler.cpp:207:16
	callq	_ZN8NWindows4NCOM12CPropVariantaSEPKc
.Ltmp37:
	jmp	.LBB9_15
.LBB9_15:
	.loc	4 207 11                # /home/chris/test-suite/MultiSource/Benchmarks/7zip/CPP/7zip/Archive/SwfHandler.cpp:207:11
	jmp	.LBB9_16
.Ltmp60:
.LBB9_16:
	.loc	4 208 7 is_stmt 1       # /home/chris/test-suite/MultiSource/Benchmarks/7zip/CPP/7zip/Archive/SwfHandler.cpp:208:7
	jmp	.LBB9_17
.Ltmp61:
.LBB9_17:
	.loc	4 209 7                 # /home/chris/test-suite/MultiSource/Benchmarks/7zip/CPP/7zip/Archive/SwfHandler.cpp:209:7
	jmp	.LBB9_18
.Ltmp62:
.LBB9_18:
	.loc	4 211 15                # /home/chris/test-suite/MultiSource/Benchmarks/7zip/CPP/7zip/Archive/SwfHandler.cpp:211:15
	movq	-80(%rbp), %rsi
.Ltmp48:
	leaq	-56(%rbp), %rdi
	.loc	4 211 8 is_stmt 0       # /home/chris/test-suite/MultiSource/Benchmarks/7zip/CPP/7zip/Archive/SwfHandler.cpp:211:8
	callq	_ZN8NWindows4NCOM12CPropVariant6DetachEP14tagPROPVARIANT
.Ltmp49:
	jmp	.LBB9_19
.LBB9_19:
	.loc	4 213 1 is_stmt 1       # /home/chris/test-suite/MultiSource/Benchmarks/7zip/CPP/7zip/Archive/SwfHandler.cpp:213:1
	leaq	-56(%rbp), %rdi
	callq	_ZN8NWindows4NCOM12CPropVariantD2Ev
	xorl	%eax, %eax
	addq	$120, %rsp
	popq	%rbx
	popq	%rbp
	.cfi_def_cfa %rsp, 8
	retq
.LBB9_20:
	.cfi_def_cfa %rbp, 16
	movq	-72(%rbp), %rdi
	callq	_Unwind_Resume
.Ltmp63:
.Lfunc_end9:
	.size	_ZN8NArchive4NSwf8CHandler11GetPropertyEjjP14tagPROPVARIANT, .Lfunc_end9-_ZN8NArchive4NSwf8CHandler11GetPropertyEjjP14tagPROPVARIANT
	.cfi_endproc
	.section	.gcc_except_table,"a",@progbits
	.p2align	2
GCC_except_table9:
.Lexception2:
	.byte	255                     # @LPStart Encoding = omit
	.byte	255                     # @TType Encoding = omit
	.byte	1                       # Call site Encoding = uleb128
	.uleb128 .Lcst_end2-.Lcst_begin2
.Lcst_begin2:
	.uleb128 .Ltmp34-.Lfunc_begin9  # >> Call Site 1 <<
	.uleb128 .Ltmp49-.Ltmp34        #   Call between .Ltmp34 and .Ltmp49
	.uleb128 .Ltmp50-.Lfunc_begin9  #     jumps to .Ltmp50
	.byte	0                       #   On action: cleanup
	.uleb128 .Ltmp49-.Lfunc_begin9  # >> Call Site 2 <<
	.uleb128 .Lfunc_end9-.Ltmp49    #   Call between .Ltmp49 and .Lfunc_end9
	.byte	0                       #     has no landing pad
	.byte	0                       #   On action: cleanup
.Lcst_end2:
	.p2align	2
                                        # -- End function
	.section	.text._ZN13CObjectVectorIN8NArchive4NSwf4CTagEEixEi,"axG",@progbits,_ZN13CObjectVectorIN8NArchive4NSwf4CTagEEixEi,comdat
	.weak	_ZN13CObjectVectorIN8NArchive4NSwf4CTagEEixEi # -- Begin function _ZN13CObjectVectorIN8NArchive4NSwf4CTagEEixEi
	.p2align	4, 0x90
	.type	_ZN13CObjectVectorIN8NArchive4NSwf4CTagEEixEi,@function
_ZN13CObjectVectorIN8NArchive4NSwf4CTagEEixEi: # @_ZN13CObjectVectorIN8NArchive4NSwf4CTagEEixEi
.Lfunc_begin10:
	.loc	19 200 0                # /home/chris/test-suite/MultiSource/Benchmarks/7zip/CPP/Common/MyVector.h:200:0
	.cfi_startproc
# %bb.0:
	pushq	%rbp
	.cfi_def_cfa_offset 16
	.cfi_offset %rbp, -16
	movq	%rsp, %rbp
	.cfi_def_cfa_register %rbp
	subq	$16, %rsp
	movq	%rdi, -16(%rbp)
	movl	%esi, -4(%rbp)
	movq	-16(%rbp), %rdi
.Ltmp64:
	.loc	19 200 71 prologue_end  # /home/chris/test-suite/MultiSource/Benchmarks/7zip/CPP/Common/MyVector.h:200:71
	movl	-4(%rbp), %esi
	.loc	19 200 60 is_stmt 0     # /home/chris/test-suite/MultiSource/Benchmarks/7zip/CPP/Common/MyVector.h:200:60
	callq	_ZN13CRecordVectorIPvEixEi
	movq	(%rax), %rax
	.loc	19 200 30               # /home/chris/test-suite/MultiSource/Benchmarks/7zip/CPP/Common/MyVector.h:200:30
	addq	$16, %rsp
	popq	%rbp
	.cfi_def_cfa %rsp, 8
	retq
.Ltmp65:
.Lfunc_end10:
	.size	_ZN13CObjectVectorIN8NArchive4NSwf4CTagEEixEi, .Lfunc_end10-_ZN13CObjectVectorIN8NArchive4NSwf4CTagEEixEi
	.cfi_endproc
                                        # -- End function
	.section	.text._ZNK7CBufferIhE11GetCapacityEv,"axG",@progbits,_ZNK7CBufferIhE11GetCapacityEv,comdat
	.weak	_ZNK7CBufferIhE11GetCapacityEv # -- Begin function _ZNK7CBufferIhE11GetCapacityEv
	.p2align	4, 0x90
	.type	_ZNK7CBufferIhE11GetCapacityEv,@function
_ZNK7CBufferIhE11GetCapacityEv:         # @_ZNK7CBufferIhE11GetCapacityEv
.Lfunc_begin11:
	.loc	9 26 0 is_stmt 1        # /home/chris/test-suite/MultiSource/Benchmarks/7zip/CPP/Common/Buffer.h:26:0
	.cfi_startproc
# %bb.0:
	pushq	%rbp
	.cfi_def_cfa_offset 16
	.cfi_offset %rbp, -16
	movq	%rsp, %rbp
	.cfi_def_cfa_register %rbp
	movq	%rdi, -8(%rbp)
	movq	-8(%rbp), %rax
.Ltmp66:
	.loc	9 26 40 prologue_end    # /home/chris/test-suite/MultiSource/Benchmarks/7zip/CPP/Common/Buffer.h:26:40
	movq	8(%rax), %rax
	.loc	9 26 32 is_stmt 0       # /home/chris/test-suite/MultiSource/Benchmarks/7zip/CPP/Common/Buffer.h:26:32
	popq	%rbp
	.cfi_def_cfa %rsp, 8
	retq
.Ltmp67:
.Lfunc_end11:
	.size	_ZNK7CBufferIhE11GetCapacityEv, .Lfunc_end11-_ZNK7CBufferIhE11GetCapacityEv
	.cfi_endproc
                                        # -- End function
	.text
	.globl	_ZN8NArchive4NSwf8CHandler4OpenEP9IInStreamPKyP20IArchiveOpenCallback # -- Begin function _ZN8NArchive4NSwf8CHandler4OpenEP9IInStreamPKyP20IArchiveOpenCallback
	.p2align	4, 0x90
	.type	_ZN8NArchive4NSwf8CHandler4OpenEP9IInStreamPKyP20IArchiveOpenCallback,@function
_ZN8NArchive4NSwf8CHandler4OpenEP9IInStreamPKyP20IArchiveOpenCallback: # @_ZN8NArchive4NSwf8CHandler4OpenEP9IInStreamPKyP20IArchiveOpenCallback
.Lfunc_begin12:
	.loc	4 216 0 is_stmt 1       # /home/chris/test-suite/MultiSource/Benchmarks/7zip/CPP/7zip/Archive/SwfHandler.cpp:216:0
	.cfi_startproc
# %bb.0:
	pushq	%rbp
	.cfi_def_cfa_offset 16
	.cfi_offset %rbp, -16
	movq	%rsp, %rbp
	.cfi_def_cfa_register %rbp
	subq	$32, %rsp
	movq	%rdi, -24(%rbp)
	movq	%rsi, -16(%rbp)
	movq	%rdx, -32(%rbp)
	movq	%rcx, -8(%rbp)
	movq	-24(%rbp), %rdi
.Ltmp68:
	.loc	4 217 19 prologue_end   # /home/chris/test-suite/MultiSource/Benchmarks/7zip/CPP/7zip/Archive/SwfHandler.cpp:217:19
	movq	-16(%rbp), %rsi
	.loc	4 217 27 is_stmt 0      # /home/chris/test-suite/MultiSource/Benchmarks/7zip/CPP/7zip/Archive/SwfHandler.cpp:217:27
	movq	-8(%rbp), %rdx
	.loc	4 217 10                # /home/chris/test-suite/MultiSource/Benchmarks/7zip/CPP/7zip/Archive/SwfHandler.cpp:217:10
	callq	_ZN8NArchive4NSwf8CHandler8OpenSeq2EP19ISequentialInStreamP20IArchiveOpenCallback
	.loc	4 217 3                 # /home/chris/test-suite/MultiSource/Benchmarks/7zip/CPP/7zip/Archive/SwfHandler.cpp:217:3
	addq	$32, %rsp
	popq	%rbp
	.cfi_def_cfa %rsp, 8
	retq
.Ltmp69:
.Lfunc_end12:
	.size	_ZN8NArchive4NSwf8CHandler4OpenEP9IInStreamPKyP20IArchiveOpenCallback, .Lfunc_end12-_ZN8NArchive4NSwf8CHandler4OpenEP9IInStreamPKyP20IArchiveOpenCallback
	.cfi_endproc
                                        # -- End function
	.globl	_ZN8NArchive4NSwf8CHandler8OpenSeq2EP19ISequentialInStreamP20IArchiveOpenCallback # -- Begin function _ZN8NArchive4NSwf8CHandler8OpenSeq2EP19ISequentialInStreamP20IArchiveOpenCallback
	.p2align	4, 0x90
	.type	_ZN8NArchive4NSwf8CHandler8OpenSeq2EP19ISequentialInStreamP20IArchiveOpenCallback,@function
_ZN8NArchive4NSwf8CHandler8OpenSeq2EP19ISequentialInStreamP20IArchiveOpenCallback: # @_ZN8NArchive4NSwf8CHandler8OpenSeq2EP19ISequentialInStreamP20IArchiveOpenCallback
.Lfunc_begin13:
	.loc	4 338 0 is_stmt 1       # /home/chris/test-suite/MultiSource/Benchmarks/7zip/CPP/7zip/Archive/SwfHandler.cpp:338:0
	.cfi_startproc
	.cfi_personality 3, __gxx_personality_v0
	.cfi_lsda 3, .Lexception3
# %bb.0:
	pushq	%rbp
	.cfi_def_cfa_offset 16
	.cfi_offset %rbp, -16
	movq	%rsp, %rbp
	.cfi_def_cfa_register %rbp
	subq	$48, %rsp
	movq	%rdi, -40(%rbp)
	movq	%rsi, -32(%rbp)
	movq	%rdx, -24(%rbp)
	movq	-40(%rbp), %rdi
.Ltmp73:
	.loc	4 340 24 prologue_end   # /home/chris/test-suite/MultiSource/Benchmarks/7zip/CPP/7zip/Archive/SwfHandler.cpp:340:24
	movq	-32(%rbp), %rsi
	.loc	4 340 32 is_stmt 0      # /home/chris/test-suite/MultiSource/Benchmarks/7zip/CPP/7zip/Archive/SwfHandler.cpp:340:32
	movq	-24(%rbp), %rdx
.Ltmp70:
	.loc	4 340 15                # /home/chris/test-suite/MultiSource/Benchmarks/7zip/CPP/7zip/Archive/SwfHandler.cpp:340:15
	callq	_ZN8NArchive4NSwf8CHandler8OpenSeq3EP19ISequentialInStreamP20IArchiveOpenCallback
.Ltmp71:
	jmp	.LBB13_1
.LBB13_1:
	.loc	4 340 13                # /home/chris/test-suite/MultiSource/Benchmarks/7zip/CPP/7zip/Archive/SwfHandler.cpp:340:13
	movl	%eax, -4(%rbp)
	.loc	4 340 43                # /home/chris/test-suite/MultiSource/Benchmarks/7zip/CPP/7zip/Archive/SwfHandler.cpp:340:43
	jmp	.LBB13_4
.LBB13_2:
.Ltmp72:
	.loc	4 343 1 is_stmt 1       # /home/chris/test-suite/MultiSource/Benchmarks/7zip/CPP/7zip/Archive/SwfHandler.cpp:343:1
	movq	%rax, -16(%rbp)
	movl	%edx, -44(%rbp)
# %bb.3:
	.loc	4 340 43                # /home/chris/test-suite/MultiSource/Benchmarks/7zip/CPP/7zip/Archive/SwfHandler.cpp:340:43
	movq	-16(%rbp), %rdi
	callq	__cxa_begin_catch
.Ltmp74:
	.loc	4 341 20                # /home/chris/test-suite/MultiSource/Benchmarks/7zip/CPP/7zip/Archive/SwfHandler.cpp:341:20
	movl	$1, -4(%rbp)
	.loc	4 341 31 is_stmt 0      # /home/chris/test-suite/MultiSource/Benchmarks/7zip/CPP/7zip/Archive/SwfHandler.cpp:341:31
	callq	__cxa_end_catch
.Ltmp75:
.LBB13_4:
	.loc	4 342 10 is_stmt 1      # /home/chris/test-suite/MultiSource/Benchmarks/7zip/CPP/7zip/Archive/SwfHandler.cpp:342:10
	movl	-4(%rbp), %eax
	.loc	4 342 3 is_stmt 0       # /home/chris/test-suite/MultiSource/Benchmarks/7zip/CPP/7zip/Archive/SwfHandler.cpp:342:3
	addq	$48, %rsp
	popq	%rbp
	.cfi_def_cfa %rsp, 8
	retq
.Ltmp76:
.Lfunc_end13:
	.size	_ZN8NArchive4NSwf8CHandler8OpenSeq2EP19ISequentialInStreamP20IArchiveOpenCallback, .Lfunc_end13-_ZN8NArchive4NSwf8CHandler8OpenSeq2EP19ISequentialInStreamP20IArchiveOpenCallback
	.cfi_endproc
	.section	.gcc_except_table,"a",@progbits
	.p2align	2
GCC_except_table13:
.Lexception3:
	.byte	255                     # @LPStart Encoding = omit
	.byte	3                       # @TType Encoding = udata4
	.uleb128 .Lttbase1-.Lttbaseref1
.Lttbaseref1:
	.byte	1                       # Call site Encoding = uleb128
	.uleb128 .Lcst_end3-.Lcst_begin3
.Lcst_begin3:
	.uleb128 .Ltmp70-.Lfunc_begin13 # >> Call Site 1 <<
	.uleb128 .Ltmp71-.Ltmp70        #   Call between .Ltmp70 and .Ltmp71
	.uleb128 .Ltmp72-.Lfunc_begin13 #     jumps to .Ltmp72
	.byte	1                       #   On action: 1
	.uleb128 .Ltmp71-.Lfunc_begin13 # >> Call Site 2 <<
	.uleb128 .Lfunc_end13-.Ltmp71   #   Call between .Ltmp71 and .Lfunc_end13
	.byte	0                       #     has no landing pad
	.byte	0                       #   On action: cleanup
.Lcst_end3:
	.byte	1                       # >> Action Record 1 <<
                                        #   Catch TypeInfo 1
	.byte	0                       #   No further actions
	.p2align	2
                                        # >> Catch TypeInfos <<
	.long	0                       # TypeInfo 1
.Lttbase1:
	.p2align	2
                                        # -- End function
	.text
	.globl	_ZN8NArchive4NSwf10CBitReader8ReadBitsEj # -- Begin function _ZN8NArchive4NSwf10CBitReader8ReadBitsEj
	.p2align	4, 0x90
	.type	_ZN8NArchive4NSwf10CBitReader8ReadBitsEj,@function
_ZN8NArchive4NSwf10CBitReader8ReadBitsEj: # @_ZN8NArchive4NSwf10CBitReader8ReadBitsEj
.Lfunc_begin14:
	.loc	4 258 0 is_stmt 1       # /home/chris/test-suite/MultiSource/Benchmarks/7zip/CPP/7zip/Archive/SwfHandler.cpp:258:0
	.cfi_startproc
# %bb.0:
	pushq	%rbp
	.cfi_def_cfa_offset 16
	.cfi_offset %rbp, -16
	movq	%rsp, %rbp
	.cfi_def_cfa_register %rbp
	pushq	%rbx
	subq	$24, %rsp
	.cfi_offset %rbx, -24
	movq	%rdi, -24(%rbp)
	movl	%esi, -16(%rbp)
	movq	-24(%rbp), %rbx
.Ltmp77:
	.loc	4 259 10 prologue_end   # /home/chris/test-suite/MultiSource/Benchmarks/7zip/CPP/7zip/Archive/SwfHandler.cpp:259:10
	movl	$0, -12(%rbp)
.LBB14_1:                               # =>This Inner Loop Header: Depth=1
	.loc	4 260 18                # /home/chris/test-suite/MultiSource/Benchmarks/7zip/CPP/7zip/Archive/SwfHandler.cpp:260:18
	cmpl	$0, -16(%rbp)
	.loc	4 260 3 is_stmt 0       # /home/chris/test-suite/MultiSource/Benchmarks/7zip/CPP/7zip/Archive/SwfHandler.cpp:260:3
	jbe	.LBB14_8
# %bb.2:                                #   in Loop: Header=BB14_1 Depth=1
.Ltmp78:
	.loc	4 262 17 is_stmt 1      # /home/chris/test-suite/MultiSource/Benchmarks/7zip/CPP/7zip/Archive/SwfHandler.cpp:262:17
	cmpl	$0, 8(%rbx)
.Ltmp79:
	.loc	4 262 9 is_stmt 0       # /home/chris/test-suite/MultiSource/Benchmarks/7zip/CPP/7zip/Archive/SwfHandler.cpp:262:9
	jne	.LBB14_4
# %bb.3:                                #   in Loop: Header=BB14_1 Depth=1
.Ltmp80:
	.loc	4 264 13 is_stmt 1      # /home/chris/test-suite/MultiSource/Benchmarks/7zip/CPP/7zip/Archive/SwfHandler.cpp:264:13
	movq	(%rbx), %rdi
	.loc	4 264 21 is_stmt 0      # /home/chris/test-suite/MultiSource/Benchmarks/7zip/CPP/7zip/Archive/SwfHandler.cpp:264:21
	callq	_ZN9CInBuffer8ReadByteEv
	.loc	4 264 11                # /home/chris/test-suite/MultiSource/Benchmarks/7zip/CPP/7zip/Archive/SwfHandler.cpp:264:11
	movb	%al, 12(%rbx)
	.loc	4 265 15 is_stmt 1      # /home/chris/test-suite/MultiSource/Benchmarks/7zip/CPP/7zip/Archive/SwfHandler.cpp:265:15
	movl	$8, 8(%rbx)
.Ltmp81:
.LBB14_4:                               #   in Loop: Header=BB14_1 Depth=1
	.loc	4 267 9                 # /home/chris/test-suite/MultiSource/Benchmarks/7zip/CPP/7zip/Archive/SwfHandler.cpp:267:9
	movl	-16(%rbp), %eax
	.loc	4 267 17 is_stmt 0      # /home/chris/test-suite/MultiSource/Benchmarks/7zip/CPP/7zip/Archive/SwfHandler.cpp:267:17
	cmpl	8(%rbx), %eax
.Ltmp82:
	.loc	4 267 9                 # /home/chris/test-suite/MultiSource/Benchmarks/7zip/CPP/7zip/Archive/SwfHandler.cpp:267:9
	ja	.LBB14_6
# %bb.5:
.Ltmp83:
	.loc	4 269 15 is_stmt 1      # /home/chris/test-suite/MultiSource/Benchmarks/7zip/CPP/7zip/Archive/SwfHandler.cpp:269:15
	movl	-16(%rbp), %ecx
	.loc	4 269 11 is_stmt 0      # /home/chris/test-suite/MultiSource/Benchmarks/7zip/CPP/7zip/Archive/SwfHandler.cpp:269:11
	movl	-12(%rbp), %eax
                                        # kill: def $cl killed $ecx
	shll	%cl, %eax
	movl	%eax, -12(%rbp)
	.loc	4 270 18 is_stmt 1      # /home/chris/test-suite/MultiSource/Benchmarks/7zip/CPP/7zip/Archive/SwfHandler.cpp:270:18
	movl	-16(%rbp), %eax
	.loc	4 270 15 is_stmt 0      # /home/chris/test-suite/MultiSource/Benchmarks/7zip/CPP/7zip/Archive/SwfHandler.cpp:270:15
	movl	8(%rbx), %ecx
	subl	%eax, %ecx
	movl	%ecx, 8(%rbx)
	.loc	4 271 15 is_stmt 1      # /home/chris/test-suite/MultiSource/Benchmarks/7zip/CPP/7zip/Archive/SwfHandler.cpp:271:15
	movzbl	12(%rbx), %eax
	.loc	4 271 22 is_stmt 0      # /home/chris/test-suite/MultiSource/Benchmarks/7zip/CPP/7zip/Archive/SwfHandler.cpp:271:22
	movl	8(%rbx), %ecx
                                        # kill: def $cl killed $ecx
	.loc	4 271 19                # /home/chris/test-suite/MultiSource/Benchmarks/7zip/CPP/7zip/Archive/SwfHandler.cpp:271:19
	sarl	%cl, %eax
	.loc	4 271 11                # /home/chris/test-suite/MultiSource/Benchmarks/7zip/CPP/7zip/Archive/SwfHandler.cpp:271:11
	orl	-12(%rbp), %eax
	movl	%eax, -12(%rbp)
	.loc	4 272 20 is_stmt 1      # /home/chris/test-suite/MultiSource/Benchmarks/7zip/CPP/7zip/Archive/SwfHandler.cpp:272:20
	movl	8(%rbx), %ecx
                                        # kill: def $cl killed $ecx
	.loc	4 272 17 is_stmt 0      # /home/chris/test-suite/MultiSource/Benchmarks/7zip/CPP/7zip/Archive/SwfHandler.cpp:272:17
	movl	$1, %eax
	shll	%cl, %eax
	.loc	4 272 29                # /home/chris/test-suite/MultiSource/Benchmarks/7zip/CPP/7zip/Archive/SwfHandler.cpp:272:29
	subl	$1, %eax
	.loc	4 272 11                # /home/chris/test-suite/MultiSource/Benchmarks/7zip/CPP/7zip/Archive/SwfHandler.cpp:272:11
	movzbl	12(%rbx), %ecx
	andl	%eax, %ecx
	movb	%cl, 12(%rbx)
	.loc	4 273 7 is_stmt 1       # /home/chris/test-suite/MultiSource/Benchmarks/7zip/CPP/7zip/Archive/SwfHandler.cpp:273:7
	jmp	.LBB14_9
.Ltmp84:
.LBB14_6:                               #   in Loop: Header=BB14_1 Depth=1
	.loc	4 277 15                # /home/chris/test-suite/MultiSource/Benchmarks/7zip/CPP/7zip/Archive/SwfHandler.cpp:277:15
	movl	8(%rbx), %ecx
	.loc	4 277 11 is_stmt 0      # /home/chris/test-suite/MultiSource/Benchmarks/7zip/CPP/7zip/Archive/SwfHandler.cpp:277:11
	movl	-12(%rbp), %eax
                                        # kill: def $cl killed $ecx
	shll	%cl, %eax
	movl	%eax, -12(%rbp)
	.loc	4 278 14 is_stmt 1      # /home/chris/test-suite/MultiSource/Benchmarks/7zip/CPP/7zip/Archive/SwfHandler.cpp:278:14
	movzbl	12(%rbx), %eax
	.loc	4 278 11 is_stmt 0      # /home/chris/test-suite/MultiSource/Benchmarks/7zip/CPP/7zip/Archive/SwfHandler.cpp:278:11
	orl	-12(%rbp), %eax
	movl	%eax, -12(%rbp)
	.loc	4 279 18 is_stmt 1      # /home/chris/test-suite/MultiSource/Benchmarks/7zip/CPP/7zip/Archive/SwfHandler.cpp:279:18
	movl	8(%rbx), %eax
	.loc	4 279 15 is_stmt 0      # /home/chris/test-suite/MultiSource/Benchmarks/7zip/CPP/7zip/Archive/SwfHandler.cpp:279:15
	movl	-16(%rbp), %ecx
	subl	%eax, %ecx
	movl	%ecx, -16(%rbp)
	.loc	4 280 15 is_stmt 1      # /home/chris/test-suite/MultiSource/Benchmarks/7zip/CPP/7zip/Archive/SwfHandler.cpp:280:15
	movl	$0, 8(%rbx)
.Ltmp85:
# %bb.7:                                #   in Loop: Header=BB14_1 Depth=1
	.loc	4 260 3                 # /home/chris/test-suite/MultiSource/Benchmarks/7zip/CPP/7zip/Archive/SwfHandler.cpp:260:3
	jmp	.LBB14_1
.LBB14_8:                               # %.loopexit
	.loc	4 283 10                # /home/chris/test-suite/MultiSource/Benchmarks/7zip/CPP/7zip/Archive/SwfHandler.cpp:283:10
	jmp	.LBB14_9
.LBB14_9:
	movl	-12(%rbp), %eax
	.loc	4 283 3 is_stmt 0       # /home/chris/test-suite/MultiSource/Benchmarks/7zip/CPP/7zip/Archive/SwfHandler.cpp:283:3
	addq	$24, %rsp
	popq	%rbx
	popq	%rbp
	.cfi_def_cfa %rsp, 8
	retq
.Ltmp86:
.Lfunc_end14:
	.size	_ZN8NArchive4NSwf10CBitReader8ReadBitsEj, .Lfunc_end14-_ZN8NArchive4NSwf10CBitReader8ReadBitsEj
	.cfi_endproc
	.file	21 "/home/chris/test-suite/MultiSource/Benchmarks/7zip/CPP/7zip/Archive/../Compress/../Common/InBuffer.h"
                                        # -- End function
	.section	.text._ZN9CInBuffer8ReadByteEv,"axG",@progbits,_ZN9CInBuffer8ReadByteEv,comdat
	.weak	_ZN9CInBuffer8ReadByteEv # -- Begin function _ZN9CInBuffer8ReadByteEv
	.p2align	4, 0x90
	.type	_ZN9CInBuffer8ReadByteEv,@function
_ZN9CInBuffer8ReadByteEv:               # @_ZN9CInBuffer8ReadByteEv
.Lfunc_begin15:
	.loc	21 54 0 is_stmt 1       # /home/chris/test-suite/MultiSource/Benchmarks/7zip/CPP/7zip/Archive/../Compress/../Common/InBuffer.h:54:0
	.cfi_startproc
# %bb.0:
	pushq	%rbp
	.cfi_def_cfa_offset 16
	.cfi_offset %rbp, -16
	movq	%rsp, %rbp
	.cfi_def_cfa_register %rbp
	subq	$16, %rsp
	movq	%rdi, -16(%rbp)
	movq	-16(%rbp), %rdi
.Ltmp87:
	.loc	21 55 9 prologue_end    # /home/chris/test-suite/MultiSource/Benchmarks/7zip/CPP/7zip/Archive/../Compress/../Common/InBuffer.h:55:9
	movq	(%rdi), %rax
	.loc	21 55 17 is_stmt 0      # /home/chris/test-suite/MultiSource/Benchmarks/7zip/CPP/7zip/Archive/../Compress/../Common/InBuffer.h:55:17
	cmpq	8(%rdi), %rax
.Ltmp88:
	.loc	21 55 9                 # /home/chris/test-suite/MultiSource/Benchmarks/7zip/CPP/7zip/Archive/../Compress/../Common/InBuffer.h:55:9
	jb	.LBB15_2
# %bb.1:
.Ltmp89:
	.loc	21 56 14 is_stmt 1      # /home/chris/test-suite/MultiSource/Benchmarks/7zip/CPP/7zip/Archive/../Compress/../Common/InBuffer.h:56:14
	callq	_ZN9CInBuffer10ReadBlock2Ev
	.loc	21 56 7 is_stmt 0       # /home/chris/test-suite/MultiSource/Benchmarks/7zip/CPP/7zip/Archive/../Compress/../Common/InBuffer.h:56:7
	movb	%al, -1(%rbp)
	jmp	.LBB15_3
.Ltmp90:
.LBB15_2:
	.loc	21 57 20 is_stmt 1      # /home/chris/test-suite/MultiSource/Benchmarks/7zip/CPP/7zip/Archive/../Compress/../Common/InBuffer.h:57:20
	movq	(%rdi), %rax
	movq	%rax, %rcx
	addq	$1, %rcx
	movq	%rcx, (%rdi)
	.loc	21 57 12 is_stmt 0      # /home/chris/test-suite/MultiSource/Benchmarks/7zip/CPP/7zip/Archive/../Compress/../Common/InBuffer.h:57:12
	movb	(%rax), %al
	.loc	21 57 5                 # /home/chris/test-suite/MultiSource/Benchmarks/7zip/CPP/7zip/Archive/../Compress/../Common/InBuffer.h:57:5
	movb	%al, -1(%rbp)
.LBB15_3:
	.loc	21 58 3 is_stmt 1       # /home/chris/test-suite/MultiSource/Benchmarks/7zip/CPP/7zip/Archive/../Compress/../Common/InBuffer.h:58:3
	movzbl	-1(%rbp), %eax
	addq	$16, %rsp
	popq	%rbp
	.cfi_def_cfa %rsp, 8
	retq
.Ltmp91:
.Lfunc_end15:
	.size	_ZN9CInBuffer8ReadByteEv, .Lfunc_end15-_ZN9CInBuffer8ReadByteEv
	.cfi_endproc
                                        # -- End function
	.text
	.globl	_ZN8NArchive4NSwf8CHandler8OpenSeq3EP19ISequentialInStreamP20IArchiveOpenCallback # -- Begin function _ZN8NArchive4NSwf8CHandler8OpenSeq3EP19ISequentialInStreamP20IArchiveOpenCallback
	.p2align	4, 0x90
	.type	_ZN8NArchive4NSwf8CHandler8OpenSeq3EP19ISequentialInStreamP20IArchiveOpenCallback,@function
_ZN8NArchive4NSwf8CHandler8OpenSeq3EP19ISequentialInStreamP20IArchiveOpenCallback: # @_ZN8NArchive4NSwf8CHandler8OpenSeq3EP19ISequentialInStreamP20IArchiveOpenCallback
.Lfunc_begin16:
	.loc	4 287 0                 # /home/chris/test-suite/MultiSource/Benchmarks/7zip/CPP/7zip/Archive/SwfHandler.cpp:287:0
	.cfi_startproc
	.cfi_personality 3, __gxx_personality_v0
	.cfi_lsda 3, .Lexception4
# %bb.0:
	pushq	%rbp
	.cfi_def_cfa_offset 16
	.cfi_offset %rbp, -16
	movq	%rsp, %rbp
	.cfi_def_cfa_register %rbp
	pushq	%r14
	pushq	%rbx
	subq	$208, %rsp
	.cfi_offset %rbx, -32
	.cfi_offset %r14, -24
	movq	%rdi, -184(%rbp)
	movq	%rsi, -176(%rbp)
	movq	%rdx, -112(%rbp)
	movq	-184(%rbp), %r14
	leaq	-160(%rbp), %rbx
.Ltmp145:
	.loc	4 289 13 prologue_end   # /home/chris/test-suite/MultiSource/Benchmarks/7zip/CPP/7zip/Archive/SwfHandler.cpp:289:13
	movq	%rbx, %rdi
	callq	_ZN9CInBufferC1Ev
.Ltmp92:
.Ltmp146:
	.loc	4 290 10                # /home/chris/test-suite/MultiSource/Benchmarks/7zip/CPP/7zip/Archive/SwfHandler.cpp:290:10
	movq	%rbx, %rdi
	movl	$1048576, %esi          # imm = 0x100000
	callq	_ZN9CInBuffer6CreateEj
.Ltmp93:
	jmp	.LBB16_1
.Ltmp147:
.LBB16_1:
	.loc	4 290 7 is_stmt 0       # /home/chris/test-suite/MultiSource/Benchmarks/7zip/CPP/7zip/Archive/SwfHandler.cpp:290:7
	testb	$1, %al
	jne	.LBB16_6
	jmp	.LBB16_2
.LBB16_2:
.Ltmp148:
	.loc	4 291 5 is_stmt 1       # /home/chris/test-suite/MultiSource/Benchmarks/7zip/CPP/7zip/Archive/SwfHandler.cpp:291:5
	movl	$-2147024882, -24(%rbp) # imm = 0x8007000E
	movl	$1, -32(%rbp)
	jmp	.LBB16_48
.LBB16_3:                               # %.loopexit
.Ltmp141:
	.loc	4 335 1                 # /home/chris/test-suite/MultiSource/Benchmarks/7zip/CPP/7zip/Archive/SwfHandler.cpp:335:1
	jmp	.LBB16_5
.LBB16_4:                               # %.loopexit.split-lp
.Ltmp144:
	jmp	.LBB16_5
.LBB16_5:
	movq	%rax, -104(%rbp)
	movl	%edx, -68(%rbp)
	jmp	.LBB16_49
.Ltmp149:
.LBB16_6:
	.loc	4 292 15                # /home/chris/test-suite/MultiSource/Benchmarks/7zip/CPP/7zip/Archive/SwfHandler.cpp:292:15
	movq	-176(%rbp), %rsi
.Ltmp94:
	leaq	-160(%rbp), %rdi
	.loc	4 292 5 is_stmt 0       # /home/chris/test-suite/MultiSource/Benchmarks/7zip/CPP/7zip/Archive/SwfHandler.cpp:292:5
	callq	_ZN9CInBuffer9SetStreamEP19ISequentialInStream
.Ltmp95:
	jmp	.LBB16_7
.LBB16_7:
.Ltmp96:
	.loc	4 0 5                   # /home/chris/test-suite/MultiSource/Benchmarks/7zip/CPP/7zip/Archive/SwfHandler.cpp:0:5
	leaq	-160(%rbp), %rdi
	.loc	4 293 5 is_stmt 1       # /home/chris/test-suite/MultiSource/Benchmarks/7zip/CPP/7zip/Archive/SwfHandler.cpp:293:5
	callq	_ZN9CInBuffer4InitEv
.Ltmp97:
	jmp	.LBB16_8
.LBB16_8:
.Ltmp98:
	.loc	4 0 5 is_stmt 0         # /home/chris/test-suite/MultiSource/Benchmarks/7zip/CPP/7zip/Archive/SwfHandler.cpp:0:5
	leaq	-88(%rbp), %rdi
.Ltmp150:
	.loc	4 295 16 is_stmt 1      # /home/chris/test-suite/MultiSource/Benchmarks/7zip/CPP/7zip/Archive/SwfHandler.cpp:295:16
	callq	_ZN8NArchive4NSwf10CBitReaderC2Ev
.Ltmp99:
	jmp	.LBB16_9
.LBB16_9:
	.loc	4 0 16 is_stmt 0        # /home/chris/test-suite/MultiSource/Benchmarks/7zip/CPP/7zip/Archive/SwfHandler.cpp:0:16
	leaq	-160(%rbp), %rax
	.loc	4 296 15 is_stmt 1      # /home/chris/test-suite/MultiSource/Benchmarks/7zip/CPP/7zip/Archive/SwfHandler.cpp:296:15
	movq	%rax, -88(%rbp)
.Ltmp100:
	leaq	-88(%rbp), %rdi
	.loc	4 297 27                # /home/chris/test-suite/MultiSource/Benchmarks/7zip/CPP/7zip/Archive/SwfHandler.cpp:297:27
	movl	$5, %esi
	callq	_ZN8NArchive4NSwf10CBitReader8ReadBitsEj
.Ltmp101:
	jmp	.LBB16_10
.LBB16_10:
	.loc	4 297 14 is_stmt 0      # /home/chris/test-suite/MultiSource/Benchmarks/7zip/CPP/7zip/Archive/SwfHandler.cpp:297:14
	movl	%eax, -28(%rbp)
	.loc	4 298 37 is_stmt 1      # /home/chris/test-suite/MultiSource/Benchmarks/7zip/CPP/7zip/Archive/SwfHandler.cpp:298:37
	movl	-28(%rbp), %esi
.Ltmp102:
	leaq	-88(%rbp), %rdi
	.loc	4 298 28 is_stmt 0      # /home/chris/test-suite/MultiSource/Benchmarks/7zip/CPP/7zip/Archive/SwfHandler.cpp:298:28
	callq	_ZN8NArchive4NSwf10CBitReader8ReadBitsEj
.Ltmp103:
	jmp	.LBB16_11
.LBB16_11:
	.loc	4 299 37 is_stmt 1      # /home/chris/test-suite/MultiSource/Benchmarks/7zip/CPP/7zip/Archive/SwfHandler.cpp:299:37
	movl	-28(%rbp), %esi
.Ltmp104:
	leaq	-88(%rbp), %rdi
	.loc	4 299 28 is_stmt 0      # /home/chris/test-suite/MultiSource/Benchmarks/7zip/CPP/7zip/Archive/SwfHandler.cpp:299:28
	callq	_ZN8NArchive4NSwf10CBitReader8ReadBitsEj
.Ltmp105:
	jmp	.LBB16_12
.LBB16_12:
	.loc	4 300 37 is_stmt 1      # /home/chris/test-suite/MultiSource/Benchmarks/7zip/CPP/7zip/Archive/SwfHandler.cpp:300:37
	movl	-28(%rbp), %esi
.Ltmp106:
	leaq	-88(%rbp), %rdi
	.loc	4 300 28 is_stmt 0      # /home/chris/test-suite/MultiSource/Benchmarks/7zip/CPP/7zip/Archive/SwfHandler.cpp:300:28
	callq	_ZN8NArchive4NSwf10CBitReader8ReadBitsEj
.Ltmp107:
	jmp	.LBB16_13
.LBB16_13:
	.loc	4 301 37 is_stmt 1      # /home/chris/test-suite/MultiSource/Benchmarks/7zip/CPP/7zip/Archive/SwfHandler.cpp:301:37
	movl	-28(%rbp), %esi
.Ltmp108:
	leaq	-88(%rbp), %rdi
	.loc	4 301 28 is_stmt 0      # /home/chris/test-suite/MultiSource/Benchmarks/7zip/CPP/7zip/Archive/SwfHandler.cpp:301:28
	callq	_ZN8NArchive4NSwf10CBitReader8ReadBitsEj
.Ltmp109:
	jmp	.LBB16_14
.Ltmp151:
.LBB16_14:
.Ltmp110:
	.loc	4 0 28                  # /home/chris/test-suite/MultiSource/Benchmarks/7zip/CPP/7zip/Archive/SwfHandler.cpp:0:28
	leaq	-160(%rbp), %rdi
	.loc	4 303 29 is_stmt 1      # /home/chris/test-suite/MultiSource/Benchmarks/7zip/CPP/7zip/Archive/SwfHandler.cpp:303:29
	callq	_ZN8NArchive4NSwfL6Read16ER9CInBuffer
.Ltmp111:
	jmp	.LBB16_15
.LBB16_15:
.Ltmp112:
	.loc	4 0 29 is_stmt 0        # /home/chris/test-suite/MultiSource/Benchmarks/7zip/CPP/7zip/Archive/SwfHandler.cpp:0:29
	leaq	-160(%rbp), %rdi
	.loc	4 304 29 is_stmt 1      # /home/chris/test-suite/MultiSource/Benchmarks/7zip/CPP/7zip/Archive/SwfHandler.cpp:304:29
	callq	_ZN8NArchive4NSwfL6Read16ER9CInBuffer
.Ltmp113:
	jmp	.LBB16_16
.LBB16_16:
	.loc	4 306 3                 # /home/chris/test-suite/MultiSource/Benchmarks/7zip/CPP/7zip/Archive/SwfHandler.cpp:306:3
	movq	%r14, %rdi
	addq	$24, %rdi
.Ltmp114:
	.loc	4 306 9 is_stmt 0       # /home/chris/test-suite/MultiSource/Benchmarks/7zip/CPP/7zip/Archive/SwfHandler.cpp:306:9
	callq	_ZN17CBaseRecordVector5ClearEv
.Ltmp115:
	jmp	.LBB16_17
.LBB16_17:
	.loc	4 307 10 is_stmt 1      # /home/chris/test-suite/MultiSource/Benchmarks/7zip/CPP/7zip/Archive/SwfHandler.cpp:307:10
	movq	$0, -96(%rbp)
.LBB16_18:                              # =>This Inner Loop Header: Depth=1
.Ltmp116:
	.loc	4 0 10 is_stmt 0        # /home/chris/test-suite/MultiSource/Benchmarks/7zip/CPP/7zip/Archive/SwfHandler.cpp:0:10
	leaq	-160(%rbp), %rdi
.Ltmp152:
	.loc	4 310 19 is_stmt 1      # /home/chris/test-suite/MultiSource/Benchmarks/7zip/CPP/7zip/Archive/SwfHandler.cpp:310:19
	callq	_ZN8NArchive4NSwfL6Read16ER9CInBuffer
.Ltmp117:
	jmp	.LBB16_19
.LBB16_19:                              #   in Loop: Header=BB16_18 Depth=1
	movzwl	%ax, %eax
	.loc	4 310 12 is_stmt 0      # /home/chris/test-suite/MultiSource/Benchmarks/7zip/CPP/7zip/Archive/SwfHandler.cpp:310:12
	movl	%eax, -44(%rbp)
	.loc	4 311 19 is_stmt 1      # /home/chris/test-suite/MultiSource/Benchmarks/7zip/CPP/7zip/Archive/SwfHandler.cpp:311:19
	movl	-44(%rbp), %eax
	.loc	4 311 24 is_stmt 0      # /home/chris/test-suite/MultiSource/Benchmarks/7zip/CPP/7zip/Archive/SwfHandler.cpp:311:24
	shrl	$6, %eax
	.loc	4 311 12                # /home/chris/test-suite/MultiSource/Benchmarks/7zip/CPP/7zip/Archive/SwfHandler.cpp:311:12
	movl	%eax, -40(%rbp)
	.loc	4 312 21 is_stmt 1      # /home/chris/test-suite/MultiSource/Benchmarks/7zip/CPP/7zip/Archive/SwfHandler.cpp:312:21
	movl	-44(%rbp), %eax
	.loc	4 312 26 is_stmt 0      # /home/chris/test-suite/MultiSource/Benchmarks/7zip/CPP/7zip/Archive/SwfHandler.cpp:312:26
	andl	$63, %eax
	.loc	4 312 12                # /home/chris/test-suite/MultiSource/Benchmarks/7zip/CPP/7zip/Archive/SwfHandler.cpp:312:12
	movl	%eax, -20(%rbp)
.Ltmp153:
	.loc	4 313 16 is_stmt 1      # /home/chris/test-suite/MultiSource/Benchmarks/7zip/CPP/7zip/Archive/SwfHandler.cpp:313:16
	cmpl	$63, -20(%rbp)
.Ltmp154:
	.loc	4 313 9 is_stmt 0       # /home/chris/test-suite/MultiSource/Benchmarks/7zip/CPP/7zip/Archive/SwfHandler.cpp:313:9
	jne	.LBB16_22
# %bb.20:                               #   in Loop: Header=BB16_18 Depth=1
.Ltmp118:
	.loc	4 0 9                   # /home/chris/test-suite/MultiSource/Benchmarks/7zip/CPP/7zip/Archive/SwfHandler.cpp:0:9
	leaq	-160(%rbp), %rdi
.Ltmp155:
	.loc	4 314 16 is_stmt 1      # /home/chris/test-suite/MultiSource/Benchmarks/7zip/CPP/7zip/Archive/SwfHandler.cpp:314:16
	callq	_ZN8NArchive4NSwfL6Read32ER9CInBuffer
.Ltmp119:
	jmp	.LBB16_21
.LBB16_21:                              #   in Loop: Header=BB16_18 Depth=1
	.loc	4 314 14 is_stmt 0      # /home/chris/test-suite/MultiSource/Benchmarks/7zip/CPP/7zip/Archive/SwfHandler.cpp:314:14
	movl	%eax, -20(%rbp)
.Ltmp156:
.LBB16_22:                              #   in Loop: Header=BB16_18 Depth=1
	.loc	4 315 14 is_stmt 1      # /home/chris/test-suite/MultiSource/Benchmarks/7zip/CPP/7zip/Archive/SwfHandler.cpp:315:14
	cmpl	$0, -40(%rbp)
.Ltmp157:
	.loc	4 315 9 is_stmt 0       # /home/chris/test-suite/MultiSource/Benchmarks/7zip/CPP/7zip/Archive/SwfHandler.cpp:315:9
	jne	.LBB16_24
# %bb.23:
.Ltmp158:
	.loc	4 316 7 is_stmt 1       # /home/chris/test-suite/MultiSource/Benchmarks/7zip/CPP/7zip/Archive/SwfHandler.cpp:316:7
	jmp	.LBB16_46
.Ltmp159:
.LBB16_24:                              #   in Loop: Header=BB16_18 Depth=1
.Ltmp120:
	.loc	4 0 7 is_stmt 0         # /home/chris/test-suite/MultiSource/Benchmarks/7zip/CPP/7zip/Archive/SwfHandler.cpp:0:7
	leaq	-160(%rbp), %rdi
	.loc	4 317 23 is_stmt 1      # /home/chris/test-suite/MultiSource/Benchmarks/7zip/CPP/7zip/Archive/SwfHandler.cpp:317:23
	callq	_ZNK9CInBuffer16GetProcessedSizeEv
.Ltmp121:
	jmp	.LBB16_25
.LBB16_25:                              #   in Loop: Header=BB16_18 Depth=1
	.loc	4 317 44 is_stmt 0      # /home/chris/test-suite/MultiSource/Benchmarks/7zip/CPP/7zip/Archive/SwfHandler.cpp:317:44
	movl	-20(%rbp), %ecx
	.loc	4 317 42                # /home/chris/test-suite/MultiSource/Benchmarks/7zip/CPP/7zip/Archive/SwfHandler.cpp:317:42
	addq	%rcx, %rax
	.loc	4 317 12                # /home/chris/test-suite/MultiSource/Benchmarks/7zip/CPP/7zip/Archive/SwfHandler.cpp:317:12
	movq	%rax, -56(%rbp)
.Ltmp160:
	.loc	4 318 16 is_stmt 1      # /home/chris/test-suite/MultiSource/Benchmarks/7zip/CPP/7zip/Archive/SwfHandler.cpp:318:16
	cmpq	$1073741824, -56(%rbp)  # imm = 0x40000000
	.loc	4 318 31 is_stmt 0      # /home/chris/test-suite/MultiSource/Benchmarks/7zip/CPP/7zip/Archive/SwfHandler.cpp:318:31
	ja	.LBB16_28
# %bb.26:                               #   in Loop: Header=BB16_18 Depth=1
	.loc	4 318 34                # /home/chris/test-suite/MultiSource/Benchmarks/7zip/CPP/7zip/Archive/SwfHandler.cpp:318:34
	movq	%r14, %rdi
	addq	$24, %rdi
.Ltmp122:
	.loc	4 318 40                # /home/chris/test-suite/MultiSource/Benchmarks/7zip/CPP/7zip/Archive/SwfHandler.cpp:318:40
	callq	_ZNK17CBaseRecordVector4SizeEv
.Ltmp123:
	jmp	.LBB16_27
.LBB16_27:                              #   in Loop: Header=BB16_18 Depth=1
	.loc	4 318 47                # /home/chris/test-suite/MultiSource/Benchmarks/7zip/CPP/7zip/Archive/SwfHandler.cpp:318:47
	cmpl	$8388608, %eax          # imm = 0x800000
.Ltmp161:
	.loc	4 318 9                 # /home/chris/test-suite/MultiSource/Benchmarks/7zip/CPP/7zip/Archive/SwfHandler.cpp:318:9
	jl	.LBB16_29
.LBB16_28:
.Ltmp162:
	.loc	4 319 7 is_stmt 1       # /home/chris/test-suite/MultiSource/Benchmarks/7zip/CPP/7zip/Archive/SwfHandler.cpp:319:7
	movl	$1, -24(%rbp)
	movl	$1, -32(%rbp)
	jmp	.LBB16_48
.Ltmp163:
.LBB16_29:                              #   in Loop: Header=BB16_18 Depth=1
	.loc	4 320 5                 # /home/chris/test-suite/MultiSource/Benchmarks/7zip/CPP/7zip/Archive/SwfHandler.cpp:320:5
	movq	%r14, %rbx
	addq	$24, %rbx
	.loc	4 320 15 is_stmt 0      # /home/chris/test-suite/MultiSource/Benchmarks/7zip/CPP/7zip/Archive/SwfHandler.cpp:320:15
	xorps	%xmm0, %xmm0
	movaps	%xmm0, -208(%rbp)
	movaps	%xmm0, -224(%rbp)
.Ltmp124:
	leaq	-224(%rbp), %rdi
	callq	_ZN8NArchive4NSwf4CTagC2Ev
.Ltmp125:
	jmp	.LBB16_30
.LBB16_30:                              #   in Loop: Header=BB16_18 Depth=1
.Ltmp126:
	.loc	4 0 15                  # /home/chris/test-suite/MultiSource/Benchmarks/7zip/CPP/7zip/Archive/SwfHandler.cpp:0:15
	leaq	-224(%rbp), %rsi
	.loc	4 320 11                # /home/chris/test-suite/MultiSource/Benchmarks/7zip/CPP/7zip/Archive/SwfHandler.cpp:320:11
	movq	%rbx, %rdi
	callq	_ZN13CObjectVectorIN8NArchive4NSwf4CTagEE3AddERKS2_
.Ltmp127:
	jmp	.LBB16_31
.LBB16_31:                              #   in Loop: Header=BB16_18 Depth=1
	.loc	4 0 11                  # /home/chris/test-suite/MultiSource/Benchmarks/7zip/CPP/7zip/Archive/SwfHandler.cpp:0:11
	leaq	-224(%rbp), %rdi
	.loc	4 320 5                 # /home/chris/test-suite/MultiSource/Benchmarks/7zip/CPP/7zip/Archive/SwfHandler.cpp:320:5
	callq	_ZN8NArchive4NSwf4CTagD2Ev
	.loc	4 321 17 is_stmt 1      # /home/chris/test-suite/MultiSource/Benchmarks/7zip/CPP/7zip/Archive/SwfHandler.cpp:321:17
	movq	%r14, %rdi
	addq	$24, %rdi
.Ltmp129:
	.loc	4 321 23 is_stmt 0      # /home/chris/test-suite/MultiSource/Benchmarks/7zip/CPP/7zip/Archive/SwfHandler.cpp:321:23
	callq	_ZN13CObjectVectorIN8NArchive4NSwf4CTagEE4BackEv
.Ltmp130:
	jmp	.LBB16_32
.LBB16_32:                              #   in Loop: Header=BB16_18 Depth=1
	.loc	4 321 11                # /home/chris/test-suite/MultiSource/Benchmarks/7zip/CPP/7zip/Archive/SwfHandler.cpp:321:11
	movq	%rax, -64(%rbp)
	.loc	4 322 16 is_stmt 1      # /home/chris/test-suite/MultiSource/Benchmarks/7zip/CPP/7zip/Archive/SwfHandler.cpp:322:16
	movl	-40(%rbp), %eax
	.loc	4 322 5 is_stmt 0       # /home/chris/test-suite/MultiSource/Benchmarks/7zip/CPP/7zip/Archive/SwfHandler.cpp:322:5
	movq	-64(%rbp), %rcx
	.loc	4 322 14                # /home/chris/test-suite/MultiSource/Benchmarks/7zip/CPP/7zip/Archive/SwfHandler.cpp:322:14
	movl	%eax, (%rcx)
	.loc	4 323 5 is_stmt 1       # /home/chris/test-suite/MultiSource/Benchmarks/7zip/CPP/7zip/Archive/SwfHandler.cpp:323:5
	movq	-64(%rbp), %rdi
	.loc	4 323 9 is_stmt 0       # /home/chris/test-suite/MultiSource/Benchmarks/7zip/CPP/7zip/Archive/SwfHandler.cpp:323:9
	addq	$8, %rdi
	.loc	4 323 25                # /home/chris/test-suite/MultiSource/Benchmarks/7zip/CPP/7zip/Archive/SwfHandler.cpp:323:25
	movl	-20(%rbp), %esi
.Ltmp131:
	.loc	4 323 13                # /home/chris/test-suite/MultiSource/Benchmarks/7zip/CPP/7zip/Archive/SwfHandler.cpp:323:13
	callq	_ZN7CBufferIhE11SetCapacityEm
.Ltmp132:
	jmp	.LBB16_33
.LBB16_33:                              #   in Loop: Header=BB16_18 Depth=1
.Ltmp164:
	.loc	4 324 21 is_stmt 1      # /home/chris/test-suite/MultiSource/Benchmarks/7zip/CPP/7zip/Archive/SwfHandler.cpp:324:21
	movq	-64(%rbp), %rdi
	.loc	4 324 25 is_stmt 0      # /home/chris/test-suite/MultiSource/Benchmarks/7zip/CPP/7zip/Archive/SwfHandler.cpp:324:25
	addq	$8, %rdi
.Ltmp133:
	.loc	4 324 21                # /home/chris/test-suite/MultiSource/Benchmarks/7zip/CPP/7zip/Archive/SwfHandler.cpp:324:21
	callq	_ZN7CBufferIhEcvPhEv
.Ltmp134:
	jmp	.LBB16_34
.LBB16_34:                              #   in Loop: Header=BB16_18 Depth=1
	.loc	4 324 30                # /home/chris/test-suite/MultiSource/Benchmarks/7zip/CPP/7zip/Archive/SwfHandler.cpp:324:30
	movl	-20(%rbp), %edx
.Ltmp135:
	leaq	-160(%rbp), %rdi
	.loc	4 324 11                # /home/chris/test-suite/MultiSource/Benchmarks/7zip/CPP/7zip/Archive/SwfHandler.cpp:324:11
	movq	%rax, %rsi
	callq	_ZN9CInBuffer9ReadBytesEPhj
.Ltmp136:
	jmp	.LBB16_35
.LBB16_35:                              #   in Loop: Header=BB16_18 Depth=1
	.loc	4 324 38                # /home/chris/test-suite/MultiSource/Benchmarks/7zip/CPP/7zip/Archive/SwfHandler.cpp:324:38
	cmpl	-20(%rbp), %eax
.Ltmp165:
	.loc	4 324 9                 # /home/chris/test-suite/MultiSource/Benchmarks/7zip/CPP/7zip/Archive/SwfHandler.cpp:324:9
	je	.LBB16_38
# %bb.36:
.Ltmp166:
	.loc	4 325 7 is_stmt 1       # /home/chris/test-suite/MultiSource/Benchmarks/7zip/CPP/7zip/Archive/SwfHandler.cpp:325:7
	movl	$1, -24(%rbp)
	movl	$1, -32(%rbp)
	jmp	.LBB16_48
.Ltmp167:
.LBB16_37:
.Ltmp128:
	.loc	4 335 1                 # /home/chris/test-suite/MultiSource/Benchmarks/7zip/CPP/7zip/Archive/SwfHandler.cpp:335:1
	movq	%rax, -104(%rbp)
	movl	%edx, -68(%rbp)
	.loc	4 320 5                 # /home/chris/test-suite/MultiSource/Benchmarks/7zip/CPP/7zip/Archive/SwfHandler.cpp:320:5
	leaq	-224(%rbp), %rdi
	callq	_ZN8NArchive4NSwf4CTagD2Ev
	jmp	.LBB16_49
.LBB16_38:                              #   in Loop: Header=BB16_18 Depth=1
.Ltmp168:
	.loc	4 326 9                 # /home/chris/test-suite/MultiSource/Benchmarks/7zip/CPP/7zip/Archive/SwfHandler.cpp:326:9
	cmpq	$0, -112(%rbp)
	.loc	4 326 18 is_stmt 0      # /home/chris/test-suite/MultiSource/Benchmarks/7zip/CPP/7zip/Archive/SwfHandler.cpp:326:18
	je	.LBB16_45
# %bb.39:                               #   in Loop: Header=BB16_18 Depth=1
	.loc	4 326 21                # /home/chris/test-suite/MultiSource/Benchmarks/7zip/CPP/7zip/Archive/SwfHandler.cpp:326:21
	movq	-56(%rbp), %rax
	.loc	4 326 31                # /home/chris/test-suite/MultiSource/Benchmarks/7zip/CPP/7zip/Archive/SwfHandler.cpp:326:31
	movq	-96(%rbp), %rcx
	.loc	4 326 42                # /home/chris/test-suite/MultiSource/Benchmarks/7zip/CPP/7zip/Archive/SwfHandler.cpp:326:42
	addq	$1048576, %rcx          # imm = 0x100000
	.loc	4 326 28                # /home/chris/test-suite/MultiSource/Benchmarks/7zip/CPP/7zip/Archive/SwfHandler.cpp:326:28
	cmpq	%rcx, %rax
.Ltmp169:
	.loc	4 326 9                 # /home/chris/test-suite/MultiSource/Benchmarks/7zip/CPP/7zip/Archive/SwfHandler.cpp:326:9
	jb	.LBB16_45
# %bb.40:                               #   in Loop: Header=BB16_18 Depth=1
.Ltmp170:
	.loc	4 328 25 is_stmt 1      # /home/chris/test-suite/MultiSource/Benchmarks/7zip/CPP/7zip/Archive/SwfHandler.cpp:328:25
	movq	%r14, %rdi
	addq	$24, %rdi
.Ltmp137:
	.loc	4 328 31 is_stmt 0      # /home/chris/test-suite/MultiSource/Benchmarks/7zip/CPP/7zip/Archive/SwfHandler.cpp:328:31
	callq	_ZNK17CBaseRecordVector4SizeEv
.Ltmp138:
	jmp	.LBB16_41
.LBB16_41:                              #   in Loop: Header=BB16_18 Depth=1
	.loc	4 328 25                # /home/chris/test-suite/MultiSource/Benchmarks/7zip/CPP/7zip/Archive/SwfHandler.cpp:328:25
	cltq
	.loc	4 328 14                # /home/chris/test-suite/MultiSource/Benchmarks/7zip/CPP/7zip/Archive/SwfHandler.cpp:328:14
	movq	%rax, -168(%rbp)
.Ltmp171:
	.loc	4 329 7 is_stmt 1       # /home/chris/test-suite/MultiSource/Benchmarks/7zip/CPP/7zip/Archive/SwfHandler.cpp:329:7
	movq	-112(%rbp), %rdi
	movq	(%rdi), %rax
	movq	48(%rax), %rax
.Ltmp139:
	leaq	-168(%rbp), %rsi
	leaq	-56(%rbp), %rdx
	callq	*%rax
.Ltmp140:
	jmp	.LBB16_42
.LBB16_42:                              #   in Loop: Header=BB16_18 Depth=1
	movl	%eax, -36(%rbp)
.Ltmp172:
	.loc	4 329 7 is_stmt 0       # /home/chris/test-suite/MultiSource/Benchmarks/7zip/CPP/7zip/Archive/SwfHandler.cpp:329:7
	cmpl	$0, -36(%rbp)
.Ltmp173:
	.loc	4 329 7                 # /home/chris/test-suite/MultiSource/Benchmarks/7zip/CPP/7zip/Archive/SwfHandler.cpp:329:7
	je	.LBB16_44
# %bb.43:
.Ltmp174:
	.loc	4 329 7                 # /home/chris/test-suite/MultiSource/Benchmarks/7zip/CPP/7zip/Archive/SwfHandler.cpp:329:7
	movl	-36(%rbp), %eax
	movl	%eax, -24(%rbp)
	movl	$1, -32(%rbp)
	jmp	.LBB16_48
.Ltmp175:
.LBB16_44:                              #   in Loop: Header=BB16_18 Depth=1
	.loc	4 330 20 is_stmt 1      # /home/chris/test-suite/MultiSource/Benchmarks/7zip/CPP/7zip/Archive/SwfHandler.cpp:330:20
	movq	-56(%rbp), %rax
	.loc	4 330 18 is_stmt 0      # /home/chris/test-suite/MultiSource/Benchmarks/7zip/CPP/7zip/Archive/SwfHandler.cpp:330:18
	movq	%rax, -96(%rbp)
.Ltmp176:
.LBB16_45:                              #   in Loop: Header=BB16_18 Depth=1
	.loc	4 308 3 is_stmt 1       # /home/chris/test-suite/MultiSource/Benchmarks/7zip/CPP/7zip/Archive/SwfHandler.cpp:308:3
	jmp	.LBB16_18
.Ltmp177:
.LBB16_46:
.Ltmp142:
	.loc	4 0 3 is_stmt 0         # /home/chris/test-suite/MultiSource/Benchmarks/7zip/CPP/7zip/Archive/SwfHandler.cpp:0:3
	leaq	-160(%rbp), %rdi
	.loc	4 333 17 is_stmt 1      # /home/chris/test-suite/MultiSource/Benchmarks/7zip/CPP/7zip/Archive/SwfHandler.cpp:333:17
	callq	_ZNK9CInBuffer16GetProcessedSizeEv
.Ltmp143:
	jmp	.LBB16_47
.LBB16_47:
	.loc	4 333 13 is_stmt 0      # /home/chris/test-suite/MultiSource/Benchmarks/7zip/CPP/7zip/Archive/SwfHandler.cpp:333:13
	movq	%rax, 56(%r14)
	.loc	4 334 3 is_stmt 1       # /home/chris/test-suite/MultiSource/Benchmarks/7zip/CPP/7zip/Archive/SwfHandler.cpp:334:3
	movl	$0, -24(%rbp)
	movl	$1, -32(%rbp)
.LBB16_48:
	.loc	4 335 1                 # /home/chris/test-suite/MultiSource/Benchmarks/7zip/CPP/7zip/Archive/SwfHandler.cpp:335:1
	leaq	-160(%rbp), %rdi
	callq	_ZN9CInBufferD2Ev
	movl	-24(%rbp), %eax
	addq	$208, %rsp
	popq	%rbx
	popq	%r14
	popq	%rbp
	.cfi_def_cfa %rsp, 8
	retq
.LBB16_49:
	.cfi_def_cfa %rbp, 16
	leaq	-160(%rbp), %rdi
	callq	_ZN9CInBufferD2Ev
# %bb.50:
	movq	-104(%rbp), %rdi
	callq	_Unwind_Resume
.Ltmp178:
.Lfunc_end16:
	.size	_ZN8NArchive4NSwf8CHandler8OpenSeq3EP19ISequentialInStreamP20IArchiveOpenCallback, .Lfunc_end16-_ZN8NArchive4NSwf8CHandler8OpenSeq3EP19ISequentialInStreamP20IArchiveOpenCallback
	.cfi_endproc
	.section	.gcc_except_table,"a",@progbits
	.p2align	2
GCC_except_table16:
.Lexception4:
	.byte	255                     # @LPStart Encoding = omit
	.byte	255                     # @TType Encoding = omit
	.byte	1                       # Call site Encoding = uleb128
	.uleb128 .Lcst_end4-.Lcst_begin4
.Lcst_begin4:
	.uleb128 .Lfunc_begin16-.Lfunc_begin16 # >> Call Site 1 <<
	.uleb128 .Ltmp92-.Lfunc_begin16 #   Call between .Lfunc_begin16 and .Ltmp92
	.byte	0                       #     has no landing pad
	.byte	0                       #   On action: cleanup
	.uleb128 .Ltmp92-.Lfunc_begin16 # >> Call Site 2 <<
	.uleb128 .Ltmp115-.Ltmp92       #   Call between .Ltmp92 and .Ltmp115
	.uleb128 .Ltmp144-.Lfunc_begin16 #     jumps to .Ltmp144
	.byte	0                       #   On action: cleanup
	.uleb128 .Ltmp116-.Lfunc_begin16 # >> Call Site 3 <<
	.uleb128 .Ltmp125-.Ltmp116      #   Call between .Ltmp116 and .Ltmp125
	.uleb128 .Ltmp141-.Lfunc_begin16 #     jumps to .Ltmp141
	.byte	0                       #   On action: cleanup
	.uleb128 .Ltmp126-.Lfunc_begin16 # >> Call Site 4 <<
	.uleb128 .Ltmp127-.Ltmp126      #   Call between .Ltmp126 and .Ltmp127
	.uleb128 .Ltmp128-.Lfunc_begin16 #     jumps to .Ltmp128
	.byte	0                       #   On action: cleanup
	.uleb128 .Ltmp129-.Lfunc_begin16 # >> Call Site 5 <<
	.uleb128 .Ltmp140-.Ltmp129      #   Call between .Ltmp129 and .Ltmp140
	.uleb128 .Ltmp141-.Lfunc_begin16 #     jumps to .Ltmp141
	.byte	0                       #   On action: cleanup
	.uleb128 .Ltmp142-.Lfunc_begin16 # >> Call Site 6 <<
	.uleb128 .Ltmp143-.Ltmp142      #   Call between .Ltmp142 and .Ltmp143
	.uleb128 .Ltmp144-.Lfunc_begin16 #     jumps to .Ltmp144
	.byte	0                       #   On action: cleanup
	.uleb128 .Ltmp143-.Lfunc_begin16 # >> Call Site 7 <<
	.uleb128 .Lfunc_end16-.Ltmp143  #   Call between .Ltmp143 and .Lfunc_end16
	.byte	0                       #     has no landing pad
	.byte	0                       #   On action: cleanup
.Lcst_end4:
	.p2align	2
                                        # -- End function
	.section	.text._ZN8NArchive4NSwf10CBitReaderC2Ev,"axG",@progbits,_ZN8NArchive4NSwf10CBitReaderC2Ev,comdat
	.weak	_ZN8NArchive4NSwf10CBitReaderC2Ev # -- Begin function _ZN8NArchive4NSwf10CBitReaderC2Ev
	.p2align	4, 0x90
	.type	_ZN8NArchive4NSwf10CBitReaderC2Ev,@function
_ZN8NArchive4NSwf10CBitReaderC2Ev:      # @_ZN8NArchive4NSwf10CBitReaderC2Ev
.Lfunc_begin17:
	.loc	4 252 0                 # /home/chris/test-suite/MultiSource/Benchmarks/7zip/CPP/7zip/Archive/SwfHandler.cpp:252:0
	.cfi_startproc
# %bb.0:
	pushq	%rbp
	.cfi_def_cfa_offset 16
	.cfi_offset %rbp, -16
	movq	%rsp, %rbp
	.cfi_def_cfa_register %rbp
	movq	%rdi, -8(%rbp)
	movq	-8(%rbp), %rax
.Ltmp179:
	.loc	4 252 17 prologue_end   # /home/chris/test-suite/MultiSource/Benchmarks/7zip/CPP/7zip/Archive/SwfHandler.cpp:252:17
	movl	$0, 8(%rax)
	.loc	4 252 29 is_stmt 0      # /home/chris/test-suite/MultiSource/Benchmarks/7zip/CPP/7zip/Archive/SwfHandler.cpp:252:29
	movb	$0, 12(%rax)
	.loc	4 252 37                # /home/chris/test-suite/MultiSource/Benchmarks/7zip/CPP/7zip/Archive/SwfHandler.cpp:252:37
	popq	%rbp
	.cfi_def_cfa %rsp, 8
	retq
.Ltmp180:
.Lfunc_end17:
	.size	_ZN8NArchive4NSwf10CBitReaderC2Ev, .Lfunc_end17-_ZN8NArchive4NSwf10CBitReaderC2Ev
	.cfi_endproc
                                        # -- End function
	.text
	.p2align	4, 0x90         # -- Begin function _ZN8NArchive4NSwfL6Read16ER9CInBuffer
	.type	_ZN8NArchive4NSwfL6Read16ER9CInBuffer,@function
_ZN8NArchive4NSwfL6Read16ER9CInBuffer:  # @_ZN8NArchive4NSwfL6Read16ER9CInBuffer
.Lfunc_begin18:
	.loc	4 221 0 is_stmt 1       # /home/chris/test-suite/MultiSource/Benchmarks/7zip/CPP/7zip/Archive/SwfHandler.cpp:221:0
	.cfi_startproc
# %bb.0:
	pushq	%rbp
	.cfi_def_cfa_offset 16
	.cfi_offset %rbp, -16
	movq	%rsp, %rbp
	.cfi_def_cfa_register %rbp
	subq	$16, %rsp
	movq	%rdi, -16(%rbp)
.Ltmp181:
	.loc	4 222 10 prologue_end   # /home/chris/test-suite/MultiSource/Benchmarks/7zip/CPP/7zip/Archive/SwfHandler.cpp:222:10
	movw	$0, -2(%rbp)
.Ltmp182:
	.loc	4 223 12                # /home/chris/test-suite/MultiSource/Benchmarks/7zip/CPP/7zip/Archive/SwfHandler.cpp:223:12
	movl	$0, -8(%rbp)
.LBB18_1:                               # =>This Inner Loop Header: Depth=1
.Ltmp183:
	.loc	4 223 21 is_stmt 0      # /home/chris/test-suite/MultiSource/Benchmarks/7zip/CPP/7zip/Archive/SwfHandler.cpp:223:21
	cmpl	$2, -8(%rbp)
.Ltmp184:
	.loc	4 223 3                 # /home/chris/test-suite/MultiSource/Benchmarks/7zip/CPP/7zip/Archive/SwfHandler.cpp:223:3
	jge	.LBB18_6
# %bb.2:                                #   in Loop: Header=BB18_1 Depth=1
.Ltmp185:
	.loc	4 226 10 is_stmt 1      # /home/chris/test-suite/MultiSource/Benchmarks/7zip/CPP/7zip/Archive/SwfHandler.cpp:226:10
	movq	-16(%rbp), %rdi
	.loc	4 226 17 is_stmt 0      # /home/chris/test-suite/MultiSource/Benchmarks/7zip/CPP/7zip/Archive/SwfHandler.cpp:226:17
	leaq	-3(%rbp), %rsi
.Ltmp186:
	#DEBUG_VALUE: b <- [$rsi+0]
	callq	_ZN9CInBuffer8ReadByteERh
.Ltmp187:
	.loc	4 226 9                 # /home/chris/test-suite/MultiSource/Benchmarks/7zip/CPP/7zip/Archive/SwfHandler.cpp:226:9
	testb	$1, %al
	jne	.LBB18_4
# %bb.3:
.Ltmp188:
	.loc	4 227 7 is_stmt 1       # /home/chris/test-suite/MultiSource/Benchmarks/7zip/CPP/7zip/Archive/SwfHandler.cpp:227:7
	movl	$4, %edi
	callq	__cxa_allocate_exception
	movabsq	$_ZTIi, %rsi
	movl	$1, (%rax)
	movq	%rax, %rdi
	xorl	%edx, %edx
	callq	__cxa_throw
.Ltmp189:
.LBB18_4:                               #   in Loop: Header=BB18_1 Depth=1
	.loc	4 228 20                # /home/chris/test-suite/MultiSource/Benchmarks/7zip/CPP/7zip/Archive/SwfHandler.cpp:228:20
	movzbl	-3(%rbp), %eax
	.loc	4 228 12 is_stmt 0      # /home/chris/test-suite/MultiSource/Benchmarks/7zip/CPP/7zip/Archive/SwfHandler.cpp:228:12
	movzwl	%ax, %eax
	.loc	4 228 26                # /home/chris/test-suite/MultiSource/Benchmarks/7zip/CPP/7zip/Archive/SwfHandler.cpp:228:26
	movl	-8(%rbp), %ecx
	.loc	4 228 28                # /home/chris/test-suite/MultiSource/Benchmarks/7zip/CPP/7zip/Archive/SwfHandler.cpp:228:28
	shll	$3, %ecx
                                        # kill: def $cl killed $ecx
	.loc	4 228 22                # /home/chris/test-suite/MultiSource/Benchmarks/7zip/CPP/7zip/Archive/SwfHandler.cpp:228:22
	shll	%cl, %eax
	.loc	4 228 9                 # /home/chris/test-suite/MultiSource/Benchmarks/7zip/CPP/7zip/Archive/SwfHandler.cpp:228:9
	movzwl	-2(%rbp), %ecx
	orl	%eax, %ecx
	movw	%cx, -2(%rbp)
.Ltmp190:
# %bb.5:                                #   in Loop: Header=BB18_1 Depth=1
	.loc	4 223 27 is_stmt 1      # /home/chris/test-suite/MultiSource/Benchmarks/7zip/CPP/7zip/Archive/SwfHandler.cpp:223:27
	movl	-8(%rbp), %eax
	addl	$1, %eax
	movl	%eax, -8(%rbp)
	.loc	4 223 3 is_stmt 0       # /home/chris/test-suite/MultiSource/Benchmarks/7zip/CPP/7zip/Archive/SwfHandler.cpp:223:3
	jmp	.LBB18_1
.Ltmp191:
.LBB18_6:
	.loc	4 230 3 is_stmt 1       # /home/chris/test-suite/MultiSource/Benchmarks/7zip/CPP/7zip/Archive/SwfHandler.cpp:230:3
	movzwl	-2(%rbp), %eax
	addq	$16, %rsp
	popq	%rbp
	.cfi_def_cfa %rsp, 8
	retq
.Ltmp192:
.Lfunc_end18:
	.size	_ZN8NArchive4NSwfL6Read16ER9CInBuffer, .Lfunc_end18-_ZN8NArchive4NSwfL6Read16ER9CInBuffer
	.cfi_endproc
                                        # -- End function
	.p2align	4, 0x90         # -- Begin function _ZN8NArchive4NSwfL6Read32ER9CInBuffer
	.type	_ZN8NArchive4NSwfL6Read32ER9CInBuffer,@function
_ZN8NArchive4NSwfL6Read32ER9CInBuffer:  # @_ZN8NArchive4NSwfL6Read32ER9CInBuffer
.Lfunc_begin19:
	.loc	4 234 0                 # /home/chris/test-suite/MultiSource/Benchmarks/7zip/CPP/7zip/Archive/SwfHandler.cpp:234:0
	.cfi_startproc
# %bb.0:
	pushq	%rbp
	.cfi_def_cfa_offset 16
	.cfi_offset %rbp, -16
	movq	%rsp, %rbp
	.cfi_def_cfa_register %rbp
	subq	$32, %rsp
	movq	%rdi, -24(%rbp)
.Ltmp193:
	.loc	4 235 10 prologue_end   # /home/chris/test-suite/MultiSource/Benchmarks/7zip/CPP/7zip/Archive/SwfHandler.cpp:235:10
	movl	$0, -12(%rbp)
.Ltmp194:
	.loc	4 236 12                # /home/chris/test-suite/MultiSource/Benchmarks/7zip/CPP/7zip/Archive/SwfHandler.cpp:236:12
	movl	$0, -8(%rbp)
.LBB19_1:                               # =>This Inner Loop Header: Depth=1
.Ltmp195:
	.loc	4 236 21 is_stmt 0      # /home/chris/test-suite/MultiSource/Benchmarks/7zip/CPP/7zip/Archive/SwfHandler.cpp:236:21
	cmpl	$4, -8(%rbp)
.Ltmp196:
	.loc	4 236 3                 # /home/chris/test-suite/MultiSource/Benchmarks/7zip/CPP/7zip/Archive/SwfHandler.cpp:236:3
	jge	.LBB19_6
# %bb.2:                                #   in Loop: Header=BB19_1 Depth=1
.Ltmp197:
	.loc	4 239 10 is_stmt 1      # /home/chris/test-suite/MultiSource/Benchmarks/7zip/CPP/7zip/Archive/SwfHandler.cpp:239:10
	movq	-24(%rbp), %rdi
	.loc	4 239 17 is_stmt 0      # /home/chris/test-suite/MultiSource/Benchmarks/7zip/CPP/7zip/Archive/SwfHandler.cpp:239:17
	leaq	-1(%rbp), %rsi
.Ltmp198:
	#DEBUG_VALUE: b <- [$rsi+0]
	callq	_ZN9CInBuffer8ReadByteERh
.Ltmp199:
	.loc	4 239 9                 # /home/chris/test-suite/MultiSource/Benchmarks/7zip/CPP/7zip/Archive/SwfHandler.cpp:239:9
	testb	$1, %al
	jne	.LBB19_4
# %bb.3:
.Ltmp200:
	.loc	4 240 7 is_stmt 1       # /home/chris/test-suite/MultiSource/Benchmarks/7zip/CPP/7zip/Archive/SwfHandler.cpp:240:7
	movl	$4, %edi
	callq	__cxa_allocate_exception
	movabsq	$_ZTIi, %rsi
	movl	$1, (%rax)
	movq	%rax, %rdi
	xorl	%edx, %edx
	callq	__cxa_throw
.Ltmp201:
.LBB19_4:                               #   in Loop: Header=BB19_1 Depth=1
	.loc	4 241 20                # /home/chris/test-suite/MultiSource/Benchmarks/7zip/CPP/7zip/Archive/SwfHandler.cpp:241:20
	movzbl	-1(%rbp), %eax
	.loc	4 241 26 is_stmt 0      # /home/chris/test-suite/MultiSource/Benchmarks/7zip/CPP/7zip/Archive/SwfHandler.cpp:241:26
	movl	-8(%rbp), %ecx
	.loc	4 241 28                # /home/chris/test-suite/MultiSource/Benchmarks/7zip/CPP/7zip/Archive/SwfHandler.cpp:241:28
	shll	$3, %ecx
                                        # kill: def $cl killed $ecx
	.loc	4 241 22                # /home/chris/test-suite/MultiSource/Benchmarks/7zip/CPP/7zip/Archive/SwfHandler.cpp:241:22
	shll	%cl, %eax
	.loc	4 241 9                 # /home/chris/test-suite/MultiSource/Benchmarks/7zip/CPP/7zip/Archive/SwfHandler.cpp:241:9
	orl	-12(%rbp), %eax
	movl	%eax, -12(%rbp)
.Ltmp202:
# %bb.5:                                #   in Loop: Header=BB19_1 Depth=1
	.loc	4 236 27 is_stmt 1      # /home/chris/test-suite/MultiSource/Benchmarks/7zip/CPP/7zip/Archive/SwfHandler.cpp:236:27
	movl	-8(%rbp), %eax
	addl	$1, %eax
	movl	%eax, -8(%rbp)
	.loc	4 236 3 is_stmt 0       # /home/chris/test-suite/MultiSource/Benchmarks/7zip/CPP/7zip/Archive/SwfHandler.cpp:236:3
	jmp	.LBB19_1
.Ltmp203:
.LBB19_6:
	.loc	4 243 10 is_stmt 1      # /home/chris/test-suite/MultiSource/Benchmarks/7zip/CPP/7zip/Archive/SwfHandler.cpp:243:10
	movl	-12(%rbp), %eax
	.loc	4 243 3 is_stmt 0       # /home/chris/test-suite/MultiSource/Benchmarks/7zip/CPP/7zip/Archive/SwfHandler.cpp:243:3
	addq	$32, %rsp
	popq	%rbp
	.cfi_def_cfa %rsp, 8
	retq
.Ltmp204:
.Lfunc_end19:
	.size	_ZN8NArchive4NSwfL6Read32ER9CInBuffer, .Lfunc_end19-_ZN8NArchive4NSwfL6Read32ER9CInBuffer
	.cfi_endproc
                                        # -- End function
	.section	.text._ZNK9CInBuffer16GetProcessedSizeEv,"axG",@progbits,_ZNK9CInBuffer16GetProcessedSizeEv,comdat
	.weak	_ZNK9CInBuffer16GetProcessedSizeEv # -- Begin function _ZNK9CInBuffer16GetProcessedSizeEv
	.p2align	4, 0x90
	.type	_ZNK9CInBuffer16GetProcessedSizeEv,@function
_ZNK9CInBuffer16GetProcessedSizeEv:     # @_ZNK9CInBuffer16GetProcessedSizeEv
.Lfunc_begin20:
	.loc	21 77 0 is_stmt 1       # /home/chris/test-suite/MultiSource/Benchmarks/7zip/CPP/7zip/Archive/../Compress/../Common/InBuffer.h:77:0
	.cfi_startproc
# %bb.0:
	pushq	%rbp
	.cfi_def_cfa_offset 16
	.cfi_offset %rbp, -16
	movq	%rsp, %rbp
	.cfi_def_cfa_register %rbp
	movq	%rdi, -8(%rbp)
	movq	-8(%rbp), %rcx
.Ltmp205:
	.loc	21 77 44 prologue_end   # /home/chris/test-suite/MultiSource/Benchmarks/7zip/CPP/7zip/Archive/../Compress/../Common/InBuffer.h:77:44
	movq	32(%rcx), %rax
	.loc	21 77 62 is_stmt 0      # /home/chris/test-suite/MultiSource/Benchmarks/7zip/CPP/7zip/Archive/../Compress/../Common/InBuffer.h:77:62
	movq	(%rcx), %rdx
	.loc	21 77 72                # /home/chris/test-suite/MultiSource/Benchmarks/7zip/CPP/7zip/Archive/../Compress/../Common/InBuffer.h:77:72
	movq	16(%rcx), %rcx
	.loc	21 77 70                # /home/chris/test-suite/MultiSource/Benchmarks/7zip/CPP/7zip/Archive/../Compress/../Common/InBuffer.h:77:70
	subq	%rcx, %rdx
	.loc	21 77 59                # /home/chris/test-suite/MultiSource/Benchmarks/7zip/CPP/7zip/Archive/../Compress/../Common/InBuffer.h:77:59
	addq	%rdx, %rax
	.loc	21 77 37                # /home/chris/test-suite/MultiSource/Benchmarks/7zip/CPP/7zip/Archive/../Compress/../Common/InBuffer.h:77:37
	popq	%rbp
	.cfi_def_cfa %rsp, 8
	retq
.Ltmp206:
.Lfunc_end20:
	.size	_ZNK9CInBuffer16GetProcessedSizeEv, .Lfunc_end20-_ZNK9CInBuffer16GetProcessedSizeEv
	.cfi_endproc
                                        # -- End function
	.section	.text._ZN13CObjectVectorIN8NArchive4NSwf4CTagEE3AddERKS2_,"axG",@progbits,_ZN13CObjectVectorIN8NArchive4NSwf4CTagEE3AddERKS2_,comdat
	.weak	_ZN13CObjectVectorIN8NArchive4NSwf4CTagEE3AddERKS2_ # -- Begin function _ZN13CObjectVectorIN8NArchive4NSwf4CTagEE3AddERKS2_
	.p2align	4, 0x90
	.type	_ZN13CObjectVectorIN8NArchive4NSwf4CTagEE3AddERKS2_,@function
_ZN13CObjectVectorIN8NArchive4NSwf4CTagEE3AddERKS2_: # @_ZN13CObjectVectorIN8NArchive4NSwf4CTagEE3AddERKS2_
.Lfunc_begin21:
	.loc	19 205 0 is_stmt 1      # /home/chris/test-suite/MultiSource/Benchmarks/7zip/CPP/Common/MyVector.h:205:0
	.cfi_startproc
	.cfi_personality 3, __gxx_personality_v0
	.cfi_lsda 3, .Lexception5
# %bb.0:
	pushq	%rbp
	.cfi_def_cfa_offset 16
	.cfi_offset %rbp, -16
	movq	%rsp, %rbp
	.cfi_def_cfa_register %rbp
	pushq	%r14
	pushq	%rbx
	subq	$32, %rsp
	.cfi_offset %rbx, -32
	.cfi_offset %r14, -24
	movq	%rdi, -40(%rbp)
	movq	%rsi, -32(%rbp)
	movq	-40(%rbp), %r14
.Ltmp210:
	.loc	19 205 55 prologue_end  # /home/chris/test-suite/MultiSource/Benchmarks/7zip/CPP/Common/MyVector.h:205:55
	movl	$32, %edi
	callq	_Znwm
	movq	%rax, %rbx
	.loc	19 205 61 is_stmt 0     # /home/chris/test-suite/MultiSource/Benchmarks/7zip/CPP/Common/MyVector.h:205:61
	movq	-32(%rbp), %rsi
.Ltmp207:
	.loc	19 205 59               # /home/chris/test-suite/MultiSource/Benchmarks/7zip/CPP/Common/MyVector.h:205:59
	movq	%rbx, %rdi
	callq	_ZN8NArchive4NSwf4CTagC2ERKS1_
.Ltmp208:
	jmp	.LBB21_1
.LBB21_1:
	.loc	19 205 51               # /home/chris/test-suite/MultiSource/Benchmarks/7zip/CPP/Common/MyVector.h:205:51
	movq	%r14, %rdi
	movq	%rbx, %rsi
	callq	_ZN13CRecordVectorIPvE3AddES0_
	.loc	19 205 28               # /home/chris/test-suite/MultiSource/Benchmarks/7zip/CPP/Common/MyVector.h:205:28
	addq	$32, %rsp
	popq	%rbx
	popq	%r14
	popq	%rbp
	.cfi_def_cfa %rsp, 8
	retq
.LBB21_2:
	.cfi_def_cfa %rbp, 16
.Ltmp209:
	.loc	19 205 69               # /home/chris/test-suite/MultiSource/Benchmarks/7zip/CPP/Common/MyVector.h:205:69
	movq	%rax, -24(%rbp)
	movl	%edx, -44(%rbp)
	.loc	19 205 55               # /home/chris/test-suite/MultiSource/Benchmarks/7zip/CPP/Common/MyVector.h:205:55
	movq	%rbx, %rdi
	callq	_ZdlPv
# %bb.3:
	movq	-24(%rbp), %rdi
	callq	_Unwind_Resume
.Ltmp211:
.Lfunc_end21:
	.size	_ZN13CObjectVectorIN8NArchive4NSwf4CTagEE3AddERKS2_, .Lfunc_end21-_ZN13CObjectVectorIN8NArchive4NSwf4CTagEE3AddERKS2_
	.cfi_endproc
	.section	.gcc_except_table,"a",@progbits
	.p2align	2
GCC_except_table21:
.Lexception5:
	.byte	255                     # @LPStart Encoding = omit
	.byte	255                     # @TType Encoding = omit
	.byte	1                       # Call site Encoding = uleb128
	.uleb128 .Lcst_end5-.Lcst_begin5
.Lcst_begin5:
	.uleb128 .Lfunc_begin21-.Lfunc_begin21 # >> Call Site 1 <<
	.uleb128 .Ltmp207-.Lfunc_begin21 #   Call between .Lfunc_begin21 and .Ltmp207
	.byte	0                       #     has no landing pad
	.byte	0                       #   On action: cleanup
	.uleb128 .Ltmp207-.Lfunc_begin21 # >> Call Site 2 <<
	.uleb128 .Ltmp208-.Ltmp207      #   Call between .Ltmp207 and .Ltmp208
	.uleb128 .Ltmp209-.Lfunc_begin21 #     jumps to .Ltmp209
	.byte	0                       #   On action: cleanup
	.uleb128 .Ltmp208-.Lfunc_begin21 # >> Call Site 3 <<
	.uleb128 .Lfunc_end21-.Ltmp208  #   Call between .Ltmp208 and .Lfunc_end21
	.byte	0                       #     has no landing pad
	.byte	0                       #   On action: cleanup
.Lcst_end5:
	.p2align	2
                                        # -- End function
	.section	.text._ZN8NArchive4NSwf4CTagC2Ev,"axG",@progbits,_ZN8NArchive4NSwf4CTagC2Ev,comdat
	.weak	_ZN8NArchive4NSwf4CTagC2Ev # -- Begin function _ZN8NArchive4NSwf4CTagC2Ev
	.p2align	4, 0x90
	.type	_ZN8NArchive4NSwf4CTagC2Ev,@function
_ZN8NArchive4NSwf4CTagC2Ev:             # @_ZN8NArchive4NSwf4CTagC2Ev
.Lfunc_begin22:
	.loc	4 36 0 is_stmt 1        # /home/chris/test-suite/MultiSource/Benchmarks/7zip/CPP/7zip/Archive/SwfHandler.cpp:36:0
	.cfi_startproc
# %bb.0:
	pushq	%rbp
	.cfi_def_cfa_offset 16
	.cfi_offset %rbp, -16
	movq	%rsp, %rbp
	.cfi_def_cfa_register %rbp
	subq	$16, %rsp
	movq	%rdi, -8(%rbp)
	movq	-8(%rbp), %rdi
.Ltmp212:
	.loc	4 36 8 prologue_end     # /home/chris/test-suite/MultiSource/Benchmarks/7zip/CPP/7zip/Archive/SwfHandler.cpp:36:8
	addq	$8, %rdi
	callq	_ZN7CBufferIhEC2Ev
	addq	$16, %rsp
	popq	%rbp
	.cfi_def_cfa %rsp, 8
	retq
.Ltmp213:
.Lfunc_end22:
	.size	_ZN8NArchive4NSwf4CTagC2Ev, .Lfunc_end22-_ZN8NArchive4NSwf4CTagC2Ev
	.cfi_endproc
                                        # -- End function
	.section	.text._ZN8NArchive4NSwf4CTagD2Ev,"axG",@progbits,_ZN8NArchive4NSwf4CTagD2Ev,comdat
	.weak	_ZN8NArchive4NSwf4CTagD2Ev # -- Begin function _ZN8NArchive4NSwf4CTagD2Ev
	.p2align	4, 0x90
	.type	_ZN8NArchive4NSwf4CTagD2Ev,@function
_ZN8NArchive4NSwf4CTagD2Ev:             # @_ZN8NArchive4NSwf4CTagD2Ev
.Lfunc_begin23:
	.loc	4 36 0                  # /home/chris/test-suite/MultiSource/Benchmarks/7zip/CPP/7zip/Archive/SwfHandler.cpp:36:0
	.cfi_startproc
# %bb.0:
	pushq	%rbp
	.cfi_def_cfa_offset 16
	.cfi_offset %rbp, -16
	movq	%rsp, %rbp
	.cfi_def_cfa_register %rbp
	subq	$16, %rsp
	movq	%rdi, -8(%rbp)
	movq	-8(%rbp), %rdi
.Ltmp214:
	.loc	4 36 8 prologue_end     # /home/chris/test-suite/MultiSource/Benchmarks/7zip/CPP/7zip/Archive/SwfHandler.cpp:36:8
	addq	$8, %rdi
	callq	_ZN7CBufferIhED2Ev
.Ltmp215:
	.loc	4 36 8 is_stmt 0        # /home/chris/test-suite/MultiSource/Benchmarks/7zip/CPP/7zip/Archive/SwfHandler.cpp:36:8
	addq	$16, %rsp
	popq	%rbp
	.cfi_def_cfa %rsp, 8
	retq
.Ltmp216:
.Lfunc_end23:
	.size	_ZN8NArchive4NSwf4CTagD2Ev, .Lfunc_end23-_ZN8NArchive4NSwf4CTagD2Ev
	.cfi_endproc
                                        # -- End function
	.section	.text._ZN13CObjectVectorIN8NArchive4NSwf4CTagEE4BackEv,"axG",@progbits,_ZN13CObjectVectorIN8NArchive4NSwf4CTagEE4BackEv,comdat
	.weak	_ZN13CObjectVectorIN8NArchive4NSwf4CTagEE4BackEv # -- Begin function _ZN13CObjectVectorIN8NArchive4NSwf4CTagEE4BackEv
	.p2align	4, 0x90
	.type	_ZN13CObjectVectorIN8NArchive4NSwf4CTagEE4BackEv,@function
_ZN13CObjectVectorIN8NArchive4NSwf4CTagEE4BackEv: # @_ZN13CObjectVectorIN8NArchive4NSwf4CTagEE4BackEv
.Lfunc_begin24:
	.loc	19 203 0 is_stmt 1      # /home/chris/test-suite/MultiSource/Benchmarks/7zip/CPP/Common/MyVector.h:203:0
	.cfi_startproc
# %bb.0:
	pushq	%rbp
	.cfi_def_cfa_offset 16
	.cfi_offset %rbp, -16
	movq	%rsp, %rbp
	.cfi_def_cfa_register %rbp
	subq	$16, %rsp
	movq	%rdi, -8(%rbp)
	movq	-8(%rbp), %rdi
.Ltmp217:
	.loc	19 203 33 prologue_end  # /home/chris/test-suite/MultiSource/Benchmarks/7zip/CPP/Common/MyVector.h:203:33
	movl	12(%rdi), %esi
	.loc	19 203 39 is_stmt 0     # /home/chris/test-suite/MultiSource/Benchmarks/7zip/CPP/Common/MyVector.h:203:39
	subl	$1, %esi
	.loc	19 203 22               # /home/chris/test-suite/MultiSource/Benchmarks/7zip/CPP/Common/MyVector.h:203:22
	callq	_ZN13CObjectVectorIN8NArchive4NSwf4CTagEEixEi
	.loc	19 203 15               # /home/chris/test-suite/MultiSource/Benchmarks/7zip/CPP/Common/MyVector.h:203:15
	addq	$16, %rsp
	popq	%rbp
	.cfi_def_cfa %rsp, 8
	retq
.Ltmp218:
.Lfunc_end24:
	.size	_ZN13CObjectVectorIN8NArchive4NSwf4CTagEE4BackEv, .Lfunc_end24-_ZN13CObjectVectorIN8NArchive4NSwf4CTagEE4BackEv
	.cfi_endproc
                                        # -- End function
	.section	.text._ZN7CBufferIhE11SetCapacityEm,"axG",@progbits,_ZN7CBufferIhE11SetCapacityEm,comdat
	.weak	_ZN7CBufferIhE11SetCapacityEm # -- Begin function _ZN7CBufferIhE11SetCapacityEm
	.p2align	4, 0x90
	.type	_ZN7CBufferIhE11SetCapacityEm,@function
_ZN7CBufferIhE11SetCapacityEm:          # @_ZN7CBufferIhE11SetCapacityEm
.Lfunc_begin25:
	.loc	9 28 0 is_stmt 1        # /home/chris/test-suite/MultiSource/Benchmarks/7zip/CPP/Common/Buffer.h:28:0
	.cfi_startproc
# %bb.0:
	pushq	%rbp
	.cfi_def_cfa_offset 16
	.cfi_offset %rbp, -16
	movq	%rsp, %rbp
	.cfi_def_cfa_register %rbp
	pushq	%r15
	pushq	%r14
	pushq	%rbx
	subq	$24, %rsp
	.cfi_offset %rbx, -40
	.cfi_offset %r14, -32
	.cfi_offset %r15, -24
	movq	%rdi, -48(%rbp)
	movq	%rsi, -32(%rbp)
	movq	-48(%rbp), %rbx
.Ltmp219:
	.loc	9 29 9 prologue_end     # /home/chris/test-suite/MultiSource/Benchmarks/7zip/CPP/Common/Buffer.h:29:9
	movq	-32(%rbp), %rax
	.loc	9 29 21 is_stmt 0       # /home/chris/test-suite/MultiSource/Benchmarks/7zip/CPP/Common/Buffer.h:29:21
	cmpq	8(%rbx), %rax
.Ltmp220:
	.loc	9 29 9                  # /home/chris/test-suite/MultiSource/Benchmarks/7zip/CPP/Common/Buffer.h:29:9
	jne	.LBB25_2
# %bb.1:
.Ltmp221:
	.loc	9 30 7 is_stmt 1        # /home/chris/test-suite/MultiSource/Benchmarks/7zip/CPP/Common/Buffer.h:30:7
	jmp	.LBB25_10
.Ltmp222:
.LBB25_2:
	.loc	9 32 21                 # /home/chris/test-suite/MultiSource/Benchmarks/7zip/CPP/Common/Buffer.h:32:21
	cmpq	$0, -32(%rbp)
.Ltmp223:
	.loc	9 32 9 is_stmt 0        # /home/chris/test-suite/MultiSource/Benchmarks/7zip/CPP/Common/Buffer.h:32:9
	jbe	.LBB25_6
# %bb.3:
.Ltmp224:
	.loc	9 34 25 is_stmt 1       # /home/chris/test-suite/MultiSource/Benchmarks/7zip/CPP/Common/Buffer.h:34:25
	movq	-32(%rbp), %rdi
	.loc	9 34 19 is_stmt 0       # /home/chris/test-suite/MultiSource/Benchmarks/7zip/CPP/Common/Buffer.h:34:19
	callq	_Znam
	.loc	9 34 17                 # /home/chris/test-suite/MultiSource/Benchmarks/7zip/CPP/Common/Buffer.h:34:17
	movq	%rax, -40(%rbp)
.Ltmp225:
	.loc	9 35 21 is_stmt 1       # /home/chris/test-suite/MultiSource/Benchmarks/7zip/CPP/Common/Buffer.h:35:21
	cmpq	$0, 8(%rbx)
.Ltmp226:
	.loc	9 35 11 is_stmt 0       # /home/chris/test-suite/MultiSource/Benchmarks/7zip/CPP/Common/Buffer.h:35:11
	jbe	.LBB25_5
# %bb.4:
.Ltmp227:
	.loc	9 36 17 is_stmt 1       # /home/chris/test-suite/MultiSource/Benchmarks/7zip/CPP/Common/Buffer.h:36:17
	movq	-40(%rbp), %r15
	.loc	9 36 28 is_stmt 0       # /home/chris/test-suite/MultiSource/Benchmarks/7zip/CPP/Common/Buffer.h:36:28
	movq	16(%rbx), %r14
	.loc	9 36 42                 # /home/chris/test-suite/MultiSource/Benchmarks/7zip/CPP/Common/Buffer.h:36:42
	movq	8(%rbx), %rdi
	.loc	9 36 53                 # /home/chris/test-suite/MultiSource/Benchmarks/7zip/CPP/Common/Buffer.h:36:53
	movq	-32(%rbp), %rsi
	.loc	9 36 36                 # /home/chris/test-suite/MultiSource/Benchmarks/7zip/CPP/Common/Buffer.h:36:36
	callq	_Z5MyMinImET_S0_S0_
	.loc	9 36 66                 # /home/chris/test-suite/MultiSource/Benchmarks/7zip/CPP/Common/Buffer.h:36:66
	shlq	$0, %rax
	.loc	9 36 9                  # /home/chris/test-suite/MultiSource/Benchmarks/7zip/CPP/Common/Buffer.h:36:9
	movq	%r15, %rdi
	movq	%r14, %rsi
	movq	%rax, %rdx
	callq	memmove
.Ltmp228:
.LBB25_5:
	.loc	9 37 5 is_stmt 1        # /home/chris/test-suite/MultiSource/Benchmarks/7zip/CPP/Common/Buffer.h:37:5
	jmp	.LBB25_7
.Ltmp229:
.LBB25_6:
	.loc	9 39 17                 # /home/chris/test-suite/MultiSource/Benchmarks/7zip/CPP/Common/Buffer.h:39:17
	movq	$0, -40(%rbp)
.Ltmp230:
.LBB25_7:
	.loc	9 40 14                 # /home/chris/test-suite/MultiSource/Benchmarks/7zip/CPP/Common/Buffer.h:40:14
	movq	16(%rbx), %rdi
	.loc	9 40 5 is_stmt 0        # /home/chris/test-suite/MultiSource/Benchmarks/7zip/CPP/Common/Buffer.h:40:5
	cmpq	$0, %rdi
	je	.LBB25_9
# %bb.8:
	callq	_ZdaPv
.LBB25_9:
	.loc	9 41 14 is_stmt 1       # /home/chris/test-suite/MultiSource/Benchmarks/7zip/CPP/Common/Buffer.h:41:14
	movq	-40(%rbp), %rax
	.loc	9 41 12 is_stmt 0       # /home/chris/test-suite/MultiSource/Benchmarks/7zip/CPP/Common/Buffer.h:41:12
	movq	%rax, 16(%rbx)
	.loc	9 42 17 is_stmt 1       # /home/chris/test-suite/MultiSource/Benchmarks/7zip/CPP/Common/Buffer.h:42:17
	movq	-32(%rbp), %rax
	.loc	9 42 15 is_stmt 0       # /home/chris/test-suite/MultiSource/Benchmarks/7zip/CPP/Common/Buffer.h:42:15
	movq	%rax, 8(%rbx)
.LBB25_10:
	.loc	9 43 3 is_stmt 1        # /home/chris/test-suite/MultiSource/Benchmarks/7zip/CPP/Common/Buffer.h:43:3
	addq	$24, %rsp
	popq	%rbx
	popq	%r14
	popq	%r15
	popq	%rbp
	.cfi_def_cfa %rsp, 8
	retq
.Ltmp231:
.Lfunc_end25:
	.size	_ZN7CBufferIhE11SetCapacityEm, .Lfunc_end25-_ZN7CBufferIhE11SetCapacityEm
	.cfi_endproc
                                        # -- End function
	.section	.text._ZN9CInBuffer9ReadBytesEPhj,"axG",@progbits,_ZN9CInBuffer9ReadBytesEPhj,comdat
	.weak	_ZN9CInBuffer9ReadBytesEPhj # -- Begin function _ZN9CInBuffer9ReadBytesEPhj
	.p2align	4, 0x90
	.type	_ZN9CInBuffer9ReadBytesEPhj,@function
_ZN9CInBuffer9ReadBytesEPhj:            # @_ZN9CInBuffer9ReadBytesEPhj
.Lfunc_begin26:
	.loc	21 60 0                 # /home/chris/test-suite/MultiSource/Benchmarks/7zip/CPP/7zip/Archive/../Compress/../Common/InBuffer.h:60:0
	.cfi_startproc
# %bb.0:
	pushq	%rbp
	.cfi_def_cfa_offset 16
	.cfi_offset %rbp, -16
	movq	%rsp, %rbp
	.cfi_def_cfa_register %rbp
	pushq	%rbx
	subq	$40, %rsp
	.cfi_offset %rbx, -24
	movq	%rdi, -40(%rbp)
	movq	%rsi, -32(%rbp)
	movl	%edx, -12(%rbp)
	movq	-40(%rbp), %rbx
.Ltmp232:
	.loc	21 61 18 prologue_end   # /home/chris/test-suite/MultiSource/Benchmarks/7zip/CPP/7zip/Archive/../Compress/../Common/InBuffer.h:61:18
	movq	8(%rbx), %rax
	.loc	21 61 33 is_stmt 0      # /home/chris/test-suite/MultiSource/Benchmarks/7zip/CPP/7zip/Archive/../Compress/../Common/InBuffer.h:61:33
	movq	(%rbx), %rcx
	.loc	21 61 31                # /home/chris/test-suite/MultiSource/Benchmarks/7zip/CPP/7zip/Archive/../Compress/../Common/InBuffer.h:61:31
	subq	%rcx, %rax
	.loc	21 61 42                # /home/chris/test-suite/MultiSource/Benchmarks/7zip/CPP/7zip/Archive/../Compress/../Common/InBuffer.h:61:42
	cmpl	-12(%rbp), %eax
.Ltmp233:
	.loc	21 61 9                 # /home/chris/test-suite/MultiSource/Benchmarks/7zip/CPP/7zip/Archive/../Compress/../Common/InBuffer.h:61:9
	jb	.LBB26_6
# %bb.1:
.Ltmp234:
	.loc	21 63 19 is_stmt 1      # /home/chris/test-suite/MultiSource/Benchmarks/7zip/CPP/7zip/Archive/../Compress/../Common/InBuffer.h:63:19
	movl	$0, -20(%rbp)
.LBB26_2:                               # =>This Inner Loop Header: Depth=1
.Ltmp235:
	.loc	21 63 26 is_stmt 0      # /home/chris/test-suite/MultiSource/Benchmarks/7zip/CPP/7zip/Archive/../Compress/../Common/InBuffer.h:63:26
	movl	-20(%rbp), %eax
	.loc	21 63 28                # /home/chris/test-suite/MultiSource/Benchmarks/7zip/CPP/7zip/Archive/../Compress/../Common/InBuffer.h:63:28
	cmpl	-12(%rbp), %eax
.Ltmp236:
	.loc	21 63 7                 # /home/chris/test-suite/MultiSource/Benchmarks/7zip/CPP/7zip/Archive/../Compress/../Common/InBuffer.h:63:7
	jae	.LBB26_5
# %bb.3:                                #   in Loop: Header=BB26_2 Depth=1
.Ltmp237:
	.loc	21 64 18 is_stmt 1      # /home/chris/test-suite/MultiSource/Benchmarks/7zip/CPP/7zip/Archive/../Compress/../Common/InBuffer.h:64:18
	movq	(%rbx), %rax
	movl	-20(%rbp), %ecx
	movb	(%rax,%rcx), %al
	.loc	21 64 9 is_stmt 0       # /home/chris/test-suite/MultiSource/Benchmarks/7zip/CPP/7zip/Archive/../Compress/../Common/InBuffer.h:64:9
	movq	-32(%rbp), %rcx
	movl	-20(%rbp), %edx
	.loc	21 64 16                # /home/chris/test-suite/MultiSource/Benchmarks/7zip/CPP/7zip/Archive/../Compress/../Common/InBuffer.h:64:16
	movb	%al, (%rcx,%rdx)
# %bb.4:                                #   in Loop: Header=BB26_2 Depth=1
	.loc	21 63 37 is_stmt 1      # /home/chris/test-suite/MultiSource/Benchmarks/7zip/CPP/7zip/Archive/../Compress/../Common/InBuffer.h:63:37
	movl	-20(%rbp), %eax
	addl	$1, %eax
	movl	%eax, -20(%rbp)
	.loc	21 63 7 is_stmt 0       # /home/chris/test-suite/MultiSource/Benchmarks/7zip/CPP/7zip/Archive/../Compress/../Common/InBuffer.h:63:7
	jmp	.LBB26_2
.Ltmp238:
.LBB26_5:
	.loc	21 65 18 is_stmt 1      # /home/chris/test-suite/MultiSource/Benchmarks/7zip/CPP/7zip/Archive/../Compress/../Common/InBuffer.h:65:18
	movl	-12(%rbp), %eax
	.loc	21 65 15 is_stmt 0      # /home/chris/test-suite/MultiSource/Benchmarks/7zip/CPP/7zip/Archive/../Compress/../Common/InBuffer.h:65:15
	movq	(%rbx), %rcx
	movl	%eax, %eax
	addq	%rax, %rcx
	movq	%rcx, (%rbx)
	.loc	21 66 14 is_stmt 1      # /home/chris/test-suite/MultiSource/Benchmarks/7zip/CPP/7zip/Archive/../Compress/../Common/InBuffer.h:66:14
	movl	-12(%rbp), %eax
	.loc	21 66 7 is_stmt 0       # /home/chris/test-suite/MultiSource/Benchmarks/7zip/CPP/7zip/Archive/../Compress/../Common/InBuffer.h:66:7
	movl	%eax, -24(%rbp)
	jmp	.LBB26_15
.Ltmp239:
.LBB26_6:
	.loc	21 68 17 is_stmt 1      # /home/chris/test-suite/MultiSource/Benchmarks/7zip/CPP/7zip/Archive/../Compress/../Common/InBuffer.h:68:17
	movl	$0, -16(%rbp)
.LBB26_7:                               # =>This Inner Loop Header: Depth=1
.Ltmp240:
	.loc	21 68 24 is_stmt 0      # /home/chris/test-suite/MultiSource/Benchmarks/7zip/CPP/7zip/Archive/../Compress/../Common/InBuffer.h:68:24
	movl	-16(%rbp), %eax
	.loc	21 68 26                # /home/chris/test-suite/MultiSource/Benchmarks/7zip/CPP/7zip/Archive/../Compress/../Common/InBuffer.h:68:26
	cmpl	-12(%rbp), %eax
.Ltmp241:
	.loc	21 68 5                 # /home/chris/test-suite/MultiSource/Benchmarks/7zip/CPP/7zip/Archive/../Compress/../Common/InBuffer.h:68:5
	jae	.LBB26_14
# %bb.8:                                #   in Loop: Header=BB26_7 Depth=1
.Ltmp242:
	.loc	21 70 11 is_stmt 1      # /home/chris/test-suite/MultiSource/Benchmarks/7zip/CPP/7zip/Archive/../Compress/../Common/InBuffer.h:70:11
	movq	(%rbx), %rax
	.loc	21 70 19 is_stmt 0      # /home/chris/test-suite/MultiSource/Benchmarks/7zip/CPP/7zip/Archive/../Compress/../Common/InBuffer.h:70:19
	cmpq	8(%rbx), %rax
.Ltmp243:
	.loc	21 70 11                # /home/chris/test-suite/MultiSource/Benchmarks/7zip/CPP/7zip/Archive/../Compress/../Common/InBuffer.h:70:11
	jb	.LBB26_12
# %bb.9:                                #   in Loop: Header=BB26_7 Depth=1
.Ltmp244:
	.loc	21 71 14 is_stmt 1      # /home/chris/test-suite/MultiSource/Benchmarks/7zip/CPP/7zip/Archive/../Compress/../Common/InBuffer.h:71:14
	movq	%rbx, %rdi
	callq	_ZN9CInBuffer9ReadBlockEv
.Ltmp245:
	.loc	21 71 13 is_stmt 0      # /home/chris/test-suite/MultiSource/Benchmarks/7zip/CPP/7zip/Archive/../Compress/../Common/InBuffer.h:71:13
	testb	$1, %al
	jne	.LBB26_11
# %bb.10:
.Ltmp246:
	.loc	21 72 18 is_stmt 1      # /home/chris/test-suite/MultiSource/Benchmarks/7zip/CPP/7zip/Archive/../Compress/../Common/InBuffer.h:72:18
	movl	-16(%rbp), %eax
	.loc	21 72 11 is_stmt 0      # /home/chris/test-suite/MultiSource/Benchmarks/7zip/CPP/7zip/Archive/../Compress/../Common/InBuffer.h:72:11
	movl	%eax, -24(%rbp)
	jmp	.LBB26_15
.LBB26_11:                              #   in Loop: Header=BB26_7 Depth=1
	.loc	21 71 24 is_stmt 1      # /home/chris/test-suite/MultiSource/Benchmarks/7zip/CPP/7zip/Archive/../Compress/../Common/InBuffer.h:71:24
	jmp	.LBB26_12
.Ltmp247:
.LBB26_12:                              #   in Loop: Header=BB26_7 Depth=1
	.loc	21 73 24                # /home/chris/test-suite/MultiSource/Benchmarks/7zip/CPP/7zip/Archive/../Compress/../Common/InBuffer.h:73:24
	movq	(%rbx), %rax
	movq	%rax, %rcx
	addq	$1, %rcx
	movq	%rcx, (%rbx)
	.loc	21 73 16 is_stmt 0      # /home/chris/test-suite/MultiSource/Benchmarks/7zip/CPP/7zip/Archive/../Compress/../Common/InBuffer.h:73:16
	movb	(%rax), %al
	.loc	21 73 7                 # /home/chris/test-suite/MultiSource/Benchmarks/7zip/CPP/7zip/Archive/../Compress/../Common/InBuffer.h:73:7
	movq	-32(%rbp), %rcx
	movl	-16(%rbp), %edx
	.loc	21 73 14                # /home/chris/test-suite/MultiSource/Benchmarks/7zip/CPP/7zip/Archive/../Compress/../Common/InBuffer.h:73:14
	movb	%al, (%rcx,%rdx)
.Ltmp248:
# %bb.13:                               #   in Loop: Header=BB26_7 Depth=1
	.loc	21 68 35 is_stmt 1      # /home/chris/test-suite/MultiSource/Benchmarks/7zip/CPP/7zip/Archive/../Compress/../Common/InBuffer.h:68:35
	movl	-16(%rbp), %eax
	addl	$1, %eax
	movl	%eax, -16(%rbp)
	.loc	21 68 5 is_stmt 0       # /home/chris/test-suite/MultiSource/Benchmarks/7zip/CPP/7zip/Archive/../Compress/../Common/InBuffer.h:68:5
	jmp	.LBB26_7
.Ltmp249:
.LBB26_14:
	.loc	21 75 12 is_stmt 1      # /home/chris/test-suite/MultiSource/Benchmarks/7zip/CPP/7zip/Archive/../Compress/../Common/InBuffer.h:75:12
	movl	-12(%rbp), %eax
	.loc	21 75 5 is_stmt 0       # /home/chris/test-suite/MultiSource/Benchmarks/7zip/CPP/7zip/Archive/../Compress/../Common/InBuffer.h:75:5
	movl	%eax, -24(%rbp)
.LBB26_15:
	.loc	21 76 3 is_stmt 1       # /home/chris/test-suite/MultiSource/Benchmarks/7zip/CPP/7zip/Archive/../Compress/../Common/InBuffer.h:76:3
	movl	-24(%rbp), %eax
	addq	$40, %rsp
	popq	%rbx
	popq	%rbp
	.cfi_def_cfa %rsp, 8
	retq
.Ltmp250:
.Lfunc_end26:
	.size	_ZN9CInBuffer9ReadBytesEPhj, .Lfunc_end26-_ZN9CInBuffer9ReadBytesEPhj
	.cfi_endproc
                                        # -- End function
	.section	.text._ZN7CBufferIhEcvPhEv,"axG",@progbits,_ZN7CBufferIhEcvPhEv,comdat
	.weak	_ZN7CBufferIhEcvPhEv    # -- Begin function _ZN7CBufferIhEcvPhEv
	.p2align	4, 0x90
	.type	_ZN7CBufferIhEcvPhEv,@function
_ZN7CBufferIhEcvPhEv:                   # @_ZN7CBufferIhEcvPhEv
.Lfunc_begin27:
	.loc	9 24 0                  # /home/chris/test-suite/MultiSource/Benchmarks/7zip/CPP/Common/Buffer.h:24:0
	.cfi_startproc
# %bb.0:
	pushq	%rbp
	.cfi_def_cfa_offset 16
	.cfi_offset %rbp, -16
	movq	%rsp, %rbp
	.cfi_def_cfa_register %rbp
	movq	%rdi, -8(%rbp)
	movq	-8(%rbp), %rax
.Ltmp251:
	.loc	9 24 27 prologue_end    # /home/chris/test-suite/MultiSource/Benchmarks/7zip/CPP/Common/Buffer.h:24:27
	movq	16(%rax), %rax
	.loc	9 24 20 is_stmt 0       # /home/chris/test-suite/MultiSource/Benchmarks/7zip/CPP/Common/Buffer.h:24:20
	popq	%rbp
	.cfi_def_cfa %rsp, 8
	retq
.Ltmp252:
.Lfunc_end27:
	.size	_ZN7CBufferIhEcvPhEv, .Lfunc_end27-_ZN7CBufferIhEcvPhEv
	.cfi_endproc
                                        # -- End function
	.section	.text._ZN9CInBufferD2Ev,"axG",@progbits,_ZN9CInBufferD2Ev,comdat
	.weak	_ZN9CInBufferD2Ev       # -- Begin function _ZN9CInBufferD2Ev
	.p2align	4, 0x90
	.type	_ZN9CInBufferD2Ev,@function
_ZN9CInBufferD2Ev:                      # @_ZN9CInBufferD2Ev
.Lfunc_begin28:
	.loc	21 36 0 is_stmt 1       # /home/chris/test-suite/MultiSource/Benchmarks/7zip/CPP/7zip/Archive/../Compress/../Common/InBuffer.h:36:0
	.cfi_startproc
	.cfi_personality 3, __gxx_personality_v0
	.cfi_lsda 3, .Lexception6
# %bb.0:
	pushq	%rbp
	.cfi_def_cfa_offset 16
	.cfi_offset %rbp, -16
	movq	%rsp, %rbp
	.cfi_def_cfa_register %rbp
	pushq	%rbx
	subq	$24, %rsp
	.cfi_offset %rbx, -24
	movq	%rdi, -24(%rbp)
	movq	-24(%rbp), %rbx
.Ltmp253:
.Ltmp256:
	.loc	21 36 18 prologue_end   # /home/chris/test-suite/MultiSource/Benchmarks/7zip/CPP/7zip/Archive/../Compress/../Common/InBuffer.h:36:18
	movq	%rbx, %rdi
	callq	_ZN9CInBuffer4FreeEv
.Ltmp254:
	jmp	.LBB28_1
.LBB28_1:
	.loc	21 36 26 is_stmt 0      # /home/chris/test-suite/MultiSource/Benchmarks/7zip/CPP/7zip/Archive/../Compress/../Common/InBuffer.h:36:26
	addq	$24, %rbx
	movq	%rbx, %rdi
	callq	_ZN9CMyComPtrI19ISequentialInStreamED2Ev
.Ltmp257:
	.loc	21 36 26                # /home/chris/test-suite/MultiSource/Benchmarks/7zip/CPP/7zip/Archive/../Compress/../Common/InBuffer.h:36:26
	addq	$24, %rsp
	popq	%rbx
	popq	%rbp
	.cfi_def_cfa %rsp, 8
	retq
.LBB28_2:
	.cfi_def_cfa %rbp, 16
.Ltmp255:
.Ltmp258:
	.loc	21 36 26                # /home/chris/test-suite/MultiSource/Benchmarks/7zip/CPP/7zip/Archive/../Compress/../Common/InBuffer.h:36:26
	movq	%rax, -16(%rbp)
	movl	%edx, -28(%rbp)
	addq	$24, %rbx
	movq	%rbx, %rdi
	callq	_ZN9CMyComPtrI19ISequentialInStreamED2Ev
# %bb.3:
	movq	-16(%rbp), %rdi
	callq	__clang_call_terminate
.Ltmp259:
.Lfunc_end28:
	.size	_ZN9CInBufferD2Ev, .Lfunc_end28-_ZN9CInBufferD2Ev
	.cfi_endproc
	.section	.gcc_except_table,"a",@progbits
	.p2align	2
GCC_except_table28:
.Lexception6:
	.byte	255                     # @LPStart Encoding = omit
	.byte	3                       # @TType Encoding = udata4
	.uleb128 .Lttbase2-.Lttbaseref2
.Lttbaseref2:
	.byte	1                       # Call site Encoding = uleb128
	.uleb128 .Lcst_end6-.Lcst_begin6
.Lcst_begin6:
	.uleb128 .Ltmp253-.Lfunc_begin28 # >> Call Site 1 <<
	.uleb128 .Ltmp254-.Ltmp253      #   Call between .Ltmp253 and .Ltmp254
	.uleb128 .Ltmp255-.Lfunc_begin28 #     jumps to .Ltmp255
	.byte	1                       #   On action: 1
.Lcst_end6:
	.byte	1                       # >> Action Record 1 <<
                                        #   Catch TypeInfo 1
	.byte	0                       #   No further actions
	.p2align	2
                                        # >> Catch TypeInfos <<
	.long	0                       # TypeInfo 1
.Lttbase2:
	.p2align	2
                                        # -- End function
	.text
	.globl	_ZN8NArchive4NSwf8CHandler7OpenSeqEP19ISequentialInStream # -- Begin function _ZN8NArchive4NSwf8CHandler7OpenSeqEP19ISequentialInStream
	.p2align	4, 0x90
	.type	_ZN8NArchive4NSwf8CHandler7OpenSeqEP19ISequentialInStream,@function
_ZN8NArchive4NSwf8CHandler7OpenSeqEP19ISequentialInStream: # @_ZN8NArchive4NSwf8CHandler7OpenSeqEP19ISequentialInStream
.Lfunc_begin29:
	.loc	4 346 0 is_stmt 1       # /home/chris/test-suite/MultiSource/Benchmarks/7zip/CPP/7zip/Archive/SwfHandler.cpp:346:0
	.cfi_startproc
# %bb.0:
	pushq	%rbp
	.cfi_def_cfa_offset 16
	.cfi_offset %rbp, -16
	movq	%rsp, %rbp
	.cfi_def_cfa_register %rbp
	subq	$16, %rsp
	movq	%rdi, -16(%rbp)
	movq	%rsi, -8(%rbp)
	movq	-16(%rbp), %rdi
.Ltmp260:
	.loc	4 347 19 prologue_end   # /home/chris/test-suite/MultiSource/Benchmarks/7zip/CPP/7zip/Archive/SwfHandler.cpp:347:19
	movq	-8(%rbp), %rsi
	.loc	4 347 10 is_stmt 0      # /home/chris/test-suite/MultiSource/Benchmarks/7zip/CPP/7zip/Archive/SwfHandler.cpp:347:10
	xorl	%edx, %edx
	callq	_ZN8NArchive4NSwf8CHandler8OpenSeq2EP19ISequentialInStreamP20IArchiveOpenCallback
	.loc	4 347 3                 # /home/chris/test-suite/MultiSource/Benchmarks/7zip/CPP/7zip/Archive/SwfHandler.cpp:347:3
	addq	$16, %rsp
	popq	%rbp
	.cfi_def_cfa %rsp, 8
	retq
.Ltmp261:
.Lfunc_end29:
	.size	_ZN8NArchive4NSwf8CHandler7OpenSeqEP19ISequentialInStream, .Lfunc_end29-_ZN8NArchive4NSwf8CHandler7OpenSeqEP19ISequentialInStream
	.cfi_endproc
                                        # -- End function
	.globl	_ZThn8_N8NArchive4NSwf8CHandler7OpenSeqEP19ISequentialInStream # -- Begin function _ZThn8_N8NArchive4NSwf8CHandler7OpenSeqEP19ISequentialInStream
	.p2align	4, 0x90
	.type	_ZThn8_N8NArchive4NSwf8CHandler7OpenSeqEP19ISequentialInStream,@function
_ZThn8_N8NArchive4NSwf8CHandler7OpenSeqEP19ISequentialInStream: # @_ZThn8_N8NArchive4NSwf8CHandler7OpenSeqEP19ISequentialInStream
.Lfunc_begin30:
	.loc	4 0 0 is_stmt 1         # /home/chris/test-suite/MultiSource/Benchmarks/7zip/CPP/7zip/Archive/SwfHandler.cpp:0:0
	.cfi_startproc
# %bb.0:
	pushq	%rbp
	.cfi_def_cfa_offset 16
	.cfi_offset %rbp, -16
	movq	%rsp, %rbp
	.cfi_def_cfa_register %rbp
	movq	%rdi, -16(%rbp)
	movq	%rsi, -8(%rbp)
.Ltmp262:
	movq	-16(%rbp), %rdi
	addq	$-8, %rdi
	movq	-8(%rbp), %rsi
	popq	%rbp
	.cfi_def_cfa %rsp, 8
	jmp	_ZN8NArchive4NSwf8CHandler7OpenSeqEP19ISequentialInStream # TAILCALL
.Ltmp263:
.Lfunc_end30:
	.size	_ZThn8_N8NArchive4NSwf8CHandler7OpenSeqEP19ISequentialInStream, .Lfunc_end30-_ZThn8_N8NArchive4NSwf8CHandler7OpenSeqEP19ISequentialInStream
	.cfi_endproc
                                        # -- End function
	.globl	_ZN8NArchive4NSwf8CHandler5CloseEv # -- Begin function _ZN8NArchive4NSwf8CHandler5CloseEv
	.p2align	4, 0x90
	.type	_ZN8NArchive4NSwf8CHandler5CloseEv,@function
_ZN8NArchive4NSwf8CHandler5CloseEv:     # @_ZN8NArchive4NSwf8CHandler5CloseEv
.Lfunc_begin31:
	.loc	4 351 0                 # /home/chris/test-suite/MultiSource/Benchmarks/7zip/CPP/7zip/Archive/SwfHandler.cpp:351:0
	.cfi_startproc
# %bb.0:
	pushq	%rbp
	.cfi_def_cfa_offset 16
	.cfi_offset %rbp, -16
	movq	%rsp, %rbp
	.cfi_def_cfa_register %rbp
	movq	%rdi, -8(%rbp)
.Ltmp264:
	.loc	4 352 3 prologue_end    # /home/chris/test-suite/MultiSource/Benchmarks/7zip/CPP/7zip/Archive/SwfHandler.cpp:352:3
	xorl	%eax, %eax
	popq	%rbp
	.cfi_def_cfa %rsp, 8
	retq
.Ltmp265:
.Lfunc_end31:
	.size	_ZN8NArchive4NSwf8CHandler5CloseEv, .Lfunc_end31-_ZN8NArchive4NSwf8CHandler5CloseEv
	.cfi_endproc
                                        # -- End function
	.globl	_ZN8NArchive4NSwf8CHandler7ExtractEPKjjiP23IArchiveExtractCallback # -- Begin function _ZN8NArchive4NSwf8CHandler7ExtractEPKjjiP23IArchiveExtractCallback
	.p2align	4, 0x90
	.type	_ZN8NArchive4NSwf8CHandler7ExtractEPKjjiP23IArchiveExtractCallback,@function
_ZN8NArchive4NSwf8CHandler7ExtractEPKjjiP23IArchiveExtractCallback: # @_ZN8NArchive4NSwf8CHandler7ExtractEPKjjiP23IArchiveExtractCallback
.Lfunc_begin32:
	.loc	4 357 0                 # /home/chris/test-suite/MultiSource/Benchmarks/7zip/CPP/7zip/Archive/SwfHandler.cpp:357:0
	.cfi_startproc
	.cfi_personality 3, __gxx_personality_v0
	.cfi_lsda 3, .Lexception7
# %bb.0:
	pushq	%rbp
	.cfi_def_cfa_offset 16
	.cfi_offset %rbp, -16
	movq	%rsp, %rbp
	.cfi_def_cfa_register %rbp
	pushq	%r15
	pushq	%r14
	pushq	%rbx
	subq	$136, %rsp
	.cfi_offset %rbx, -40
	.cfi_offset %r14, -32
	.cfi_offset %r15, -24
	movq	%rdi, -160(%rbp)
	movq	%rsi, -144(%rbp)
	movl	%edx, -48(%rbp)
	movl	%ecx, -120(%rbp)
	movq	%r8, -88(%rbp)
	movq	-160(%rbp), %r15
.Ltmp321:
	.loc	4 359 33 prologue_end   # /home/chris/test-suite/MultiSource/Benchmarks/7zip/CPP/7zip/Archive/SwfHandler.cpp:359:33
	cmpl	$-1, -48(%rbp)
	sete	%al
	.loc	4 359 8 is_stmt 0       # /home/chris/test-suite/MultiSource/Benchmarks/7zip/CPP/7zip/Archive/SwfHandler.cpp:359:8
	andb	$1, %al
	movb	%al, -25(%rbp)
	.loc	4 360 7 is_stmt 1       # /home/chris/test-suite/MultiSource/Benchmarks/7zip/CPP/7zip/Archive/SwfHandler.cpp:360:7
	testb	$1, -25(%rbp)
	je	.LBB32_6
# %bb.1:
.Ltmp322:
	.loc	4 361 16                # /home/chris/test-suite/MultiSource/Benchmarks/7zip/CPP/7zip/Archive/SwfHandler.cpp:361:16
	movq	%r15, %rdi
	addq	$24, %rdi
.Ltmp266:
	.loc	4 361 22 is_stmt 0      # /home/chris/test-suite/MultiSource/Benchmarks/7zip/CPP/7zip/Archive/SwfHandler.cpp:361:22
	callq	_ZNK17CBaseRecordVector4SizeEv
.Ltmp267:
	jmp	.LBB32_2
.LBB32_2:
	.loc	4 361 14                # /home/chris/test-suite/MultiSource/Benchmarks/7zip/CPP/7zip/Archive/SwfHandler.cpp:361:14
	movl	%eax, -48(%rbp)
	.loc	4 361 5                 # /home/chris/test-suite/MultiSource/Benchmarks/7zip/CPP/7zip/Archive/SwfHandler.cpp:361:5
	jmp	.LBB32_6
.LBB32_3:                               # %.loopexit2
.Ltmp317:
	.loc	4 400 1 is_stmt 1       # /home/chris/test-suite/MultiSource/Benchmarks/7zip/CPP/7zip/Archive/SwfHandler.cpp:400:1
	jmp	.LBB32_5
.LBB32_4:                               # %.loopexit.split-lp3
.Ltmp277:
	jmp	.LBB32_5
.LBB32_5:
	movq	%rax, -72(%rbp)
	movl	%edx, -44(%rbp)
	jmp	.LBB32_71
.Ltmp323:
.LBB32_6:
	.loc	4 362 16                # /home/chris/test-suite/MultiSource/Benchmarks/7zip/CPP/7zip/Archive/SwfHandler.cpp:362:16
	cmpl	$0, -48(%rbp)
.Ltmp324:
	.loc	4 362 7 is_stmt 0       # /home/chris/test-suite/MultiSource/Benchmarks/7zip/CPP/7zip/Archive/SwfHandler.cpp:362:7
	jne	.LBB32_8
# %bb.7:
.Ltmp325:
	.loc	4 363 5 is_stmt 1       # /home/chris/test-suite/MultiSource/Benchmarks/7zip/CPP/7zip/Archive/SwfHandler.cpp:363:5
	movl	$0, -40(%rbp)
	jmp	.LBB32_75
.Ltmp326:
.LBB32_8:
	.loc	4 364 10                # /home/chris/test-suite/MultiSource/Benchmarks/7zip/CPP/7zip/Archive/SwfHandler.cpp:364:10
	movq	$0, -64(%rbp)
.Ltmp327:
	.loc	4 366 10                # /home/chris/test-suite/MultiSource/Benchmarks/7zip/CPP/7zip/Archive/SwfHandler.cpp:366:10
	movl	$0, -32(%rbp)
.LBB32_9:                               # =>This Inner Loop Header: Depth=1
.Ltmp328:
	.loc	4 366 15 is_stmt 0      # /home/chris/test-suite/MultiSource/Benchmarks/7zip/CPP/7zip/Archive/SwfHandler.cpp:366:15
	movl	-32(%rbp), %eax
	.loc	4 366 17                # /home/chris/test-suite/MultiSource/Benchmarks/7zip/CPP/7zip/Archive/SwfHandler.cpp:366:17
	cmpl	-48(%rbp), %eax
.Ltmp329:
	.loc	4 366 3                 # /home/chris/test-suite/MultiSource/Benchmarks/7zip/CPP/7zip/Archive/SwfHandler.cpp:366:3
	jae	.LBB32_17
# %bb.10:                               #   in Loop: Header=BB32_9 Depth=1
.Ltmp330:
	.loc	4 367 18 is_stmt 1      # /home/chris/test-suite/MultiSource/Benchmarks/7zip/CPP/7zip/Archive/SwfHandler.cpp:367:18
	movq	%r15, %rdi
	addq	$24, %rdi
	.loc	4 367 24 is_stmt 0      # /home/chris/test-suite/MultiSource/Benchmarks/7zip/CPP/7zip/Archive/SwfHandler.cpp:367:24
	testb	$1, -25(%rbp)
	je	.LBB32_12
# %bb.11:                               #   in Loop: Header=BB32_9 Depth=1
	.loc	4 367 39                # /home/chris/test-suite/MultiSource/Benchmarks/7zip/CPP/7zip/Archive/SwfHandler.cpp:367:39
	movl	-32(%rbp), %esi
	.loc	4 367 24                # /home/chris/test-suite/MultiSource/Benchmarks/7zip/CPP/7zip/Archive/SwfHandler.cpp:367:24
	jmp	.LBB32_13
.LBB32_12:                              #   in Loop: Header=BB32_9 Depth=1
	.loc	4 367 43                # /home/chris/test-suite/MultiSource/Benchmarks/7zip/CPP/7zip/Archive/SwfHandler.cpp:367:43
	movq	-144(%rbp), %rax
	movl	-32(%rbp), %ecx
	movl	(%rax,%rcx,4), %esi
.LBB32_13:                              #   in Loop: Header=BB32_9 Depth=1
.Ltmp313:
	.loc	4 367 18                # /home/chris/test-suite/MultiSource/Benchmarks/7zip/CPP/7zip/Archive/SwfHandler.cpp:367:18
	callq	_ZN13CObjectVectorIN8NArchive4NSwf4CTagEEixEi
.Ltmp314:
	jmp	.LBB32_14
.LBB32_14:                              #   in Loop: Header=BB32_9 Depth=1
	.loc	4 367 55                # /home/chris/test-suite/MultiSource/Benchmarks/7zip/CPP/7zip/Archive/SwfHandler.cpp:367:55
	addq	$8, %rax
.Ltmp315:
	.loc	4 367 59                # /home/chris/test-suite/MultiSource/Benchmarks/7zip/CPP/7zip/Archive/SwfHandler.cpp:367:59
	movq	%rax, %rdi
	callq	_ZNK7CBufferIhE11GetCapacityEv
.Ltmp316:
	jmp	.LBB32_15
.LBB32_15:                              #   in Loop: Header=BB32_9 Depth=1
	.loc	4 367 15                # /home/chris/test-suite/MultiSource/Benchmarks/7zip/CPP/7zip/Archive/SwfHandler.cpp:367:15
	addq	-64(%rbp), %rax
	movq	%rax, -64(%rbp)
# %bb.16:                               #   in Loop: Header=BB32_9 Depth=1
	.loc	4 366 30 is_stmt 1      # /home/chris/test-suite/MultiSource/Benchmarks/7zip/CPP/7zip/Archive/SwfHandler.cpp:366:30
	movl	-32(%rbp), %eax
	addl	$1, %eax
	movl	%eax, -32(%rbp)
	.loc	4 366 3 is_stmt 0       # /home/chris/test-suite/MultiSource/Benchmarks/7zip/CPP/7zip/Archive/SwfHandler.cpp:366:3
	jmp	.LBB32_9
.Ltmp331:
.LBB32_17:
	.loc	4 368 3 is_stmt 1       # /home/chris/test-suite/MultiSource/Benchmarks/7zip/CPP/7zip/Archive/SwfHandler.cpp:368:3
	movq	-88(%rbp), %rdi
	.loc	4 368 29 is_stmt 0      # /home/chris/test-suite/MultiSource/Benchmarks/7zip/CPP/7zip/Archive/SwfHandler.cpp:368:29
	movq	-64(%rbp), %rsi
	.loc	4 368 20                # /home/chris/test-suite/MultiSource/Benchmarks/7zip/CPP/7zip/Archive/SwfHandler.cpp:368:20
	movq	(%rdi), %rax
	movq	40(%rax), %rax
.Ltmp268:
	callq	*%rax
.Ltmp269:
	jmp	.LBB32_18
.LBB32_18:
.Ltmp270:
	.loc	4 370 25 is_stmt 1      # /home/chris/test-suite/MultiSource/Benchmarks/7zip/CPP/7zip/Archive/SwfHandler.cpp:370:25
	movl	$72, %edi
	callq	_Znwm
	movq	%rax, %rbx
.Ltmp271:
	jmp	.LBB32_19
.LBB32_19:
.Ltmp272:
	.loc	4 370 29 is_stmt 0      # /home/chris/test-suite/MultiSource/Benchmarks/7zip/CPP/7zip/Archive/SwfHandler.cpp:370:29
	movq	%rbx, %rdi
	callq	_ZN14CLocalProgressC1Ev
.Ltmp273:
	jmp	.LBB32_20
.LBB32_20:
	.loc	4 370 19                # /home/chris/test-suite/MultiSource/Benchmarks/7zip/CPP/7zip/Archive/SwfHandler.cpp:370:19
	movq	%rbx, -80(%rbp)
	.loc	4 371 47 is_stmt 1      # /home/chris/test-suite/MultiSource/Benchmarks/7zip/CPP/7zip/Archive/SwfHandler.cpp:371:47
	movq	-80(%rbp), %rsi
.Ltmp275:
	leaq	-136(%rbp), %rdi
	callq	_ZN9CMyComPtrI21ICompressProgressInfoEC2EPS0_
.Ltmp276:
	jmp	.LBB32_21
.LBB32_21:
	.loc	4 372 3                 # /home/chris/test-suite/MultiSource/Benchmarks/7zip/CPP/7zip/Archive/SwfHandler.cpp:372:3
	movq	-80(%rbp), %rdi
	.loc	4 372 13 is_stmt 0      # /home/chris/test-suite/MultiSource/Benchmarks/7zip/CPP/7zip/Archive/SwfHandler.cpp:372:13
	movq	-88(%rbp), %rsi
.Ltmp278:
	.loc	4 372 8                 # /home/chris/test-suite/MultiSource/Benchmarks/7zip/CPP/7zip/Archive/SwfHandler.cpp:372:8
	xorl	%edx, %edx
	callq	_ZN14CLocalProgress4InitEP9IProgressb
.Ltmp279:
	jmp	.LBB32_22
.LBB32_22:
	.loc	4 374 13 is_stmt 1      # /home/chris/test-suite/MultiSource/Benchmarks/7zip/CPP/7zip/Archive/SwfHandler.cpp:374:13
	movq	$0, -64(%rbp)
.Ltmp332:
	.loc	4 376 10                # /home/chris/test-suite/MultiSource/Benchmarks/7zip/CPP/7zip/Archive/SwfHandler.cpp:376:10
	movl	$0, -32(%rbp)
.LBB32_23:                              # =>This Inner Loop Header: Depth=1
.Ltmp333:
	.loc	4 376 15 is_stmt 0      # /home/chris/test-suite/MultiSource/Benchmarks/7zip/CPP/7zip/Archive/SwfHandler.cpp:376:15
	movl	-32(%rbp), %eax
	.loc	4 376 17                # /home/chris/test-suite/MultiSource/Benchmarks/7zip/CPP/7zip/Archive/SwfHandler.cpp:376:17
	cmpl	-48(%rbp), %eax
.Ltmp334:
	.loc	4 376 3                 # /home/chris/test-suite/MultiSource/Benchmarks/7zip/CPP/7zip/Archive/SwfHandler.cpp:376:3
	jae	.LBB32_67
# %bb.24:                               #   in Loop: Header=BB32_23 Depth=1
.Ltmp335:
	.loc	4 378 34 is_stmt 1      # /home/chris/test-suite/MultiSource/Benchmarks/7zip/CPP/7zip/Archive/SwfHandler.cpp:378:34
	movq	-64(%rbp), %rax
	.loc	4 378 19 is_stmt 0      # /home/chris/test-suite/MultiSource/Benchmarks/7zip/CPP/7zip/Archive/SwfHandler.cpp:378:19
	movq	-80(%rbp), %rcx
	.loc	4 378 32                # /home/chris/test-suite/MultiSource/Benchmarks/7zip/CPP/7zip/Archive/SwfHandler.cpp:378:32
	movq	%rax, 56(%rcx)
	.loc	4 378 5                 # /home/chris/test-suite/MultiSource/Benchmarks/7zip/CPP/7zip/Archive/SwfHandler.cpp:378:5
	movq	-80(%rbp), %rcx
	.loc	4 378 17                # /home/chris/test-suite/MultiSource/Benchmarks/7zip/CPP/7zip/Archive/SwfHandler.cpp:378:17
	movq	%rax, 48(%rcx)
.Ltmp336:
	.loc	4 379 5 is_stmt 1       # /home/chris/test-suite/MultiSource/Benchmarks/7zip/CPP/7zip/Archive/SwfHandler.cpp:379:5
	movq	-80(%rbp), %rdi
.Ltmp281:
	callq	_ZN14CLocalProgress6SetCurEv
.Ltmp282:
	jmp	.LBB32_25
.LBB32_25:                              #   in Loop: Header=BB32_23 Depth=1
	movl	%eax, -116(%rbp)
.Ltmp337:
	.loc	4 379 5 is_stmt 0       # /home/chris/test-suite/MultiSource/Benchmarks/7zip/CPP/7zip/Archive/SwfHandler.cpp:379:5
	cmpl	$0, -116(%rbp)
.Ltmp338:
	.loc	4 379 5                 # /home/chris/test-suite/MultiSource/Benchmarks/7zip/CPP/7zip/Archive/SwfHandler.cpp:379:5
	je	.LBB32_31
# %bb.26:
.Ltmp339:
	.loc	4 379 5                 # /home/chris/test-suite/MultiSource/Benchmarks/7zip/CPP/7zip/Archive/SwfHandler.cpp:379:5
	movl	-116(%rbp), %eax
	movl	%eax, -40(%rbp)
	movl	$1, -36(%rbp)
	jmp	.LBB32_69
.Ltmp340:
.LBB32_27:
.Ltmp274:
	.loc	4 400 1 is_stmt 1       # /home/chris/test-suite/MultiSource/Benchmarks/7zip/CPP/7zip/Archive/SwfHandler.cpp:400:1
	movq	%rax, -72(%rbp)
	movl	%edx, -44(%rbp)
	.loc	4 370 25                # /home/chris/test-suite/MultiSource/Benchmarks/7zip/CPP/7zip/Archive/SwfHandler.cpp:370:25
	movq	%rbx, %rdi
	callq	_ZdlPv
	jmp	.LBB32_71
.LBB32_28:                              # %.loopexit
.Ltmp289:
	.loc	4 400 1                 # /home/chris/test-suite/MultiSource/Benchmarks/7zip/CPP/7zip/Archive/SwfHandler.cpp:400:1
	jmp	.LBB32_30
.LBB32_29:                              # %.loopexit.split-lp
.Ltmp280:
	jmp	.LBB32_30
.LBB32_30:
	movq	%rax, -72(%rbp)
	movl	%edx, -44(%rbp)
	jmp	.LBB32_70
.LBB32_31:                              #   in Loop: Header=BB32_23 Depth=1
	.loc	4 0 1 is_stmt 0         # /home/chris/test-suite/MultiSource/Benchmarks/7zip/CPP/7zip/Archive/SwfHandler.cpp:0:1
	xorl	%eax, %eax
.Ltmp341:
	.loc	4 380 21 is_stmt 1      # /home/chris/test-suite/MultiSource/Benchmarks/7zip/CPP/7zip/Archive/SwfHandler.cpp:380:21
	movl	-120(%rbp), %ecx
	cmpl	$0, %ecx
	movl	$1, %ecx
	cmovnel	%ecx, %eax
	.loc	4 380 11 is_stmt 0      # /home/chris/test-suite/MultiSource/Benchmarks/7zip/CPP/7zip/Archive/SwfHandler.cpp:380:11
	movl	%eax, -112(%rbp)
	.loc	4 383 20 is_stmt 1      # /home/chris/test-suite/MultiSource/Benchmarks/7zip/CPP/7zip/Archive/SwfHandler.cpp:383:20
	testb	$1, -25(%rbp)
	je	.LBB32_33
# %bb.32:                               #   in Loop: Header=BB32_23 Depth=1
	.loc	4 383 35 is_stmt 0      # /home/chris/test-suite/MultiSource/Benchmarks/7zip/CPP/7zip/Archive/SwfHandler.cpp:383:35
	movl	-32(%rbp), %eax
	.loc	4 383 20                # /home/chris/test-suite/MultiSource/Benchmarks/7zip/CPP/7zip/Archive/SwfHandler.cpp:383:20
	jmp	.LBB32_34
.LBB32_33:                              #   in Loop: Header=BB32_23 Depth=1
	.loc	4 383 39                # /home/chris/test-suite/MultiSource/Benchmarks/7zip/CPP/7zip/Archive/SwfHandler.cpp:383:39
	movq	-144(%rbp), %rax
	movl	-32(%rbp), %ecx
	movl	(%rax,%rcx,4), %eax
.LBB32_34:                              #   in Loop: Header=BB32_23 Depth=1
	.loc	4 383 12                # /home/chris/test-suite/MultiSource/Benchmarks/7zip/CPP/7zip/Archive/SwfHandler.cpp:383:12
	movl	%eax, -108(%rbp)
	.loc	4 384 30 is_stmt 1      # /home/chris/test-suite/MultiSource/Benchmarks/7zip/CPP/7zip/Archive/SwfHandler.cpp:384:30
	movq	%r15, %rdi
	addq	$24, %rdi
	.loc	4 384 36 is_stmt 0      # /home/chris/test-suite/MultiSource/Benchmarks/7zip/CPP/7zip/Archive/SwfHandler.cpp:384:36
	movl	-108(%rbp), %esi
.Ltmp283:
	.loc	4 384 30                # /home/chris/test-suite/MultiSource/Benchmarks/7zip/CPP/7zip/Archive/SwfHandler.cpp:384:30
	callq	_ZN13CObjectVectorIN8NArchive4NSwf4CTagEEixEi
.Ltmp284:
	jmp	.LBB32_35
.LBB32_35:                              #   in Loop: Header=BB32_23 Depth=1
	.loc	4 384 43                # /home/chris/test-suite/MultiSource/Benchmarks/7zip/CPP/7zip/Archive/SwfHandler.cpp:384:43
	addq	$8, %rax
	.loc	4 384 24                # /home/chris/test-suite/MultiSource/Benchmarks/7zip/CPP/7zip/Archive/SwfHandler.cpp:384:24
	movq	%rax, -128(%rbp)
	.loc	4 385 18 is_stmt 1      # /home/chris/test-suite/MultiSource/Benchmarks/7zip/CPP/7zip/Archive/SwfHandler.cpp:385:18
	movq	-128(%rbp), %rdi
.Ltmp285:
	.loc	4 385 22 is_stmt 0      # /home/chris/test-suite/MultiSource/Benchmarks/7zip/CPP/7zip/Archive/SwfHandler.cpp:385:22
	callq	_ZNK7CBufferIhE11GetCapacityEv
.Ltmp286:
	jmp	.LBB32_36
.LBB32_36:                              #   in Loop: Header=BB32_23 Depth=1
	.loc	4 385 15                # /home/chris/test-suite/MultiSource/Benchmarks/7zip/CPP/7zip/Archive/SwfHandler.cpp:385:15
	movq	-64(%rbp), %rcx
	addq	%rax, %rcx
	movq	%rcx, -64(%rbp)
.Ltmp287:
	leaq	-56(%rbp), %rdi
	.loc	4 387 37 is_stmt 1      # /home/chris/test-suite/MultiSource/Benchmarks/7zip/CPP/7zip/Archive/SwfHandler.cpp:387:37
	callq	_ZN9CMyComPtrI20ISequentialOutStreamEC2Ev
.Ltmp288:
	jmp	.LBB32_37
.LBB32_37:                              #   in Loop: Header=BB32_23 Depth=1
.Ltmp342:
	.loc	4 388 5                 # /home/chris/test-suite/MultiSource/Benchmarks/7zip/CPP/7zip/Archive/SwfHandler.cpp:388:5
	movq	-88(%rbp), %rbx
	movl	-108(%rbp), %r14d
.Ltmp290:
	leaq	-56(%rbp), %rdi
	callq	_ZN9CMyComPtrI20ISequentialOutStreamEadEv
.Ltmp291:
	jmp	.LBB32_38
.LBB32_38:                              #   in Loop: Header=BB32_23 Depth=1
	movl	-112(%rbp), %ecx
	movq	(%rbx), %rdx
	movq	56(%rdx), %r8
.Ltmp292:
	movq	%rbx, %rdi
	movl	%r14d, %esi
	movq	%rax, %rdx
	callq	*%r8
.Ltmp293:
	jmp	.LBB32_39
.LBB32_39:                              #   in Loop: Header=BB32_23 Depth=1
	movl	%eax, -104(%rbp)
.Ltmp343:
	.loc	4 388 5 is_stmt 0       # /home/chris/test-suite/MultiSource/Benchmarks/7zip/CPP/7zip/Archive/SwfHandler.cpp:388:5
	cmpl	$0, -104(%rbp)
.Ltmp344:
	.loc	4 388 5                 # /home/chris/test-suite/MultiSource/Benchmarks/7zip/CPP/7zip/Archive/SwfHandler.cpp:388:5
	je	.LBB32_42
# %bb.40:                               #   in Loop: Header=BB32_23 Depth=1
.Ltmp345:
	.loc	4 388 5                 # /home/chris/test-suite/MultiSource/Benchmarks/7zip/CPP/7zip/Archive/SwfHandler.cpp:388:5
	movl	-104(%rbp), %eax
	movl	%eax, -40(%rbp)
	movl	$1, -36(%rbp)
	jmp	.LBB32_63
.Ltmp346:
.LBB32_41:
.Ltmp312:
	.loc	4 400 1 is_stmt 1       # /home/chris/test-suite/MultiSource/Benchmarks/7zip/CPP/7zip/Archive/SwfHandler.cpp:400:1
	movq	%rax, -72(%rbp)
	movl	%edx, -44(%rbp)
.Ltmp347:
	.loc	4 397 3                 # /home/chris/test-suite/MultiSource/Benchmarks/7zip/CPP/7zip/Archive/SwfHandler.cpp:397:3
	leaq	-56(%rbp), %rdi
	callq	_ZN9CMyComPtrI20ISequentialOutStreamED2Ev
	jmp	.LBB32_70
.LBB32_42:                              #   in Loop: Header=BB32_23 Depth=1
.Ltmp348:
	.loc	4 389 10                # /home/chris/test-suite/MultiSource/Benchmarks/7zip/CPP/7zip/Archive/SwfHandler.cpp:389:10
	cmpl	$0, -120(%rbp)
	.loc	4 389 19 is_stmt 0      # /home/chris/test-suite/MultiSource/Benchmarks/7zip/CPP/7zip/Archive/SwfHandler.cpp:389:19
	jne	.LBB32_46
# %bb.43:                               #   in Loop: Header=BB32_23 Depth=1
.Ltmp294:
	.loc	4 0 19                  # /home/chris/test-suite/MultiSource/Benchmarks/7zip/CPP/7zip/Archive/SwfHandler.cpp:0:19
	leaq	-56(%rbp), %rdi
	.loc	4 389 22                # /home/chris/test-suite/MultiSource/Benchmarks/7zip/CPP/7zip/Archive/SwfHandler.cpp:389:22
	callq	_ZNK9CMyComPtrI20ISequentialOutStreamEntEv
.Ltmp295:
	jmp	.LBB32_44
.Ltmp349:
.LBB32_44:                              #   in Loop: Header=BB32_23 Depth=1
	.loc	4 389 9                 # /home/chris/test-suite/MultiSource/Benchmarks/7zip/CPP/7zip/Archive/SwfHandler.cpp:389:9
	testb	$1, %al
	jne	.LBB32_45
	jmp	.LBB32_46
.LBB32_45:                              #   in Loop: Header=BB32_23 Depth=1
	.loc	4 0 9                   # /home/chris/test-suite/MultiSource/Benchmarks/7zip/CPP/7zip/Archive/SwfHandler.cpp:0:9
	movl	$7, -36(%rbp)
.Ltmp350:
	.loc	4 390 7 is_stmt 1       # /home/chris/test-suite/MultiSource/Benchmarks/7zip/CPP/7zip/Archive/SwfHandler.cpp:390:7
	jmp	.LBB32_63
.Ltmp351:
.LBB32_46:                              #   in Loop: Header=BB32_23 Depth=1
	.loc	4 392 5                 # /home/chris/test-suite/MultiSource/Benchmarks/7zip/CPP/7zip/Archive/SwfHandler.cpp:392:5
	movq	-88(%rbp), %rdi
	movl	-112(%rbp), %esi
	movq	(%rdi), %rax
	movq	64(%rax), %rax
.Ltmp296:
	callq	*%rax
.Ltmp297:
	jmp	.LBB32_47
.LBB32_47:                              #   in Loop: Header=BB32_23 Depth=1
	movl	%eax, -100(%rbp)
.Ltmp352:
	.loc	4 392 5 is_stmt 0       # /home/chris/test-suite/MultiSource/Benchmarks/7zip/CPP/7zip/Archive/SwfHandler.cpp:392:5
	cmpl	$0, -100(%rbp)
.Ltmp353:
	.loc	4 392 5                 # /home/chris/test-suite/MultiSource/Benchmarks/7zip/CPP/7zip/Archive/SwfHandler.cpp:392:5
	je	.LBB32_49
# %bb.48:                               #   in Loop: Header=BB32_23 Depth=1
.Ltmp354:
	.loc	4 392 5                 # /home/chris/test-suite/MultiSource/Benchmarks/7zip/CPP/7zip/Archive/SwfHandler.cpp:392:5
	movl	-100(%rbp), %eax
	movl	%eax, -40(%rbp)
	movl	$1, -36(%rbp)
	jmp	.LBB32_63
.Ltmp355:
.LBB32_49:                              #   in Loop: Header=BB32_23 Depth=1
.Ltmp298:
	.loc	4 0 5                   # /home/chris/test-suite/MultiSource/Benchmarks/7zip/CPP/7zip/Archive/SwfHandler.cpp:0:5
	leaq	-56(%rbp), %rdi
.Ltmp356:
	.loc	4 393 9 is_stmt 1       # /home/chris/test-suite/MultiSource/Benchmarks/7zip/CPP/7zip/Archive/SwfHandler.cpp:393:9
	callq	_ZNK9CMyComPtrI20ISequentialOutStreamEcvPS0_Ev
.Ltmp299:
	jmp	.LBB32_50
.LBB32_50:                              #   in Loop: Header=BB32_23 Depth=1
	cmpq	$0, %rax
.Ltmp357:
	.loc	4 393 9 is_stmt 0       # /home/chris/test-suite/MultiSource/Benchmarks/7zip/CPP/7zip/Archive/SwfHandler.cpp:393:9
	je	.LBB32_58
# %bb.51:                               #   in Loop: Header=BB32_23 Depth=1
.Ltmp300:
	.loc	4 0 9                   # /home/chris/test-suite/MultiSource/Benchmarks/7zip/CPP/7zip/Archive/SwfHandler.cpp:0:9
	leaq	-56(%rbp), %rdi
.Ltmp358:
	.loc	4 394 7 is_stmt 1       # /home/chris/test-suite/MultiSource/Benchmarks/7zip/CPP/7zip/Archive/SwfHandler.cpp:394:7
	callq	_ZNK9CMyComPtrI20ISequentialOutStreamEcvPS0_Ev
	movq	%rax, %rbx
.Ltmp301:
	jmp	.LBB32_52
.LBB32_52:                              #   in Loop: Header=BB32_23 Depth=1
	movq	-128(%rbp), %rdi
.Ltmp302:
	callq	_ZNK7CBufferIhEcvPKhEv
	movq	%rax, %r14
.Ltmp303:
	jmp	.LBB32_53
.LBB32_53:                              #   in Loop: Header=BB32_23 Depth=1
	movq	-128(%rbp), %rdi
.Ltmp304:
	callq	_ZNK7CBufferIhE11GetCapacityEv
.Ltmp305:
	jmp	.LBB32_54
.LBB32_54:                              #   in Loop: Header=BB32_23 Depth=1
.Ltmp306:
	movq	%rbx, %rdi
	movq	%r14, %rsi
	movq	%rax, %rdx
	callq	_Z11WriteStreamP20ISequentialOutStreamPKvm
.Ltmp307:
	jmp	.LBB32_55
.LBB32_55:                              #   in Loop: Header=BB32_23 Depth=1
	movl	%eax, -96(%rbp)
.Ltmp359:
	.loc	4 394 7 is_stmt 0       # /home/chris/test-suite/MultiSource/Benchmarks/7zip/CPP/7zip/Archive/SwfHandler.cpp:394:7
	cmpl	$0, -96(%rbp)
.Ltmp360:
	.loc	4 394 7                 # /home/chris/test-suite/MultiSource/Benchmarks/7zip/CPP/7zip/Archive/SwfHandler.cpp:394:7
	je	.LBB32_57
# %bb.56:                               #   in Loop: Header=BB32_23 Depth=1
.Ltmp361:
	.loc	4 394 7                 # /home/chris/test-suite/MultiSource/Benchmarks/7zip/CPP/7zip/Archive/SwfHandler.cpp:394:7
	movl	-96(%rbp), %eax
	movl	%eax, -40(%rbp)
	movl	$1, -36(%rbp)
	jmp	.LBB32_63
.Ltmp362:
.LBB32_57:                              #   in Loop: Header=BB32_23 Depth=1
	.loc	4 394 7                 # /home/chris/test-suite/MultiSource/Benchmarks/7zip/CPP/7zip/Archive/SwfHandler.cpp:394:7
	jmp	.LBB32_58
.Ltmp363:
.LBB32_58:                              #   in Loop: Header=BB32_23 Depth=1
.Ltmp308:
	.loc	4 0 7                   # /home/chris/test-suite/MultiSource/Benchmarks/7zip/CPP/7zip/Archive/SwfHandler.cpp:0:7
	leaq	-56(%rbp), %rdi
	.loc	4 395 15 is_stmt 1      # /home/chris/test-suite/MultiSource/Benchmarks/7zip/CPP/7zip/Archive/SwfHandler.cpp:395:15
	callq	_ZN9CMyComPtrI20ISequentialOutStreamE7ReleaseEv
.Ltmp309:
	jmp	.LBB32_59
.LBB32_59:                              #   in Loop: Header=BB32_23 Depth=1
.Ltmp364:
	.loc	4 396 5                 # /home/chris/test-suite/MultiSource/Benchmarks/7zip/CPP/7zip/Archive/SwfHandler.cpp:396:5
	movq	-88(%rbp), %rdi
	movq	(%rdi), %rax
	movq	72(%rax), %rax
.Ltmp310:
	xorl	%esi, %esi
	callq	*%rax
.Ltmp311:
	jmp	.LBB32_60
.LBB32_60:                              #   in Loop: Header=BB32_23 Depth=1
	movl	%eax, -92(%rbp)
.Ltmp365:
	.loc	4 396 5 is_stmt 0       # /home/chris/test-suite/MultiSource/Benchmarks/7zip/CPP/7zip/Archive/SwfHandler.cpp:396:5
	cmpl	$0, -92(%rbp)
.Ltmp366:
	.loc	4 396 5                 # /home/chris/test-suite/MultiSource/Benchmarks/7zip/CPP/7zip/Archive/SwfHandler.cpp:396:5
	je	.LBB32_62
# %bb.61:                               #   in Loop: Header=BB32_23 Depth=1
.Ltmp367:
	.loc	4 396 5                 # /home/chris/test-suite/MultiSource/Benchmarks/7zip/CPP/7zip/Archive/SwfHandler.cpp:396:5
	movl	-92(%rbp), %eax
	movl	%eax, -40(%rbp)
	movl	$1, -36(%rbp)
	jmp	.LBB32_63
.Ltmp368:
.LBB32_62:                              #   in Loop: Header=BB32_23 Depth=1
	.loc	4 397 3 is_stmt 1       # /home/chris/test-suite/MultiSource/Benchmarks/7zip/CPP/7zip/Archive/SwfHandler.cpp:397:3
	movl	$0, -36(%rbp)
.LBB32_63:                              #   in Loop: Header=BB32_23 Depth=1
	.loc	4 0 3 is_stmt 0         # /home/chris/test-suite/MultiSource/Benchmarks/7zip/CPP/7zip/Archive/SwfHandler.cpp:0:3
	leaq	-56(%rbp), %rdi
	.loc	4 397 3                 # /home/chris/test-suite/MultiSource/Benchmarks/7zip/CPP/7zip/Archive/SwfHandler.cpp:397:3
	callq	_ZN9CMyComPtrI20ISequentialOutStreamED2Ev
	movl	-36(%rbp), %eax
	testl	%eax, %eax
	je	.LBB32_65
	jmp	.LBB32_64
.LBB32_64:                              #   in Loop: Header=BB32_23 Depth=1
	.loc	4 0 3                   # /home/chris/test-suite/MultiSource/Benchmarks/7zip/CPP/7zip/Archive/SwfHandler.cpp:0:3
	subl	$7, %eax
	je	.LBB32_66
	jmp	.LBB32_68
.LBB32_65:                              #   in Loop: Header=BB32_23 Depth=1
.Ltmp369:
	.loc	4 397 3                 # /home/chris/test-suite/MultiSource/Benchmarks/7zip/CPP/7zip/Archive/SwfHandler.cpp:397:3
	jmp	.LBB32_66
.Ltmp370:
.LBB32_66:                              #   in Loop: Header=BB32_23 Depth=1
	.loc	4 376 30 is_stmt 1      # /home/chris/test-suite/MultiSource/Benchmarks/7zip/CPP/7zip/Archive/SwfHandler.cpp:376:30
	movl	-32(%rbp), %eax
	addl	$1, %eax
	movl	%eax, -32(%rbp)
	.loc	4 376 3 is_stmt 0       # /home/chris/test-suite/MultiSource/Benchmarks/7zip/CPP/7zip/Archive/SwfHandler.cpp:376:3
	jmp	.LBB32_23
.Ltmp371:
.LBB32_67:
	.loc	4 398 3 is_stmt 1       # /home/chris/test-suite/MultiSource/Benchmarks/7zip/CPP/7zip/Archive/SwfHandler.cpp:398:3
	movl	$0, -40(%rbp)
	movl	$1, -36(%rbp)
	jmp	.LBB32_69
.Ltmp372:
.LBB32_68:                              # %.loopexit1
	.loc	4 399 3                 # /home/chris/test-suite/MultiSource/Benchmarks/7zip/CPP/7zip/Archive/SwfHandler.cpp:399:3
	jmp	.LBB32_69
.LBB32_69:
	leaq	-136(%rbp), %rdi
	callq	_ZN9CMyComPtrI21ICompressProgressInfoED2Ev
	jmp	.LBB32_75
.LBB32_70:
	leaq	-136(%rbp), %rdi
	callq	_ZN9CMyComPtrI21ICompressProgressInfoED2Ev
.LBB32_71:
.Ltmp373:
	.loc	4 399 3 is_stmt 0       # /home/chris/test-suite/MultiSource/Benchmarks/7zip/CPP/7zip/Archive/SwfHandler.cpp:399:3
	movl	-44(%rbp), %eax
	movl	$2, %ecx
	cmpl	%ecx, %eax
	jne	.LBB32_73
.Ltmp374:
# %bb.72:
	.loc	4 399 3                 # /home/chris/test-suite/MultiSource/Benchmarks/7zip/CPP/7zip/Archive/SwfHandler.cpp:399:3
	movq	-72(%rbp), %rdi
	callq	__cxa_begin_catch
	movq	%rax, -152(%rbp)
.Ltmp375:
	.loc	4 399 3                 # /home/chris/test-suite/MultiSource/Benchmarks/7zip/CPP/7zip/Archive/SwfHandler.cpp:399:3
	movl	$8, %edi
	callq	__cxa_allocate_exception
	movq	-152(%rbp), %rcx
	movq	%rcx, (%rax)
.Ltmp318:
	movq	%rax, %rdi
	movl	$_ZTIPKc, %esi
	xorl	%edx, %edx
	callq	__cxa_throw
.Ltmp319:
	jmp	.LBB32_77
.Ltmp376:
.LBB32_73:
	.loc	4 399 3                 # /home/chris/test-suite/MultiSource/Benchmarks/7zip/CPP/7zip/Archive/SwfHandler.cpp:399:3
	movq	-72(%rbp), %rdi
	callq	__cxa_begin_catch
.Ltmp377:
	.loc	4 399 3                 # /home/chris/test-suite/MultiSource/Benchmarks/7zip/CPP/7zip/Archive/SwfHandler.cpp:399:3
	movl	$-2147024882, -40(%rbp) # imm = 0x8007000E
	movl	$1, -36(%rbp)
	callq	__cxa_end_catch
	jmp	.LBB32_75
.Ltmp378:
.LBB32_74:
.Ltmp320:
	.loc	4 400 1 is_stmt 1       # /home/chris/test-suite/MultiSource/Benchmarks/7zip/CPP/7zip/Archive/SwfHandler.cpp:400:1
	movq	%rax, -72(%rbp)
	movl	%edx, -44(%rbp)
	.loc	4 399 3                 # /home/chris/test-suite/MultiSource/Benchmarks/7zip/CPP/7zip/Archive/SwfHandler.cpp:399:3
	callq	__cxa_end_catch
	jmp	.LBB32_76
.Ltmp379:
.LBB32_75:
	.loc	4 400 1                 # /home/chris/test-suite/MultiSource/Benchmarks/7zip/CPP/7zip/Archive/SwfHandler.cpp:400:1
	movl	-40(%rbp), %eax
	addq	$136, %rsp
	popq	%rbx
	popq	%r14
	popq	%r15
	popq	%rbp
	.cfi_def_cfa %rsp, 8
	retq
.LBB32_76:
	.cfi_def_cfa %rbp, 16
.Ltmp380:
	.loc	4 399 3                 # /home/chris/test-suite/MultiSource/Benchmarks/7zip/CPP/7zip/Archive/SwfHandler.cpp:399:3
	movq	-72(%rbp), %rdi
	callq	_Unwind_Resume
.Ltmp381:
.LBB32_77:
.Lfunc_end32:
	.size	_ZN8NArchive4NSwf8CHandler7ExtractEPKjjiP23IArchiveExtractCallback, .Lfunc_end32-_ZN8NArchive4NSwf8CHandler7ExtractEPKjjiP23IArchiveExtractCallback
	.cfi_endproc
	.section	.gcc_except_table,"a",@progbits
	.p2align	2
GCC_except_table32:
.Lexception7:
	.byte	255                     # @LPStart Encoding = omit
	.byte	3                       # @TType Encoding = udata4
	.uleb128 .Lttbase3-.Lttbaseref3
.Lttbaseref3:
	.byte	1                       # Call site Encoding = uleb128
	.uleb128 .Lcst_end7-.Lcst_begin7
.Lcst_begin7:
	.uleb128 .Ltmp266-.Lfunc_begin32 # >> Call Site 1 <<
	.uleb128 .Ltmp267-.Ltmp266      #   Call between .Ltmp266 and .Ltmp267
	.uleb128 .Ltmp277-.Lfunc_begin32 #     jumps to .Ltmp277
	.byte	3                       #   On action: 2
	.uleb128 .Ltmp313-.Lfunc_begin32 # >> Call Site 2 <<
	.uleb128 .Ltmp316-.Ltmp313      #   Call between .Ltmp313 and .Ltmp316
	.uleb128 .Ltmp317-.Lfunc_begin32 #     jumps to .Ltmp317
	.byte	3                       #   On action: 2
	.uleb128 .Ltmp268-.Lfunc_begin32 # >> Call Site 3 <<
	.uleb128 .Ltmp271-.Ltmp268      #   Call between .Ltmp268 and .Ltmp271
	.uleb128 .Ltmp277-.Lfunc_begin32 #     jumps to .Ltmp277
	.byte	3                       #   On action: 2
	.uleb128 .Ltmp272-.Lfunc_begin32 # >> Call Site 4 <<
	.uleb128 .Ltmp273-.Ltmp272      #   Call between .Ltmp272 and .Ltmp273
	.uleb128 .Ltmp274-.Lfunc_begin32 #     jumps to .Ltmp274
	.byte	3                       #   On action: 2
	.uleb128 .Ltmp275-.Lfunc_begin32 # >> Call Site 5 <<
	.uleb128 .Ltmp276-.Ltmp275      #   Call between .Ltmp275 and .Ltmp276
	.uleb128 .Ltmp277-.Lfunc_begin32 #     jumps to .Ltmp277
	.byte	3                       #   On action: 2
	.uleb128 .Ltmp278-.Lfunc_begin32 # >> Call Site 6 <<
	.uleb128 .Ltmp279-.Ltmp278      #   Call between .Ltmp278 and .Ltmp279
	.uleb128 .Ltmp280-.Lfunc_begin32 #     jumps to .Ltmp280
	.byte	3                       #   On action: 2
	.uleb128 .Ltmp281-.Lfunc_begin32 # >> Call Site 7 <<
	.uleb128 .Ltmp288-.Ltmp281      #   Call between .Ltmp281 and .Ltmp288
	.uleb128 .Ltmp289-.Lfunc_begin32 #     jumps to .Ltmp289
	.byte	3                       #   On action: 2
	.uleb128 .Ltmp290-.Lfunc_begin32 # >> Call Site 8 <<
	.uleb128 .Ltmp311-.Ltmp290      #   Call between .Ltmp290 and .Ltmp311
	.uleb128 .Ltmp312-.Lfunc_begin32 #     jumps to .Ltmp312
	.byte	3                       #   On action: 2
	.uleb128 .Ltmp311-.Lfunc_begin32 # >> Call Site 9 <<
	.uleb128 .Ltmp318-.Ltmp311      #   Call between .Ltmp311 and .Ltmp318
	.byte	0                       #     has no landing pad
	.byte	0                       #   On action: cleanup
	.uleb128 .Ltmp318-.Lfunc_begin32 # >> Call Site 10 <<
	.uleb128 .Ltmp319-.Ltmp318      #   Call between .Ltmp318 and .Ltmp319
	.uleb128 .Ltmp320-.Lfunc_begin32 #     jumps to .Ltmp320
	.byte	0                       #   On action: cleanup
	.uleb128 .Ltmp319-.Lfunc_begin32 # >> Call Site 11 <<
	.uleb128 .Lfunc_end32-.Ltmp319  #   Call between .Ltmp319 and .Lfunc_end32
	.byte	0                       #     has no landing pad
	.byte	0                       #   On action: cleanup
.Lcst_end7:
	.byte	1                       # >> Action Record 1 <<
                                        #   Catch TypeInfo 1
	.byte	0                       #   No further actions
	.byte	2                       # >> Action Record 2 <<
                                        #   Catch TypeInfo 2
	.byte	125                     #   Continue to action 1
	.p2align	2
                                        # >> Catch TypeInfos <<
	.long	_ZTIPKc                 # TypeInfo 2
	.long	0                       # TypeInfo 1
.Lttbase3:
	.p2align	2
                                        # -- End function
	.section	.text._ZN9CMyComPtrI21ICompressProgressInfoEC2EPS0_,"axG",@progbits,_ZN9CMyComPtrI21ICompressProgressInfoEC2EPS0_,comdat
	.weak	_ZN9CMyComPtrI21ICompressProgressInfoEC2EPS0_ # -- Begin function _ZN9CMyComPtrI21ICompressProgressInfoEC2EPS0_
	.p2align	4, 0x90
	.type	_ZN9CMyComPtrI21ICompressProgressInfoEC2EPS0_,@function
_ZN9CMyComPtrI21ICompressProgressInfoEC2EPS0_: # @_ZN9CMyComPtrI21ICompressProgressInfoEC2EPS0_
.Lfunc_begin33:
	.loc	18 19 0                 # /home/chris/test-suite/MultiSource/Benchmarks/7zip/CPP/Common/MyCom.h:19:0
	.cfi_startproc
# %bb.0:
	pushq	%rbp
	.cfi_def_cfa_offset 16
	.cfi_offset %rbp, -16
	movq	%rsp, %rbp
	.cfi_def_cfa_register %rbp
	subq	$16, %rsp
	movq	%rdi, -16(%rbp)
	movq	%rsi, -8(%rbp)
	movq	-16(%rbp), %rax
.Ltmp382:
	.loc	18 19 30 prologue_end   # /home/chris/test-suite/MultiSource/Benchmarks/7zip/CPP/Common/MyCom.h:19:30
	movq	-8(%rbp), %rcx
	.loc	18 19 28 is_stmt 0      # /home/chris/test-suite/MultiSource/Benchmarks/7zip/CPP/Common/MyCom.h:19:28
	movq	%rcx, (%rax)
	.loc	18 19 33                # /home/chris/test-suite/MultiSource/Benchmarks/7zip/CPP/Common/MyCom.h:19:33
	cmpq	$0, %rcx
.Ltmp383:
	.loc	18 19 24                # /home/chris/test-suite/MultiSource/Benchmarks/7zip/CPP/Common/MyCom.h:19:24
	je	.LBB33_2
# %bb.1:
.Ltmp384:
	.loc	18 19 42                # /home/chris/test-suite/MultiSource/Benchmarks/7zip/CPP/Common/MyCom.h:19:42
	movq	-8(%rbp), %rdi
	.loc	18 19 45                # /home/chris/test-suite/MultiSource/Benchmarks/7zip/CPP/Common/MyCom.h:19:45
	movq	(%rdi), %rax
	callq	*8(%rax)
.Ltmp385:
.LBB33_2:
	.loc	18 19 55                # /home/chris/test-suite/MultiSource/Benchmarks/7zip/CPP/Common/MyCom.h:19:55
	addq	$16, %rsp
	popq	%rbp
	.cfi_def_cfa %rsp, 8
	retq
.Ltmp386:
.Lfunc_end33:
	.size	_ZN9CMyComPtrI21ICompressProgressInfoEC2EPS0_, .Lfunc_end33-_ZN9CMyComPtrI21ICompressProgressInfoEC2EPS0_
	.cfi_endproc
                                        # -- End function
	.section	.text._ZN9CMyComPtrI20ISequentialOutStreamEC2Ev,"axG",@progbits,_ZN9CMyComPtrI20ISequentialOutStreamEC2Ev,comdat
	.weak	_ZN9CMyComPtrI20ISequentialOutStreamEC2Ev # -- Begin function _ZN9CMyComPtrI20ISequentialOutStreamEC2Ev
	.p2align	4, 0x90
	.type	_ZN9CMyComPtrI20ISequentialOutStreamEC2Ev,@function
_ZN9CMyComPtrI20ISequentialOutStreamEC2Ev: # @_ZN9CMyComPtrI20ISequentialOutStreamEC2Ev
.Lfunc_begin34:
	.loc	18 18 0 is_stmt 1       # /home/chris/test-suite/MultiSource/Benchmarks/7zip/CPP/Common/MyCom.h:18:0
	.cfi_startproc
# %bb.0:
	pushq	%rbp
	.cfi_def_cfa_offset 16
	.cfi_offset %rbp, -16
	movq	%rsp, %rbp
	.cfi_def_cfa_register %rbp
	movq	%rdi, -8(%rbp)
	movq	-8(%rbp), %rax
.Ltmp387:
	.loc	18 18 20 prologue_end   # /home/chris/test-suite/MultiSource/Benchmarks/7zip/CPP/Common/MyCom.h:18:20
	movq	$0, (%rax)
.Ltmp388:
	.loc	18 18 27 is_stmt 0      # /home/chris/test-suite/MultiSource/Benchmarks/7zip/CPP/Common/MyCom.h:18:27
	popq	%rbp
	.cfi_def_cfa %rsp, 8
	retq
.Ltmp389:
.Lfunc_end34:
	.size	_ZN9CMyComPtrI20ISequentialOutStreamEC2Ev, .Lfunc_end34-_ZN9CMyComPtrI20ISequentialOutStreamEC2Ev
	.cfi_endproc
                                        # -- End function
	.section	.text._ZN9CMyComPtrI20ISequentialOutStreamEadEv,"axG",@progbits,_ZN9CMyComPtrI20ISequentialOutStreamEadEv,comdat
	.weak	_ZN9CMyComPtrI20ISequentialOutStreamEadEv # -- Begin function _ZN9CMyComPtrI20ISequentialOutStreamEadEv
	.p2align	4, 0x90
	.type	_ZN9CMyComPtrI20ISequentialOutStreamEadEv,@function
_ZN9CMyComPtrI20ISequentialOutStreamEadEv: # @_ZN9CMyComPtrI20ISequentialOutStreamEadEv
.Lfunc_begin35:
	.loc	18 29 0 is_stmt 1       # /home/chris/test-suite/MultiSource/Benchmarks/7zip/CPP/Common/MyCom.h:29:0
	.cfi_startproc
# %bb.0:
	pushq	%rbp
	.cfi_def_cfa_offset 16
	.cfi_offset %rbp, -16
	movq	%rsp, %rbp
	.cfi_def_cfa_register %rbp
	movq	%rdi, -8(%rbp)
	movq	-8(%rbp), %rax
.Ltmp390:
	.loc	18 29 21 prologue_end   # /home/chris/test-suite/MultiSource/Benchmarks/7zip/CPP/Common/MyCom.h:29:21
	popq	%rbp
	.cfi_def_cfa %rsp, 8
	retq
.Ltmp391:
.Lfunc_end35:
	.size	_ZN9CMyComPtrI20ISequentialOutStreamEadEv, .Lfunc_end35-_ZN9CMyComPtrI20ISequentialOutStreamEadEv
	.cfi_endproc
                                        # -- End function
	.section	.text._ZNK9CMyComPtrI20ISequentialOutStreamEntEv,"axG",@progbits,_ZNK9CMyComPtrI20ISequentialOutStreamEntEv,comdat
	.weak	_ZNK9CMyComPtrI20ISequentialOutStreamEntEv # -- Begin function _ZNK9CMyComPtrI20ISequentialOutStreamEntEv
	.p2align	4, 0x90
	.type	_ZNK9CMyComPtrI20ISequentialOutStreamEntEv,@function
_ZNK9CMyComPtrI20ISequentialOutStreamEntEv: # @_ZNK9CMyComPtrI20ISequentialOutStreamEntEv
.Lfunc_begin36:
	.loc	18 41 0                 # /home/chris/test-suite/MultiSource/Benchmarks/7zip/CPP/Common/MyCom.h:41:0
	.cfi_startproc
# %bb.0:
	pushq	%rbp
	.cfi_def_cfa_offset 16
	.cfi_offset %rbp, -16
	movq	%rsp, %rbp
	.cfi_def_cfa_register %rbp
	movq	%rdi, -8(%rbp)
	movq	-8(%rbp), %rax
.Ltmp392:
	.loc	18 41 39 prologue_end   # /home/chris/test-suite/MultiSource/Benchmarks/7zip/CPP/Common/MyCom.h:41:39
	cmpq	$0, (%rax)
	sete	%al
	.loc	18 41 28 is_stmt 0      # /home/chris/test-suite/MultiSource/Benchmarks/7zip/CPP/Common/MyCom.h:41:28
	andb	$1, %al
	movzbl	%al, %eax
	popq	%rbp
	.cfi_def_cfa %rsp, 8
	retq
.Ltmp393:
.Lfunc_end36:
	.size	_ZNK9CMyComPtrI20ISequentialOutStreamEntEv, .Lfunc_end36-_ZNK9CMyComPtrI20ISequentialOutStreamEntEv
	.cfi_endproc
                                        # -- End function
	.section	.text._ZNK9CMyComPtrI20ISequentialOutStreamEcvPS0_Ev,"axG",@progbits,_ZNK9CMyComPtrI20ISequentialOutStreamEcvPS0_Ev,comdat
	.weak	_ZNK9CMyComPtrI20ISequentialOutStreamEcvPS0_Ev # -- Begin function _ZNK9CMyComPtrI20ISequentialOutStreamEcvPS0_Ev
	.p2align	4, 0x90
	.type	_ZNK9CMyComPtrI20ISequentialOutStreamEcvPS0_Ev,@function
_ZNK9CMyComPtrI20ISequentialOutStreamEcvPS0_Ev: # @_ZNK9CMyComPtrI20ISequentialOutStreamEcvPS0_Ev
.Lfunc_begin37:
	.loc	18 27 0 is_stmt 1       # /home/chris/test-suite/MultiSource/Benchmarks/7zip/CPP/Common/MyCom.h:27:0
	.cfi_startproc
# %bb.0:
	pushq	%rbp
	.cfi_def_cfa_offset 16
	.cfi_offset %rbp, -16
	movq	%rsp, %rbp
	.cfi_def_cfa_register %rbp
	movq	%rdi, -8(%rbp)
	movq	-8(%rbp), %rax
.Ltmp394:
	.loc	18 27 37 prologue_end   # /home/chris/test-suite/MultiSource/Benchmarks/7zip/CPP/Common/MyCom.h:27:37
	movq	(%rax), %rax
	.loc	18 27 26 is_stmt 0      # /home/chris/test-suite/MultiSource/Benchmarks/7zip/CPP/Common/MyCom.h:27:26
	popq	%rbp
	.cfi_def_cfa %rsp, 8
	retq
.Ltmp395:
.Lfunc_end37:
	.size	_ZNK9CMyComPtrI20ISequentialOutStreamEcvPS0_Ev, .Lfunc_end37-_ZNK9CMyComPtrI20ISequentialOutStreamEcvPS0_Ev
	.cfi_endproc
                                        # -- End function
	.section	.text._ZNK7CBufferIhEcvPKhEv,"axG",@progbits,_ZNK7CBufferIhEcvPKhEv,comdat
	.weak	_ZNK7CBufferIhEcvPKhEv  # -- Begin function _ZNK7CBufferIhEcvPKhEv
	.p2align	4, 0x90
	.type	_ZNK7CBufferIhEcvPKhEv,@function
_ZNK7CBufferIhEcvPKhEv:                 # @_ZNK7CBufferIhEcvPKhEv
.Lfunc_begin38:
	.loc	9 25 0 is_stmt 1        # /home/chris/test-suite/MultiSource/Benchmarks/7zip/CPP/Common/Buffer.h:25:0
	.cfi_startproc
# %bb.0:
	pushq	%rbp
	.cfi_def_cfa_offset 16
	.cfi_offset %rbp, -16
	movq	%rsp, %rbp
	.cfi_def_cfa_register %rbp
	movq	%rdi, -8(%rbp)
	movq	-8(%rbp), %rax
.Ltmp396:
	.loc	9 25 39 prologue_end    # /home/chris/test-suite/MultiSource/Benchmarks/7zip/CPP/Common/Buffer.h:25:39
	movq	16(%rax), %rax
	.loc	9 25 32 is_stmt 0       # /home/chris/test-suite/MultiSource/Benchmarks/7zip/CPP/Common/Buffer.h:25:32
	popq	%rbp
	.cfi_def_cfa %rsp, 8
	retq
.Ltmp397:
.Lfunc_end38:
	.size	_ZNK7CBufferIhEcvPKhEv, .Lfunc_end38-_ZNK7CBufferIhEcvPKhEv
	.cfi_endproc
                                        # -- End function
	.section	.text._ZN9CMyComPtrI20ISequentialOutStreamE7ReleaseEv,"axG",@progbits,_ZN9CMyComPtrI20ISequentialOutStreamE7ReleaseEv,comdat
	.weak	_ZN9CMyComPtrI20ISequentialOutStreamE7ReleaseEv # -- Begin function _ZN9CMyComPtrI20ISequentialOutStreamE7ReleaseEv
	.p2align	4, 0x90
	.type	_ZN9CMyComPtrI20ISequentialOutStreamE7ReleaseEv,@function
_ZN9CMyComPtrI20ISequentialOutStreamE7ReleaseEv: # @_ZN9CMyComPtrI20ISequentialOutStreamE7ReleaseEv
.Lfunc_begin39:
	.loc	18 26 0 is_stmt 1       # /home/chris/test-suite/MultiSource/Benchmarks/7zip/CPP/Common/MyCom.h:26:0
	.cfi_startproc
# %bb.0:
	pushq	%rbp
	.cfi_def_cfa_offset 16
	.cfi_offset %rbp, -16
	movq	%rsp, %rbp
	.cfi_def_cfa_register %rbp
	pushq	%rbx
	pushq	%rax
	.cfi_offset %rbx, -24
	movq	%rdi, -16(%rbp)
	movq	-16(%rbp), %rbx
.Ltmp398:
	.loc	18 26 24 prologue_end   # /home/chris/test-suite/MultiSource/Benchmarks/7zip/CPP/Common/MyCom.h:26:24
	cmpq	$0, (%rbx)
.Ltmp399:
	.loc	18 26 24 is_stmt 0      # /home/chris/test-suite/MultiSource/Benchmarks/7zip/CPP/Common/MyCom.h:26:24
	je	.LBB39_2
# %bb.1:
.Ltmp400:
	.loc	18 26 30                # /home/chris/test-suite/MultiSource/Benchmarks/7zip/CPP/Common/MyCom.h:26:30
	movq	(%rbx), %rdi
	.loc	18 26 34                # /home/chris/test-suite/MultiSource/Benchmarks/7zip/CPP/Common/MyCom.h:26:34
	movq	(%rdi), %rax
	callq	*16(%rax)
	.loc	18 26 48                # /home/chris/test-suite/MultiSource/Benchmarks/7zip/CPP/Common/MyCom.h:26:48
	movq	$0, (%rbx)
.Ltmp401:
.LBB39_2:
	.loc	18 26 58                # /home/chris/test-suite/MultiSource/Benchmarks/7zip/CPP/Common/MyCom.h:26:58
	addq	$8, %rsp
	popq	%rbx
	popq	%rbp
	.cfi_def_cfa %rsp, 8
	retq
.Ltmp402:
.Lfunc_end39:
	.size	_ZN9CMyComPtrI20ISequentialOutStreamE7ReleaseEv, .Lfunc_end39-_ZN9CMyComPtrI20ISequentialOutStreamE7ReleaseEv
	.cfi_endproc
                                        # -- End function
	.section	.text._ZN9CMyComPtrI20ISequentialOutStreamED2Ev,"axG",@progbits,_ZN9CMyComPtrI20ISequentialOutStreamED2Ev,comdat
	.weak	_ZN9CMyComPtrI20ISequentialOutStreamED2Ev # -- Begin function _ZN9CMyComPtrI20ISequentialOutStreamED2Ev
	.p2align	4, 0x90
	.type	_ZN9CMyComPtrI20ISequentialOutStreamED2Ev,@function
_ZN9CMyComPtrI20ISequentialOutStreamED2Ev: # @_ZN9CMyComPtrI20ISequentialOutStreamED2Ev
.Lfunc_begin40:
	.loc	18 25 0 is_stmt 1       # /home/chris/test-suite/MultiSource/Benchmarks/7zip/CPP/Common/MyCom.h:25:0
	.cfi_startproc
	.cfi_personality 3, __gxx_personality_v0
	.cfi_lsda 3, .Lexception8
# %bb.0:
	pushq	%rbp
	.cfi_def_cfa_offset 16
	.cfi_offset %rbp, -16
	movq	%rsp, %rbp
	.cfi_def_cfa_register %rbp
	subq	$16, %rsp
	movq	%rdi, -8(%rbp)
	movq	-8(%rbp), %rax
.Ltmp406:
	.loc	18 25 22 prologue_end   # /home/chris/test-suite/MultiSource/Benchmarks/7zip/CPP/Common/MyCom.h:25:22
	cmpq	$0, (%rax)
.Ltmp407:
	.loc	18 25 22 is_stmt 0      # /home/chris/test-suite/MultiSource/Benchmarks/7zip/CPP/Common/MyCom.h:25:22
	je	.LBB40_3
# %bb.1:
.Ltmp408:
	.loc	18 25 26                # /home/chris/test-suite/MultiSource/Benchmarks/7zip/CPP/Common/MyCom.h:25:26
	movq	(%rax), %rdi
	.loc	18 25 30                # /home/chris/test-suite/MultiSource/Benchmarks/7zip/CPP/Common/MyCom.h:25:30
	movq	(%rdi), %rax
	movq	16(%rax), %rax
.Ltmp403:
	callq	*%rax
.Ltmp404:
	jmp	.LBB40_2
.LBB40_2:
	.loc	18 25 26                # /home/chris/test-suite/MultiSource/Benchmarks/7zip/CPP/Common/MyCom.h:25:26
	jmp	.LBB40_3
.Ltmp409:
.LBB40_3:
	.loc	18 25 41                # /home/chris/test-suite/MultiSource/Benchmarks/7zip/CPP/Common/MyCom.h:25:41
	addq	$16, %rsp
	popq	%rbp
	.cfi_def_cfa %rsp, 8
	retq
.LBB40_4:
	.cfi_def_cfa %rbp, 16
.Ltmp405:
                                        # kill: killed $rdx
.Ltmp410:
	.loc	18 25 30                # /home/chris/test-suite/MultiSource/Benchmarks/7zip/CPP/Common/MyCom.h:25:30
	movq	%rax, %rdi
	callq	__clang_call_terminate
.Ltmp411:
.Lfunc_end40:
	.size	_ZN9CMyComPtrI20ISequentialOutStreamED2Ev, .Lfunc_end40-_ZN9CMyComPtrI20ISequentialOutStreamED2Ev
	.cfi_endproc
	.section	.gcc_except_table,"a",@progbits
	.p2align	2
GCC_except_table40:
.Lexception8:
	.byte	255                     # @LPStart Encoding = omit
	.byte	3                       # @TType Encoding = udata4
	.uleb128 .Lttbase4-.Lttbaseref4
.Lttbaseref4:
	.byte	1                       # Call site Encoding = uleb128
	.uleb128 .Lcst_end8-.Lcst_begin8
.Lcst_begin8:
	.uleb128 .Ltmp403-.Lfunc_begin40 # >> Call Site 1 <<
	.uleb128 .Ltmp404-.Ltmp403      #   Call between .Ltmp403 and .Ltmp404
	.uleb128 .Ltmp405-.Lfunc_begin40 #     jumps to .Ltmp405
	.byte	1                       #   On action: 1
.Lcst_end8:
	.byte	1                       # >> Action Record 1 <<
                                        #   Catch TypeInfo 1
	.byte	0                       #   No further actions
	.p2align	2
                                        # >> Catch TypeInfos <<
	.long	0                       # TypeInfo 1
.Lttbase4:
	.p2align	2
                                        # -- End function
	.section	.text._ZN9CMyComPtrI21ICompressProgressInfoED2Ev,"axG",@progbits,_ZN9CMyComPtrI21ICompressProgressInfoED2Ev,comdat
	.weak	_ZN9CMyComPtrI21ICompressProgressInfoED2Ev # -- Begin function _ZN9CMyComPtrI21ICompressProgressInfoED2Ev
	.p2align	4, 0x90
	.type	_ZN9CMyComPtrI21ICompressProgressInfoED2Ev,@function
_ZN9CMyComPtrI21ICompressProgressInfoED2Ev: # @_ZN9CMyComPtrI21ICompressProgressInfoED2Ev
.Lfunc_begin41:
	.loc	18 25 0 is_stmt 1       # /home/chris/test-suite/MultiSource/Benchmarks/7zip/CPP/Common/MyCom.h:25:0
	.cfi_startproc
	.cfi_personality 3, __gxx_personality_v0
	.cfi_lsda 3, .Lexception9
# %bb.0:
	pushq	%rbp
	.cfi_def_cfa_offset 16
	.cfi_offset %rbp, -16
	movq	%rsp, %rbp
	.cfi_def_cfa_register %rbp
	subq	$16, %rsp
	movq	%rdi, -8(%rbp)
	movq	-8(%rbp), %rax
.Ltmp415:
	.loc	18 25 22 prologue_end   # /home/chris/test-suite/MultiSource/Benchmarks/7zip/CPP/Common/MyCom.h:25:22
	cmpq	$0, (%rax)
.Ltmp416:
	.loc	18 25 22 is_stmt 0      # /home/chris/test-suite/MultiSource/Benchmarks/7zip/CPP/Common/MyCom.h:25:22
	je	.LBB41_3
# %bb.1:
.Ltmp417:
	.loc	18 25 26                # /home/chris/test-suite/MultiSource/Benchmarks/7zip/CPP/Common/MyCom.h:25:26
	movq	(%rax), %rdi
	.loc	18 25 30                # /home/chris/test-suite/MultiSource/Benchmarks/7zip/CPP/Common/MyCom.h:25:30
	movq	(%rdi), %rax
	movq	16(%rax), %rax
.Ltmp412:
	callq	*%rax
.Ltmp413:
	jmp	.LBB41_2
.LBB41_2:
	.loc	18 25 26                # /home/chris/test-suite/MultiSource/Benchmarks/7zip/CPP/Common/MyCom.h:25:26
	jmp	.LBB41_3
.Ltmp418:
.LBB41_3:
	.loc	18 25 41                # /home/chris/test-suite/MultiSource/Benchmarks/7zip/CPP/Common/MyCom.h:25:41
	addq	$16, %rsp
	popq	%rbp
	.cfi_def_cfa %rsp, 8
	retq
.LBB41_4:
	.cfi_def_cfa %rbp, 16
.Ltmp414:
                                        # kill: killed $rdx
.Ltmp419:
	.loc	18 25 30                # /home/chris/test-suite/MultiSource/Benchmarks/7zip/CPP/Common/MyCom.h:25:30
	movq	%rax, %rdi
	callq	__clang_call_terminate
.Ltmp420:
.Lfunc_end41:
	.size	_ZN9CMyComPtrI21ICompressProgressInfoED2Ev, .Lfunc_end41-_ZN9CMyComPtrI21ICompressProgressInfoED2Ev
	.cfi_endproc
	.section	.gcc_except_table,"a",@progbits
	.p2align	2
GCC_except_table41:
.Lexception9:
	.byte	255                     # @LPStart Encoding = omit
	.byte	3                       # @TType Encoding = udata4
	.uleb128 .Lttbase5-.Lttbaseref5
.Lttbaseref5:
	.byte	1                       # Call site Encoding = uleb128
	.uleb128 .Lcst_end9-.Lcst_begin9
.Lcst_begin9:
	.uleb128 .Ltmp412-.Lfunc_begin41 # >> Call Site 1 <<
	.uleb128 .Ltmp413-.Ltmp412      #   Call between .Ltmp412 and .Ltmp413
	.uleb128 .Ltmp414-.Lfunc_begin41 #     jumps to .Ltmp414
	.byte	1                       #   On action: 1
.Lcst_end9:
	.byte	1                       # >> Action Record 1 <<
                                        #   Catch TypeInfo 1
	.byte	0                       #   No further actions
	.p2align	2
                                        # >> Catch TypeInfos <<
	.long	0                       # TypeInfo 1
.Lttbase5:
	.p2align	2
                                        # -- End function
	.section	.text.startup,"ax",@progbits
	.p2align	4, 0x90         # -- Begin function __cxx_global_var_init
	.type	__cxx_global_var_init,@function
__cxx_global_var_init:                  # @__cxx_global_var_init
.Lfunc_begin42:
	.loc	4 407 0 is_stmt 1       # /home/chris/test-suite/MultiSource/Benchmarks/7zip/CPP/7zip/Archive/SwfHandler.cpp:407:0
	.cfi_startproc
# %bb.0:
	pushq	%rbp
	.cfi_def_cfa_offset 16
	.cfi_offset %rbp, -16
	movq	%rsp, %rbp
	.cfi_def_cfa_register %rbp
.Ltmp421:
	.loc	4 407 1 prologue_end    # /home/chris/test-suite/MultiSource/Benchmarks/7zip/CPP/7zip/Archive/SwfHandler.cpp:407:1
	movl	$_ZN8NArchive4NSwfL13g_RegisterArcE, %edi
	callq	_ZN8NArchive4NSwf12CRegisterSwfC2Ev
	popq	%rbp
	.cfi_def_cfa %rsp, 8
	retq
.Ltmp422:
.Lfunc_end42:
	.size	__cxx_global_var_init, .Lfunc_end42-__cxx_global_var_init
	.cfi_endproc
                                        # -- End function
	.section	.text._ZN8NArchive4NSwf12CRegisterSwfC2Ev,"axG",@progbits,_ZN8NArchive4NSwf12CRegisterSwfC2Ev,comdat
	.weak	_ZN8NArchive4NSwf12CRegisterSwfC2Ev # -- Begin function _ZN8NArchive4NSwf12CRegisterSwfC2Ev
	.p2align	4, 0x90
	.type	_ZN8NArchive4NSwf12CRegisterSwfC2Ev,@function
_ZN8NArchive4NSwf12CRegisterSwfC2Ev:    # @_ZN8NArchive4NSwf12CRegisterSwfC2Ev
.Lfunc_begin43:
	.loc	4 407 0                 # /home/chris/test-suite/MultiSource/Benchmarks/7zip/CPP/7zip/Archive/SwfHandler.cpp:407:0
	.cfi_startproc
# %bb.0:
	pushq	%rbp
	.cfi_def_cfa_offset 16
	.cfi_offset %rbp, -16
	movq	%rsp, %rbp
	.cfi_def_cfa_register %rbp
	subq	$16, %rsp
	movabsq	$_ZN8NArchive4NSwfL9g_ArcInfoE, %rax
	movq	%rdi, -8(%rbp)
.Ltmp423:
	.loc	4 407 1 prologue_end    # /home/chris/test-suite/MultiSource/Benchmarks/7zip/CPP/7zip/Archive/SwfHandler.cpp:407:1
	movq	%rax, %rdi
	callq	_Z11RegisterArcPK8CArcInfo
.Ltmp424:
	.loc	4 407 1 is_stmt 0       # /home/chris/test-suite/MultiSource/Benchmarks/7zip/CPP/7zip/Archive/SwfHandler.cpp:407:1
	addq	$16, %rsp
	popq	%rbp
	.cfi_def_cfa %rsp, 8
	retq
.Ltmp425:
.Lfunc_end43:
	.size	_ZN8NArchive4NSwf12CRegisterSwfC2Ev, .Lfunc_end43-_ZN8NArchive4NSwf12CRegisterSwfC2Ev
	.cfi_endproc
                                        # -- End function
	.section	.text._ZN8NArchive4NSwf8CHandler14QueryInterfaceERK4GUIDPPv,"axG",@progbits,_ZN8NArchive4NSwf8CHandler14QueryInterfaceERK4GUIDPPv,comdat
	.weak	_ZN8NArchive4NSwf8CHandler14QueryInterfaceERK4GUIDPPv # -- Begin function _ZN8NArchive4NSwf8CHandler14QueryInterfaceERK4GUIDPPv
	.p2align	4, 0x90
	.type	_ZN8NArchive4NSwf8CHandler14QueryInterfaceERK4GUIDPPv,@function
_ZN8NArchive4NSwf8CHandler14QueryInterfaceERK4GUIDPPv: # @_ZN8NArchive4NSwf8CHandler14QueryInterfaceERK4GUIDPPv
.Lfunc_begin44:
	.loc	4 53 0 is_stmt 1        # /home/chris/test-suite/MultiSource/Benchmarks/7zip/CPP/7zip/Archive/SwfHandler.cpp:53:0
	.cfi_startproc
# %bb.0:
	pushq	%rbp
	.cfi_def_cfa_offset 16
	.cfi_offset %rbp, -16
	movq	%rsp, %rbp
	.cfi_def_cfa_register %rbp
	pushq	%rbx
	subq	$40, %rsp
	.cfi_offset %rbx, -24
	movq	%rdi, -40(%rbp)
	movq	%rsi, -32(%rbp)
	movq	%rdx, -24(%rbp)
	movq	-40(%rbp), %rbx
.Ltmp426:
	.loc	4 53 3 prologue_end     # /home/chris/test-suite/MultiSource/Benchmarks/7zip/CPP/7zip/Archive/SwfHandler.cpp:53:3
	movq	-32(%rbp), %rdi
	movabsq	$IID_IUnknown, %rsi
	callq	_ZeqRK4GUIDS1_
	cmpl	$0, %eax
.Ltmp427:
	.loc	4 53 3 is_stmt 0        # /home/chris/test-suite/MultiSource/Benchmarks/7zip/CPP/7zip/Archive/SwfHandler.cpp:53:3
	je	.LBB44_2
# %bb.1:
.Ltmp428:
	.loc	4 53 3                  # /home/chris/test-suite/MultiSource/Benchmarks/7zip/CPP/7zip/Archive/SwfHandler.cpp:53:3
	movq	-24(%rbp), %rax
	movq	%rbx, (%rax)
	movq	(%rbx), %rax
	movq	%rbx, %rdi
	callq	*8(%rax)
	movl	$0, -12(%rbp)
	jmp	.LBB44_7
.Ltmp429:
.LBB44_2:
	.loc	4 53 3                  # /home/chris/test-suite/MultiSource/Benchmarks/7zip/CPP/7zip/Archive/SwfHandler.cpp:53:3
	movq	-32(%rbp), %rdi
	movabsq	$IID_IInArchive, %rsi
	callq	_ZeqRK4GUIDS1_
	cmpl	$0, %eax
.Ltmp430:
	.loc	4 53 3                  # /home/chris/test-suite/MultiSource/Benchmarks/7zip/CPP/7zip/Archive/SwfHandler.cpp:53:3
	je	.LBB44_4
# %bb.3:
.Ltmp431:
	.loc	4 53 3                  # /home/chris/test-suite/MultiSource/Benchmarks/7zip/CPP/7zip/Archive/SwfHandler.cpp:53:3
	movq	-24(%rbp), %rax
	movq	%rbx, (%rax)
	movq	(%rbx), %rax
	movq	%rbx, %rdi
	callq	*8(%rax)
	movl	$0, -12(%rbp)
	jmp	.LBB44_7
.Ltmp432:
.LBB44_4:
	.loc	4 53 3                  # /home/chris/test-suite/MultiSource/Benchmarks/7zip/CPP/7zip/Archive/SwfHandler.cpp:53:3
	movq	-32(%rbp), %rdi
	movabsq	$IID_IArchiveOpenSeq, %rsi
	callq	_ZeqRK4GUIDS1_
	cmpl	$0, %eax
.Ltmp433:
	.loc	4 53 3                  # /home/chris/test-suite/MultiSource/Benchmarks/7zip/CPP/7zip/Archive/SwfHandler.cpp:53:3
	je	.LBB44_6
# %bb.5:
.Ltmp434:
	.loc	4 53 3                  # /home/chris/test-suite/MultiSource/Benchmarks/7zip/CPP/7zip/Archive/SwfHandler.cpp:53:3
	movq	%rbx, %rax
	addq	$8, %rax
	movq	-24(%rbp), %rcx
	movq	%rax, (%rcx)
	movq	(%rbx), %rax
	movq	%rbx, %rdi
	callq	*8(%rax)
	movl	$0, -12(%rbp)
	jmp	.LBB44_7
.Ltmp435:
.LBB44_6:
	.loc	4 53 3                  # /home/chris/test-suite/MultiSource/Benchmarks/7zip/CPP/7zip/Archive/SwfHandler.cpp:53:3
	movl	$-2147467262, -12(%rbp) # imm = 0x80004002
.LBB44_7:
	movl	-12(%rbp), %eax
	addq	$40, %rsp
	popq	%rbx
	popq	%rbp
	.cfi_def_cfa %rsp, 8
	retq
.Ltmp436:
.Lfunc_end44:
	.size	_ZN8NArchive4NSwf8CHandler14QueryInterfaceERK4GUIDPPv, .Lfunc_end44-_ZN8NArchive4NSwf8CHandler14QueryInterfaceERK4GUIDPPv
	.cfi_endproc
                                        # -- End function
	.section	.text._ZN8NArchive4NSwf8CHandler6AddRefEv,"axG",@progbits,_ZN8NArchive4NSwf8CHandler6AddRefEv,comdat
	.weak	_ZN8NArchive4NSwf8CHandler6AddRefEv # -- Begin function _ZN8NArchive4NSwf8CHandler6AddRefEv
	.p2align	4, 0x90
	.type	_ZN8NArchive4NSwf8CHandler6AddRefEv,@function
_ZN8NArchive4NSwf8CHandler6AddRefEv:    # @_ZN8NArchive4NSwf8CHandler6AddRefEv
.Lfunc_begin45:
	.loc	4 53 0 is_stmt 1        # /home/chris/test-suite/MultiSource/Benchmarks/7zip/CPP/7zip/Archive/SwfHandler.cpp:53:0
	.cfi_startproc
# %bb.0:
	pushq	%rbp
	.cfi_def_cfa_offset 16
	.cfi_offset %rbp, -16
	movq	%rsp, %rbp
	.cfi_def_cfa_register %rbp
	movq	%rdi, -8(%rbp)
	movq	-8(%rbp), %rcx
.Ltmp437:
	.loc	4 53 3 prologue_end     # /home/chris/test-suite/MultiSource/Benchmarks/7zip/CPP/7zip/Archive/SwfHandler.cpp:53:3
	movl	16(%rcx), %eax
	addl	$1, %eax
	movl	%eax, 16(%rcx)
	popq	%rbp
	.cfi_def_cfa %rsp, 8
	retq
.Ltmp438:
.Lfunc_end45:
	.size	_ZN8NArchive4NSwf8CHandler6AddRefEv, .Lfunc_end45-_ZN8NArchive4NSwf8CHandler6AddRefEv
	.cfi_endproc
                                        # -- End function
	.section	.text._ZN8NArchive4NSwf8CHandler7ReleaseEv,"axG",@progbits,_ZN8NArchive4NSwf8CHandler7ReleaseEv,comdat
	.weak	_ZN8NArchive4NSwf8CHandler7ReleaseEv # -- Begin function _ZN8NArchive4NSwf8CHandler7ReleaseEv
	.p2align	4, 0x90
	.type	_ZN8NArchive4NSwf8CHandler7ReleaseEv,@function
_ZN8NArchive4NSwf8CHandler7ReleaseEv:   # @_ZN8NArchive4NSwf8CHandler7ReleaseEv
.Lfunc_begin46:
	.loc	4 53 0                  # /home/chris/test-suite/MultiSource/Benchmarks/7zip/CPP/7zip/Archive/SwfHandler.cpp:53:0
	.cfi_startproc
# %bb.0:
	pushq	%rbp
	.cfi_def_cfa_offset 16
	.cfi_offset %rbp, -16
	movq	%rsp, %rbp
	.cfi_def_cfa_register %rbp
	subq	$16, %rsp
	movq	%rdi, -16(%rbp)
	movq	-16(%rbp), %rdi
.Ltmp439:
	.loc	4 53 3 prologue_end     # /home/chris/test-suite/MultiSource/Benchmarks/7zip/CPP/7zip/Archive/SwfHandler.cpp:53:3
	movl	16(%rdi), %eax
	addl	$-1, %eax
	movl	%eax, 16(%rdi)
	cmpl	$0, %eax
.Ltmp440:
	.loc	4 53 3 is_stmt 0        # /home/chris/test-suite/MultiSource/Benchmarks/7zip/CPP/7zip/Archive/SwfHandler.cpp:53:3
	je	.LBB46_2
# %bb.1:
.Ltmp441:
	.loc	4 53 3                  # /home/chris/test-suite/MultiSource/Benchmarks/7zip/CPP/7zip/Archive/SwfHandler.cpp:53:3
	movl	16(%rdi), %eax
	movl	%eax, -4(%rbp)
	jmp	.LBB46_5
.Ltmp442:
.LBB46_2:
	.loc	4 53 3                  # /home/chris/test-suite/MultiSource/Benchmarks/7zip/CPP/7zip/Archive/SwfHandler.cpp:53:3
	cmpq	$0, %rdi
	je	.LBB46_4
# %bb.3:
	movq	(%rdi), %rax
	callq	*32(%rax)
.LBB46_4:
	movl	$0, -4(%rbp)
.LBB46_5:
	movl	-4(%rbp), %eax
	addq	$16, %rsp
	popq	%rbp
	.cfi_def_cfa %rsp, 8
	retq
.Ltmp443:
.Lfunc_end46:
	.size	_ZN8NArchive4NSwf8CHandler7ReleaseEv, .Lfunc_end46-_ZN8NArchive4NSwf8CHandler7ReleaseEv
	.cfi_endproc
                                        # -- End function
	.section	.text._ZN8NArchive4NSwf8CHandlerD2Ev,"axG",@progbits,_ZN8NArchive4NSwf8CHandlerD2Ev,comdat
	.weak	_ZN8NArchive4NSwf8CHandlerD2Ev # -- Begin function _ZN8NArchive4NSwf8CHandlerD2Ev
	.p2align	4, 0x90
	.type	_ZN8NArchive4NSwf8CHandlerD2Ev,@function
_ZN8NArchive4NSwf8CHandlerD2Ev:         # @_ZN8NArchive4NSwf8CHandlerD2Ev
.Lfunc_begin47:
	.loc	4 42 0 is_stmt 1        # /home/chris/test-suite/MultiSource/Benchmarks/7zip/CPP/7zip/Archive/SwfHandler.cpp:42:0
	.cfi_startproc
# %bb.0:
	pushq	%rbp
	.cfi_def_cfa_offset 16
	.cfi_offset %rbp, -16
	movq	%rsp, %rbp
	.cfi_def_cfa_register %rbp
	pushq	%rbx
	pushq	%rax
	.cfi_offset %rbx, -24
	movabsq	$_ZTVN8NArchive4NSwf8CHandlerE, %rax
	movq	%rax, %rcx
	addq	$160, %rcx
	addq	$16, %rax
	movq	%rdi, -16(%rbp)
	movq	-16(%rbp), %rbx
.Ltmp444:
	.loc	4 42 7 prologue_end     # /home/chris/test-suite/MultiSource/Benchmarks/7zip/CPP/7zip/Archive/SwfHandler.cpp:42:7
	movq	%rax, (%rbx)
	movq	%rcx, 8(%rbx)
.Ltmp445:
	.loc	4 42 7 is_stmt 0        # /home/chris/test-suite/MultiSource/Benchmarks/7zip/CPP/7zip/Archive/SwfHandler.cpp:42:7
	movq	%rbx, %rdi
	addq	$24, %rdi
	callq	_ZN13CObjectVectorIN8NArchive4NSwf4CTagEED2Ev
	movq	%rbx, %rdi
	addq	$8, %rdi
	callq	_ZN15IArchiveOpenSeqD2Ev
	movq	%rbx, %rdi
	callq	_ZN10IInArchiveD2Ev
.Ltmp446:
	.loc	4 42 7                  # /home/chris/test-suite/MultiSource/Benchmarks/7zip/CPP/7zip/Archive/SwfHandler.cpp:42:7
	addq	$8, %rsp
	popq	%rbx
	popq	%rbp
	.cfi_def_cfa %rsp, 8
	retq
.Ltmp447:
.Lfunc_end47:
	.size	_ZN8NArchive4NSwf8CHandlerD2Ev, .Lfunc_end47-_ZN8NArchive4NSwf8CHandlerD2Ev
	.cfi_endproc
                                        # -- End function
	.section	.text._ZN8NArchive4NSwf8CHandlerD0Ev,"axG",@progbits,_ZN8NArchive4NSwf8CHandlerD0Ev,comdat
	.weak	_ZN8NArchive4NSwf8CHandlerD0Ev # -- Begin function _ZN8NArchive4NSwf8CHandlerD0Ev
	.p2align	4, 0x90
	.type	_ZN8NArchive4NSwf8CHandlerD0Ev,@function
_ZN8NArchive4NSwf8CHandlerD0Ev:         # @_ZN8NArchive4NSwf8CHandlerD0Ev
.Lfunc_begin48:
	.loc	4 42 0 is_stmt 1        # /home/chris/test-suite/MultiSource/Benchmarks/7zip/CPP/7zip/Archive/SwfHandler.cpp:42:0
	.cfi_startproc
# %bb.0:
	pushq	%rbp
	.cfi_def_cfa_offset 16
	.cfi_offset %rbp, -16
	movq	%rsp, %rbp
	.cfi_def_cfa_register %rbp
	pushq	%rbx
	pushq	%rax
	.cfi_offset %rbx, -24
	movq	%rdi, -16(%rbp)
	movq	-16(%rbp), %rbx
.Ltmp448:
	.loc	4 42 7 prologue_end     # /home/chris/test-suite/MultiSource/Benchmarks/7zip/CPP/7zip/Archive/SwfHandler.cpp:42:7
	movq	%rbx, %rdi
	callq	_ZN8NArchive4NSwf8CHandlerD2Ev
	movq	%rbx, %rdi
	callq	_ZdlPv
	addq	$8, %rsp
	popq	%rbx
	popq	%rbp
	.cfi_def_cfa %rsp, 8
	retq
.Ltmp449:
.Lfunc_end48:
	.size	_ZN8NArchive4NSwf8CHandlerD0Ev, .Lfunc_end48-_ZN8NArchive4NSwf8CHandlerD0Ev
	.cfi_endproc
                                        # -- End function
	.section	.text._ZThn8_N8NArchive4NSwf8CHandler14QueryInterfaceERK4GUIDPPv,"axG",@progbits,_ZThn8_N8NArchive4NSwf8CHandler14QueryInterfaceERK4GUIDPPv,comdat
	.weak	_ZThn8_N8NArchive4NSwf8CHandler14QueryInterfaceERK4GUIDPPv # -- Begin function _ZThn8_N8NArchive4NSwf8CHandler14QueryInterfaceERK4GUIDPPv
	.p2align	4, 0x90
	.type	_ZThn8_N8NArchive4NSwf8CHandler14QueryInterfaceERK4GUIDPPv,@function
_ZThn8_N8NArchive4NSwf8CHandler14QueryInterfaceERK4GUIDPPv: # @_ZThn8_N8NArchive4NSwf8CHandler14QueryInterfaceERK4GUIDPPv
.Lfunc_begin49:
	.loc	4 0 0                   # /home/chris/test-suite/MultiSource/Benchmarks/7zip/CPP/7zip/Archive/SwfHandler.cpp:0:0
	.cfi_startproc
# %bb.0:
	pushq	%rbp
	.cfi_def_cfa_offset 16
	.cfi_offset %rbp, -16
	movq	%rsp, %rbp
	.cfi_def_cfa_register %rbp
	movq	%rdi, -24(%rbp)
	movq	%rsi, -16(%rbp)
	movq	%rdx, -8(%rbp)
.Ltmp450:
	movq	-24(%rbp), %rdi
	addq	$-8, %rdi
	movq	-16(%rbp), %rsi
	movq	-8(%rbp), %rdx
	popq	%rbp
	.cfi_def_cfa %rsp, 8
	jmp	_ZN8NArchive4NSwf8CHandler14QueryInterfaceERK4GUIDPPv # TAILCALL
.Ltmp451:
.Lfunc_end49:
	.size	_ZThn8_N8NArchive4NSwf8CHandler14QueryInterfaceERK4GUIDPPv, .Lfunc_end49-_ZThn8_N8NArchive4NSwf8CHandler14QueryInterfaceERK4GUIDPPv
	.cfi_endproc
                                        # -- End function
	.section	.text._ZThn8_N8NArchive4NSwf8CHandler6AddRefEv,"axG",@progbits,_ZThn8_N8NArchive4NSwf8CHandler6AddRefEv,comdat
	.weak	_ZThn8_N8NArchive4NSwf8CHandler6AddRefEv # -- Begin function _ZThn8_N8NArchive4NSwf8CHandler6AddRefEv
	.p2align	4, 0x90
	.type	_ZThn8_N8NArchive4NSwf8CHandler6AddRefEv,@function
_ZThn8_N8NArchive4NSwf8CHandler6AddRefEv: # @_ZThn8_N8NArchive4NSwf8CHandler6AddRefEv
.Lfunc_begin50:
	.loc	4 0 0                   # /home/chris/test-suite/MultiSource/Benchmarks/7zip/CPP/7zip/Archive/SwfHandler.cpp:0:0
	.cfi_startproc
# %bb.0:
	pushq	%rbp
	.cfi_def_cfa_offset 16
	.cfi_offset %rbp, -16
	movq	%rsp, %rbp
	.cfi_def_cfa_register %rbp
	movq	%rdi, -8(%rbp)
.Ltmp452:
	movq	-8(%rbp), %rdi
	addq	$-8, %rdi
	popq	%rbp
	.cfi_def_cfa %rsp, 8
	jmp	_ZN8NArchive4NSwf8CHandler6AddRefEv # TAILCALL
.Ltmp453:
.Lfunc_end50:
	.size	_ZThn8_N8NArchive4NSwf8CHandler6AddRefEv, .Lfunc_end50-_ZThn8_N8NArchive4NSwf8CHandler6AddRefEv
	.cfi_endproc
                                        # -- End function
	.section	.text._ZThn8_N8NArchive4NSwf8CHandler7ReleaseEv,"axG",@progbits,_ZThn8_N8NArchive4NSwf8CHandler7ReleaseEv,comdat
	.weak	_ZThn8_N8NArchive4NSwf8CHandler7ReleaseEv # -- Begin function _ZThn8_N8NArchive4NSwf8CHandler7ReleaseEv
	.p2align	4, 0x90
	.type	_ZThn8_N8NArchive4NSwf8CHandler7ReleaseEv,@function
_ZThn8_N8NArchive4NSwf8CHandler7ReleaseEv: # @_ZThn8_N8NArchive4NSwf8CHandler7ReleaseEv
.Lfunc_begin51:
	.loc	4 0 0                   # /home/chris/test-suite/MultiSource/Benchmarks/7zip/CPP/7zip/Archive/SwfHandler.cpp:0:0
	.cfi_startproc
# %bb.0:
	pushq	%rbp
	.cfi_def_cfa_offset 16
	.cfi_offset %rbp, -16
	movq	%rsp, %rbp
	.cfi_def_cfa_register %rbp
	movq	%rdi, -8(%rbp)
.Ltmp454:
	movq	-8(%rbp), %rdi
	addq	$-8, %rdi
	popq	%rbp
	.cfi_def_cfa %rsp, 8
	jmp	_ZN8NArchive4NSwf8CHandler7ReleaseEv # TAILCALL
.Ltmp455:
.Lfunc_end51:
	.size	_ZThn8_N8NArchive4NSwf8CHandler7ReleaseEv, .Lfunc_end51-_ZThn8_N8NArchive4NSwf8CHandler7ReleaseEv
	.cfi_endproc
                                        # -- End function
	.section	.text._ZThn8_N8NArchive4NSwf8CHandlerD1Ev,"axG",@progbits,_ZThn8_N8NArchive4NSwf8CHandlerD1Ev,comdat
	.weak	_ZThn8_N8NArchive4NSwf8CHandlerD1Ev # -- Begin function _ZThn8_N8NArchive4NSwf8CHandlerD1Ev
	.p2align	4, 0x90
	.type	_ZThn8_N8NArchive4NSwf8CHandlerD1Ev,@function
_ZThn8_N8NArchive4NSwf8CHandlerD1Ev:    # @_ZThn8_N8NArchive4NSwf8CHandlerD1Ev
.Lfunc_begin52:
	.loc	4 0 0                   # /home/chris/test-suite/MultiSource/Benchmarks/7zip/CPP/7zip/Archive/SwfHandler.cpp:0:0
	.cfi_startproc
# %bb.0:
	pushq	%rbp
	.cfi_def_cfa_offset 16
	.cfi_offset %rbp, -16
	movq	%rsp, %rbp
	.cfi_def_cfa_register %rbp
	movq	%rdi, -8(%rbp)
.Ltmp456:
	movq	-8(%rbp), %rdi
	addq	$-8, %rdi
	popq	%rbp
	.cfi_def_cfa %rsp, 8
	jmp	_ZN8NArchive4NSwf8CHandlerD2Ev # TAILCALL
.Ltmp457:
.Lfunc_end52:
	.size	_ZThn8_N8NArchive4NSwf8CHandlerD1Ev, .Lfunc_end52-_ZThn8_N8NArchive4NSwf8CHandlerD1Ev
	.cfi_endproc
                                        # -- End function
	.section	.text._ZThn8_N8NArchive4NSwf8CHandlerD0Ev,"axG",@progbits,_ZThn8_N8NArchive4NSwf8CHandlerD0Ev,comdat
	.weak	_ZThn8_N8NArchive4NSwf8CHandlerD0Ev # -- Begin function _ZThn8_N8NArchive4NSwf8CHandlerD0Ev
	.p2align	4, 0x90
	.type	_ZThn8_N8NArchive4NSwf8CHandlerD0Ev,@function
_ZThn8_N8NArchive4NSwf8CHandlerD0Ev:    # @_ZThn8_N8NArchive4NSwf8CHandlerD0Ev
.Lfunc_begin53:
	.loc	4 0 0                   # /home/chris/test-suite/MultiSource/Benchmarks/7zip/CPP/7zip/Archive/SwfHandler.cpp:0:0
	.cfi_startproc
# %bb.0:
	pushq	%rbp
	.cfi_def_cfa_offset 16
	.cfi_offset %rbp, -16
	movq	%rsp, %rbp
	.cfi_def_cfa_register %rbp
	movq	%rdi, -8(%rbp)
.Ltmp458:
	movq	-8(%rbp), %rdi
	addq	$-8, %rdi
	popq	%rbp
	.cfi_def_cfa %rsp, 8
	jmp	_ZN8NArchive4NSwf8CHandlerD0Ev # TAILCALL
.Ltmp459:
.Lfunc_end53:
	.size	_ZThn8_N8NArchive4NSwf8CHandlerD0Ev, .Lfunc_end53-_ZThn8_N8NArchive4NSwf8CHandlerD0Ev
	.cfi_endproc
                                        # -- End function
	.section	.text.__clang_call_terminate,"axG",@progbits,__clang_call_terminate,comdat
	.hidden	__clang_call_terminate  # -- Begin function __clang_call_terminate
	.weak	__clang_call_terminate
	.p2align	4, 0x90
	.type	__clang_call_terminate,@function
__clang_call_terminate:                 # @__clang_call_terminate
.Lfunc_begin54:
	.cfi_startproc
# %bb.0:
	pushq	%rax
	.cfi_def_cfa_offset 16
	callq	__cxa_begin_catch
	callq	_ZSt9terminatev
.Lfunc_end54:
	.size	__clang_call_terminate, .Lfunc_end54-__clang_call_terminate
	.cfi_endproc
                                        # -- End function
	.section	.text._ZN9CInBuffer8ReadByteERh,"axG",@progbits,_ZN9CInBuffer8ReadByteERh,comdat
	.weak	_ZN9CInBuffer8ReadByteERh # -- Begin function _ZN9CInBuffer8ReadByteERh
	.p2align	4, 0x90
	.type	_ZN9CInBuffer8ReadByteERh,@function
_ZN9CInBuffer8ReadByteERh:              # @_ZN9CInBuffer8ReadByteERh
.Lfunc_begin55:
	.loc	21 46 0                 # /home/chris/test-suite/MultiSource/Benchmarks/7zip/CPP/7zip/Archive/../Compress/../Common/InBuffer.h:46:0
	.cfi_startproc
# %bb.0:
	pushq	%rbp
	.cfi_def_cfa_offset 16
	.cfi_offset %rbp, -16
	movq	%rsp, %rbp
	.cfi_def_cfa_register %rbp
	pushq	%rbx
	subq	$24, %rsp
	.cfi_offset %rbx, -24
	movq	%rdi, -32(%rbp)
	movq	%rsi, -24(%rbp)
	movq	-32(%rbp), %rbx
.Ltmp460:
	.loc	21 47 9 prologue_end    # /home/chris/test-suite/MultiSource/Benchmarks/7zip/CPP/7zip/Archive/../Compress/../Common/InBuffer.h:47:9
	movq	(%rbx), %rax
	.loc	21 47 17 is_stmt 0      # /home/chris/test-suite/MultiSource/Benchmarks/7zip/CPP/7zip/Archive/../Compress/../Common/InBuffer.h:47:17
	cmpq	8(%rbx), %rax
.Ltmp461:
	.loc	21 47 9                 # /home/chris/test-suite/MultiSource/Benchmarks/7zip/CPP/7zip/Archive/../Compress/../Common/InBuffer.h:47:9
	jb	.LBB55_4
# %bb.1:
.Ltmp462:
	.loc	21 48 12 is_stmt 1      # /home/chris/test-suite/MultiSource/Benchmarks/7zip/CPP/7zip/Archive/../Compress/../Common/InBuffer.h:48:12
	movq	%rbx, %rdi
	callq	_ZN9CInBuffer9ReadBlockEv
.Ltmp463:
	.loc	21 48 11 is_stmt 0      # /home/chris/test-suite/MultiSource/Benchmarks/7zip/CPP/7zip/Archive/../Compress/../Common/InBuffer.h:48:11
	testb	$1, %al
	jne	.LBB55_3
# %bb.2:
.Ltmp464:
	.loc	21 49 9 is_stmt 1       # /home/chris/test-suite/MultiSource/Benchmarks/7zip/CPP/7zip/Archive/../Compress/../Common/InBuffer.h:49:9
	movb	$0, -9(%rbp)
	jmp	.LBB55_5
.LBB55_3:
	.loc	21 48 22                # /home/chris/test-suite/MultiSource/Benchmarks/7zip/CPP/7zip/Archive/../Compress/../Common/InBuffer.h:48:22
	jmp	.LBB55_4
.Ltmp465:
.LBB55_4:
	.loc	21 50 17                # /home/chris/test-suite/MultiSource/Benchmarks/7zip/CPP/7zip/Archive/../Compress/../Common/InBuffer.h:50:17
	movq	(%rbx), %rax
	movq	%rax, %rcx
	addq	$1, %rcx
	movq	%rcx, (%rbx)
	.loc	21 50 9 is_stmt 0       # /home/chris/test-suite/MultiSource/Benchmarks/7zip/CPP/7zip/Archive/../Compress/../Common/InBuffer.h:50:9
	movb	(%rax), %al
	.loc	21 50 5                 # /home/chris/test-suite/MultiSource/Benchmarks/7zip/CPP/7zip/Archive/../Compress/../Common/InBuffer.h:50:5
	movq	-24(%rbp), %rcx
	.loc	21 50 7                 # /home/chris/test-suite/MultiSource/Benchmarks/7zip/CPP/7zip/Archive/../Compress/../Common/InBuffer.h:50:7
	movb	%al, (%rcx)
	.loc	21 51 5 is_stmt 1       # /home/chris/test-suite/MultiSource/Benchmarks/7zip/CPP/7zip/Archive/../Compress/../Common/InBuffer.h:51:5
	movb	$1, -9(%rbp)
.LBB55_5:
	.loc	21 52 3                 # /home/chris/test-suite/MultiSource/Benchmarks/7zip/CPP/7zip/Archive/../Compress/../Common/InBuffer.h:52:3
	movb	-9(%rbp), %al
	andb	$1, %al
	movzbl	%al, %eax
	addq	$24, %rsp
	popq	%rbx
	popq	%rbp
	.cfi_def_cfa %rsp, 8
	retq
.Ltmp466:
.Lfunc_end55:
	.size	_ZN9CInBuffer8ReadByteERh, .Lfunc_end55-_ZN9CInBuffer8ReadByteERh
	.cfi_endproc
                                        # -- End function
	.section	.text._ZN7CBufferIhEC2Ev,"axG",@progbits,_ZN7CBufferIhEC2Ev,comdat
	.weak	_ZN7CBufferIhEC2Ev      # -- Begin function _ZN7CBufferIhEC2Ev
	.p2align	4, 0x90
	.type	_ZN7CBufferIhEC2Ev,@function
_ZN7CBufferIhEC2Ev:                     # @_ZN7CBufferIhEC2Ev
.Lfunc_begin56:
	.loc	9 20 0                  # /home/chris/test-suite/MultiSource/Benchmarks/7zip/CPP/Common/Buffer.h:20:0
	.cfi_startproc
# %bb.0:
	pushq	%rbp
	.cfi_def_cfa_offset 16
	.cfi_offset %rbp, -16
	movq	%rsp, %rbp
	.cfi_def_cfa_register %rbp
	movabsq	$_ZTV7CBufferIhE, %rax
	addq	$16, %rax
	movq	%rdi, -8(%rbp)
	movq	-8(%rbp), %rcx
.Ltmp467:
	.loc	9 20 38 prologue_end    # /home/chris/test-suite/MultiSource/Benchmarks/7zip/CPP/Common/Buffer.h:20:38
	movq	%rax, (%rcx)
	.loc	9 20 14 is_stmt 0       # /home/chris/test-suite/MultiSource/Benchmarks/7zip/CPP/Common/Buffer.h:20:14
	movq	$0, 8(%rcx)
	.loc	9 20 28                 # /home/chris/test-suite/MultiSource/Benchmarks/7zip/CPP/Common/Buffer.h:20:28
	movq	$0, 16(%rcx)
	.loc	9 20 39                 # /home/chris/test-suite/MultiSource/Benchmarks/7zip/CPP/Common/Buffer.h:20:39
	popq	%rbp
	.cfi_def_cfa %rsp, 8
	retq
.Ltmp468:
.Lfunc_end56:
	.size	_ZN7CBufferIhEC2Ev, .Lfunc_end56-_ZN7CBufferIhEC2Ev
	.cfi_endproc
                                        # -- End function
	.section	.text._ZN7CBufferIhED2Ev,"axG",@progbits,_ZN7CBufferIhED2Ev,comdat
	.weak	_ZN7CBufferIhED2Ev      # -- Begin function _ZN7CBufferIhED2Ev
	.p2align	4, 0x90
	.type	_ZN7CBufferIhED2Ev,@function
_ZN7CBufferIhED2Ev:                     # @_ZN7CBufferIhED2Ev
.Lfunc_begin57:
	.loc	9 23 0 is_stmt 1        # /home/chris/test-suite/MultiSource/Benchmarks/7zip/CPP/Common/Buffer.h:23:0
	.cfi_startproc
# %bb.0:
	pushq	%rbp
	.cfi_def_cfa_offset 16
	.cfi_offset %rbp, -16
	movq	%rsp, %rbp
	.cfi_def_cfa_register %rbp
	subq	$16, %rsp
	movabsq	$_ZTV7CBufferIhE, %rax
	addq	$16, %rax
	movq	%rdi, -8(%rbp)
	movq	-8(%rbp), %rcx
.Ltmp469:
	.loc	9 23 22 prologue_end    # /home/chris/test-suite/MultiSource/Benchmarks/7zip/CPP/Common/Buffer.h:23:22
	movq	%rax, (%rcx)
.Ltmp470:
	.loc	9 23 33 is_stmt 0       # /home/chris/test-suite/MultiSource/Benchmarks/7zip/CPP/Common/Buffer.h:23:33
	movq	16(%rcx), %rdi
	.loc	9 23 24                 # /home/chris/test-suite/MultiSource/Benchmarks/7zip/CPP/Common/Buffer.h:23:24
	cmpq	$0, %rdi
	je	.LBB57_2
# %bb.1:
	callq	_ZdaPv
.Ltmp471:
.LBB57_2:
	.loc	9 23 41                 # /home/chris/test-suite/MultiSource/Benchmarks/7zip/CPP/Common/Buffer.h:23:41
	addq	$16, %rsp
	popq	%rbp
	.cfi_def_cfa %rsp, 8
	retq
.Ltmp472:
.Lfunc_end57:
	.size	_ZN7CBufferIhED2Ev, .Lfunc_end57-_ZN7CBufferIhED2Ev
	.cfi_endproc
                                        # -- End function
	.section	.text._ZN7CBufferIhED0Ev,"axG",@progbits,_ZN7CBufferIhED0Ev,comdat
	.weak	_ZN7CBufferIhED0Ev      # -- Begin function _ZN7CBufferIhED0Ev
	.p2align	4, 0x90
	.type	_ZN7CBufferIhED0Ev,@function
_ZN7CBufferIhED0Ev:                     # @_ZN7CBufferIhED0Ev
.Lfunc_begin58:
	.loc	9 23 0 is_stmt 1        # /home/chris/test-suite/MultiSource/Benchmarks/7zip/CPP/Common/Buffer.h:23:0
	.cfi_startproc
# %bb.0:
	pushq	%rbp
	.cfi_def_cfa_offset 16
	.cfi_offset %rbp, -16
	movq	%rsp, %rbp
	.cfi_def_cfa_register %rbp
	pushq	%rbx
	pushq	%rax
	.cfi_offset %rbx, -24
	movq	%rdi, -16(%rbp)
	movq	-16(%rbp), %rbx
.Ltmp473:
	.loc	9 23 22 prologue_end    # /home/chris/test-suite/MultiSource/Benchmarks/7zip/CPP/Common/Buffer.h:23:22
	movq	%rbx, %rdi
	callq	_ZN7CBufferIhED2Ev
	movq	%rbx, %rdi
	callq	_ZdlPv
	.loc	9 23 41 is_stmt 0       # /home/chris/test-suite/MultiSource/Benchmarks/7zip/CPP/Common/Buffer.h:23:41
	addq	$8, %rsp
	popq	%rbx
	popq	%rbp
	.cfi_def_cfa %rsp, 8
	retq
.Ltmp474:
.Lfunc_end58:
	.size	_ZN7CBufferIhED0Ev, .Lfunc_end58-_ZN7CBufferIhED0Ev
	.cfi_endproc
                                        # -- End function
	.section	.text._ZN9CMyComPtrI19ISequentialInStreamED2Ev,"axG",@progbits,_ZN9CMyComPtrI19ISequentialInStreamED2Ev,comdat
	.weak	_ZN9CMyComPtrI19ISequentialInStreamED2Ev # -- Begin function _ZN9CMyComPtrI19ISequentialInStreamED2Ev
	.p2align	4, 0x90
	.type	_ZN9CMyComPtrI19ISequentialInStreamED2Ev,@function
_ZN9CMyComPtrI19ISequentialInStreamED2Ev: # @_ZN9CMyComPtrI19ISequentialInStreamED2Ev
.Lfunc_begin59:
	.loc	18 25 0 is_stmt 1       # /home/chris/test-suite/MultiSource/Benchmarks/7zip/CPP/Common/MyCom.h:25:0
	.cfi_startproc
	.cfi_personality 3, __gxx_personality_v0
	.cfi_lsda 3, .Lexception10
# %bb.0:
	pushq	%rbp
	.cfi_def_cfa_offset 16
	.cfi_offset %rbp, -16
	movq	%rsp, %rbp
	.cfi_def_cfa_register %rbp
	subq	$16, %rsp
	movq	%rdi, -8(%rbp)
	movq	-8(%rbp), %rax
.Ltmp478:
	.loc	18 25 22 prologue_end   # /home/chris/test-suite/MultiSource/Benchmarks/7zip/CPP/Common/MyCom.h:25:22
	cmpq	$0, (%rax)
.Ltmp479:
	.loc	18 25 22 is_stmt 0      # /home/chris/test-suite/MultiSource/Benchmarks/7zip/CPP/Common/MyCom.h:25:22
	je	.LBB59_3
# %bb.1:
.Ltmp480:
	.loc	18 25 26                # /home/chris/test-suite/MultiSource/Benchmarks/7zip/CPP/Common/MyCom.h:25:26
	movq	(%rax), %rdi
	.loc	18 25 30                # /home/chris/test-suite/MultiSource/Benchmarks/7zip/CPP/Common/MyCom.h:25:30
	movq	(%rdi), %rax
	movq	16(%rax), %rax
.Ltmp475:
	callq	*%rax
.Ltmp476:
	jmp	.LBB59_2
.LBB59_2:
	.loc	18 25 26                # /home/chris/test-suite/MultiSource/Benchmarks/7zip/CPP/Common/MyCom.h:25:26
	jmp	.LBB59_3
.Ltmp481:
.LBB59_3:
	.loc	18 25 41                # /home/chris/test-suite/MultiSource/Benchmarks/7zip/CPP/Common/MyCom.h:25:41
	addq	$16, %rsp
	popq	%rbp
	.cfi_def_cfa %rsp, 8
	retq
.LBB59_4:
	.cfi_def_cfa %rbp, 16
.Ltmp477:
                                        # kill: killed $rdx
.Ltmp482:
	.loc	18 25 30                # /home/chris/test-suite/MultiSource/Benchmarks/7zip/CPP/Common/MyCom.h:25:30
	movq	%rax, %rdi
	callq	__clang_call_terminate
.Ltmp483:
.Lfunc_end59:
	.size	_ZN9CMyComPtrI19ISequentialInStreamED2Ev, .Lfunc_end59-_ZN9CMyComPtrI19ISequentialInStreamED2Ev
	.cfi_endproc
	.section	.gcc_except_table,"a",@progbits
	.p2align	2
GCC_except_table59:
.Lexception10:
	.byte	255                     # @LPStart Encoding = omit
	.byte	3                       # @TType Encoding = udata4
	.uleb128 .Lttbase6-.Lttbaseref6
.Lttbaseref6:
	.byte	1                       # Call site Encoding = uleb128
	.uleb128 .Lcst_end10-.Lcst_begin10
.Lcst_begin10:
	.uleb128 .Ltmp475-.Lfunc_begin59 # >> Call Site 1 <<
	.uleb128 .Ltmp476-.Ltmp475      #   Call between .Ltmp475 and .Ltmp476
	.uleb128 .Ltmp477-.Lfunc_begin59 #     jumps to .Ltmp477
	.byte	1                       #   On action: 1
.Lcst_end10:
	.byte	1                       # >> Action Record 1 <<
                                        #   Catch TypeInfo 1
	.byte	0                       #   No further actions
	.p2align	2
                                        # >> Catch TypeInfos <<
	.long	0                       # TypeInfo 1
.Lttbase6:
	.p2align	2
                                        # -- End function
	.text
	.p2align	4, 0x90         # -- Begin function _ZN8NArchive4NSwfL9CreateArcEv
	.type	_ZN8NArchive4NSwfL9CreateArcEv,@function
_ZN8NArchive4NSwfL9CreateArcEv:         # @_ZN8NArchive4NSwfL9CreateArcEv
.Lfunc_begin60:
	.loc	4 402 0 is_stmt 1       # /home/chris/test-suite/MultiSource/Benchmarks/7zip/CPP/7zip/Archive/SwfHandler.cpp:402:0
	.cfi_startproc
	.cfi_personality 3, __gxx_personality_v0
	.cfi_lsda 3, .Lexception11
# %bb.0:
	pushq	%rbp
	.cfi_def_cfa_offset 16
	.cfi_offset %rbp, -16
	movq	%rsp, %rbp
	.cfi_def_cfa_register %rbp
.Ltmp487:
	pushq	%rbx
	subq	$24, %rsp
	.cfi_offset %rbx, -24
	.loc	4 402 41 prologue_end   # /home/chris/test-suite/MultiSource/Benchmarks/7zip/CPP/7zip/Archive/SwfHandler.cpp:402:41
	movl	$64, %edi
	callq	_Znwm
	movq	%rax, %rbx
.Ltmp484:
	.loc	4 402 45 is_stmt 0      # /home/chris/test-suite/MultiSource/Benchmarks/7zip/CPP/7zip/Archive/SwfHandler.cpp:402:45
	movq	%rbx, %rdi
	callq	_ZN8NArchive4NSwf8CHandlerC2Ev
.Ltmp485:
	jmp	.LBB60_1
.LBB60_1:
	.loc	4 402 34                # /home/chris/test-suite/MultiSource/Benchmarks/7zip/CPP/7zip/Archive/SwfHandler.cpp:402:34
	movq	%rbx, %rax
	addq	$24, %rsp
	popq	%rbx
	popq	%rbp
	.cfi_def_cfa %rsp, 8
	retq
.LBB60_2:
	.cfi_def_cfa %rbp, 16
.Ltmp486:
	.loc	4 402 55                # /home/chris/test-suite/MultiSource/Benchmarks/7zip/CPP/7zip/Archive/SwfHandler.cpp:402:55
	movq	%rax, -16(%rbp)
	movl	%edx, -20(%rbp)
	.loc	4 402 41                # /home/chris/test-suite/MultiSource/Benchmarks/7zip/CPP/7zip/Archive/SwfHandler.cpp:402:41
	movq	%rbx, %rdi
	callq	_ZdlPv
# %bb.3:
	movq	-16(%rbp), %rdi
	callq	_Unwind_Resume
.Ltmp488:
.Lfunc_end60:
	.size	_ZN8NArchive4NSwfL9CreateArcEv, .Lfunc_end60-_ZN8NArchive4NSwfL9CreateArcEv
	.cfi_endproc
	.section	.gcc_except_table,"a",@progbits
	.p2align	2
GCC_except_table60:
.Lexception11:
	.byte	255                     # @LPStart Encoding = omit
	.byte	255                     # @TType Encoding = omit
	.byte	1                       # Call site Encoding = uleb128
	.uleb128 .Lcst_end11-.Lcst_begin11
.Lcst_begin11:
	.uleb128 .Lfunc_begin60-.Lfunc_begin60 # >> Call Site 1 <<
	.uleb128 .Ltmp484-.Lfunc_begin60 #   Call between .Lfunc_begin60 and .Ltmp484
	.byte	0                       #     has no landing pad
	.byte	0                       #   On action: cleanup
	.uleb128 .Ltmp484-.Lfunc_begin60 # >> Call Site 2 <<
	.uleb128 .Ltmp485-.Ltmp484      #   Call between .Ltmp484 and .Ltmp485
	.uleb128 .Ltmp486-.Lfunc_begin60 #     jumps to .Ltmp486
	.byte	0                       #   On action: cleanup
	.uleb128 .Ltmp485-.Lfunc_begin60 # >> Call Site 3 <<
	.uleb128 .Lfunc_end60-.Ltmp485  #   Call between .Ltmp485 and .Lfunc_end60
	.byte	0                       #     has no landing pad
	.byte	0                       #   On action: cleanup
.Lcst_end11:
	.p2align	2
                                        # -- End function
	.section	.text._ZN8NArchive4NSwf8CHandlerC2Ev,"axG",@progbits,_ZN8NArchive4NSwf8CHandlerC2Ev,comdat
	.weak	_ZN8NArchive4NSwf8CHandlerC2Ev # -- Begin function _ZN8NArchive4NSwf8CHandlerC2Ev
	.p2align	4, 0x90
	.type	_ZN8NArchive4NSwf8CHandlerC2Ev,@function
_ZN8NArchive4NSwf8CHandlerC2Ev:         # @_ZN8NArchive4NSwf8CHandlerC2Ev
.Lfunc_begin61:
	.loc	4 42 0 is_stmt 1        # /home/chris/test-suite/MultiSource/Benchmarks/7zip/CPP/7zip/Archive/SwfHandler.cpp:42:0
	.cfi_startproc
	.cfi_personality 3, __gxx_personality_v0
	.cfi_lsda 3, .Lexception12
# %bb.0:
	pushq	%rbp
	.cfi_def_cfa_offset 16
	.cfi_offset %rbp, -16
	movq	%rsp, %rbp
	.cfi_def_cfa_register %rbp
	pushq	%rbx
	subq	$24, %rsp
	.cfi_offset %rbx, -24
	movq	%rdi, -24(%rbp)
	movq	-24(%rbp), %rbx
.Ltmp494:
	.loc	4 42 7 prologue_end     # /home/chris/test-suite/MultiSource/Benchmarks/7zip/CPP/7zip/Archive/SwfHandler.cpp:42:7
	movq	%rbx, %rdi
	callq	_ZN10IInArchiveC2Ev
	movq	%rbx, %rdi
	addq	$8, %rdi
	callq	_ZN15IArchiveOpenSeqC2Ev
	movq	%rbx, %rdi
	addq	$16, %rdi
.Ltmp489:
	callq	_ZN13CMyUnknownImpC2Ev
.Ltmp490:
	jmp	.LBB61_1
.LBB61_1:
	movq	$_ZTVN8NArchive4NSwf8CHandlerE+16, (%rbx)
	movq	$_ZTVN8NArchive4NSwf8CHandlerE+160, 8(%rbx)
	movq	%rbx, %rdi
	addq	$24, %rdi
.Ltmp491:
	callq	_ZN13CObjectVectorIN8NArchive4NSwf4CTagEEC2Ev
.Ltmp492:
	jmp	.LBB61_2
.LBB61_2:
	addq	$24, %rsp
	popq	%rbx
	popq	%rbp
	.cfi_def_cfa %rsp, 8
	retq
.LBB61_3:
	.cfi_def_cfa %rbp, 16
.Ltmp493:
	movq	%rax, -16(%rbp)
	movl	%edx, -28(%rbp)
.Ltmp495:
	.loc	4 42 7 is_stmt 0        # /home/chris/test-suite/MultiSource/Benchmarks/7zip/CPP/7zip/Archive/SwfHandler.cpp:42:7
	movq	%rbx, %rdi
	addq	$8, %rdi
	callq	_ZN15IArchiveOpenSeqD2Ev
	movq	%rbx, %rdi
	callq	_ZN10IInArchiveD2Ev
# %bb.4:
	movq	-16(%rbp), %rdi
	callq	_Unwind_Resume
.Ltmp496:
.Lfunc_end61:
	.size	_ZN8NArchive4NSwf8CHandlerC2Ev, .Lfunc_end61-_ZN8NArchive4NSwf8CHandlerC2Ev
	.cfi_endproc
	.section	.gcc_except_table,"a",@progbits
	.p2align	2
GCC_except_table61:
.Lexception12:
	.byte	255                     # @LPStart Encoding = omit
	.byte	255                     # @TType Encoding = omit
	.byte	1                       # Call site Encoding = uleb128
	.uleb128 .Lcst_end12-.Lcst_begin12
.Lcst_begin12:
	.uleb128 .Ltmp489-.Lfunc_begin61 # >> Call Site 1 <<
	.uleb128 .Ltmp492-.Ltmp489      #   Call between .Ltmp489 and .Ltmp492
	.uleb128 .Ltmp493-.Lfunc_begin61 #     jumps to .Ltmp493
	.byte	0                       #   On action: cleanup
	.uleb128 .Ltmp492-.Lfunc_begin61 # >> Call Site 2 <<
	.uleb128 .Lfunc_end61-.Ltmp492  #   Call between .Ltmp492 and .Lfunc_end61
	.byte	0                       #     has no landing pad
	.byte	0                       #   On action: cleanup
.Lcst_end12:
	.p2align	2
                                        # -- End function
	.section	.text._ZN10IInArchiveC2Ev,"axG",@progbits,_ZN10IInArchiveC2Ev,comdat
	.weak	_ZN10IInArchiveC2Ev     # -- Begin function _ZN10IInArchiveC2Ev
	.p2align	4, 0x90
	.type	_ZN10IInArchiveC2Ev,@function
_ZN10IInArchiveC2Ev:                    # @_ZN10IInArchiveC2Ev
.Lfunc_begin62:
	.loc	7 136 0 is_stmt 1       # /home/chris/test-suite/MultiSource/Benchmarks/7zip/CPP/7zip/Archive/../Common/../Archive/IArchive.h:136:0
	.cfi_startproc
# %bb.0:
	pushq	%rbp
	.cfi_def_cfa_offset 16
	.cfi_offset %rbp, -16
	movq	%rsp, %rbp
	.cfi_def_cfa_register %rbp
	pushq	%rbx
	pushq	%rax
	.cfi_offset %rbx, -24
	movq	%rdi, -16(%rbp)
	movq	-16(%rbp), %rbx
.Ltmp497:
	.loc	7 136 1 prologue_end    # /home/chris/test-suite/MultiSource/Benchmarks/7zip/CPP/7zip/Archive/../Common/../Archive/IArchive.h:136:1
	movq	%rbx, %rdi
	callq	_ZN8IUnknownC2Ev
	movabsq	$_ZTV10IInArchive, %rax
	addq	$16, %rax
	movq	%rax, (%rbx)
	addq	$8, %rsp
	popq	%rbx
	popq	%rbp
	.cfi_def_cfa %rsp, 8
	retq
.Ltmp498:
.Lfunc_end62:
	.size	_ZN10IInArchiveC2Ev, .Lfunc_end62-_ZN10IInArchiveC2Ev
	.cfi_endproc
                                        # -- End function
	.section	.text._ZN15IArchiveOpenSeqC2Ev,"axG",@progbits,_ZN15IArchiveOpenSeqC2Ev,comdat
	.weak	_ZN15IArchiveOpenSeqC2Ev # -- Begin function _ZN15IArchiveOpenSeqC2Ev
	.p2align	4, 0x90
	.type	_ZN15IArchiveOpenSeqC2Ev,@function
_ZN15IArchiveOpenSeqC2Ev:               # @_ZN15IArchiveOpenSeqC2Ev
.Lfunc_begin63:
	.loc	7 141 0                 # /home/chris/test-suite/MultiSource/Benchmarks/7zip/CPP/7zip/Archive/../Common/../Archive/IArchive.h:141:0
	.cfi_startproc
# %bb.0:
	pushq	%rbp
	.cfi_def_cfa_offset 16
	.cfi_offset %rbp, -16
	movq	%rsp, %rbp
	.cfi_def_cfa_register %rbp
	pushq	%rbx
	pushq	%rax
	.cfi_offset %rbx, -24
	movq	%rdi, -16(%rbp)
	movq	-16(%rbp), %rbx
.Ltmp499:
	.loc	7 141 1 prologue_end    # /home/chris/test-suite/MultiSource/Benchmarks/7zip/CPP/7zip/Archive/../Common/../Archive/IArchive.h:141:1
	movq	%rbx, %rdi
	callq	_ZN8IUnknownC2Ev
	movabsq	$_ZTV15IArchiveOpenSeq, %rax
	addq	$16, %rax
	movq	%rax, (%rbx)
	addq	$8, %rsp
	popq	%rbx
	popq	%rbp
	.cfi_def_cfa %rsp, 8
	retq
.Ltmp500:
.Lfunc_end63:
	.size	_ZN15IArchiveOpenSeqC2Ev, .Lfunc_end63-_ZN15IArchiveOpenSeqC2Ev
	.cfi_endproc
                                        # -- End function
	.section	.text._ZN13CMyUnknownImpC2Ev,"axG",@progbits,_ZN13CMyUnknownImpC2Ev,comdat
	.weak	_ZN13CMyUnknownImpC2Ev  # -- Begin function _ZN13CMyUnknownImpC2Ev
	.p2align	4, 0x90
	.type	_ZN13CMyUnknownImpC2Ev,@function
_ZN13CMyUnknownImpC2Ev:                 # @_ZN13CMyUnknownImpC2Ev
.Lfunc_begin64:
	.loc	18 155 0                # /home/chris/test-suite/MultiSource/Benchmarks/7zip/CPP/Common/MyCom.h:155:0
	.cfi_startproc
# %bb.0:
	pushq	%rbp
	.cfi_def_cfa_offset 16
	.cfi_offset %rbp, -16
	movq	%rsp, %rbp
	.cfi_def_cfa_register %rbp
	movq	%rdi, -8(%rbp)
	movq	-8(%rbp), %rax
.Ltmp501:
	.loc	18 155 20 prologue_end  # /home/chris/test-suite/MultiSource/Benchmarks/7zip/CPP/Common/MyCom.h:155:20
	movl	$0, (%rax)
	.loc	18 155 37 is_stmt 0     # /home/chris/test-suite/MultiSource/Benchmarks/7zip/CPP/Common/MyCom.h:155:37
	popq	%rbp
	.cfi_def_cfa %rsp, 8
	retq
.Ltmp502:
.Lfunc_end64:
	.size	_ZN13CMyUnknownImpC2Ev, .Lfunc_end64-_ZN13CMyUnknownImpC2Ev
	.cfi_endproc
                                        # -- End function
	.section	.text._ZN13CObjectVectorIN8NArchive4NSwf4CTagEEC2Ev,"axG",@progbits,_ZN13CObjectVectorIN8NArchive4NSwf4CTagEEC2Ev,comdat
	.weak	_ZN13CObjectVectorIN8NArchive4NSwf4CTagEEC2Ev # -- Begin function _ZN13CObjectVectorIN8NArchive4NSwf4CTagEEC2Ev
	.p2align	4, 0x90
	.type	_ZN13CObjectVectorIN8NArchive4NSwf4CTagEEC2Ev,@function
_ZN13CObjectVectorIN8NArchive4NSwf4CTagEEC2Ev: # @_ZN13CObjectVectorIN8NArchive4NSwf4CTagEEC2Ev
.Lfunc_begin65:
	.loc	19 183 0 is_stmt 1      # /home/chris/test-suite/MultiSource/Benchmarks/7zip/CPP/Common/MyVector.h:183:0
	.cfi_startproc
# %bb.0:
	pushq	%rbp
	.cfi_def_cfa_offset 16
	.cfi_offset %rbp, -16
	movq	%rsp, %rbp
	.cfi_def_cfa_register %rbp
	pushq	%rbx
	pushq	%rax
	.cfi_offset %rbx, -24
	movq	%rdi, -16(%rbp)
	movq	-16(%rbp), %rbx
.Ltmp503:
	.loc	19 183 3 prologue_end   # /home/chris/test-suite/MultiSource/Benchmarks/7zip/CPP/Common/MyVector.h:183:3
	movq	%rbx, %rdi
	callq	_ZN13CRecordVectorIPvEC2Ev
	movabsq	$_ZTV13CObjectVectorIN8NArchive4NSwf4CTagEE, %rax
	addq	$16, %rax
	.loc	19 183 19 is_stmt 0     # /home/chris/test-suite/MultiSource/Benchmarks/7zip/CPP/Common/MyVector.h:183:19
	movq	%rax, (%rbx)
	.loc	19 183 20               # /home/chris/test-suite/MultiSource/Benchmarks/7zip/CPP/Common/MyVector.h:183:20
	addq	$8, %rsp
	popq	%rbx
	popq	%rbp
	.cfi_def_cfa %rsp, 8
	retq
.Ltmp504:
.Lfunc_end65:
	.size	_ZN13CObjectVectorIN8NArchive4NSwf4CTagEEC2Ev, .Lfunc_end65-_ZN13CObjectVectorIN8NArchive4NSwf4CTagEEC2Ev
	.cfi_endproc
                                        # -- End function
	.section	.text._ZN8IUnknownC2Ev,"axG",@progbits,_ZN8IUnknownC2Ev,comdat
	.weak	_ZN8IUnknownC2Ev        # -- Begin function _ZN8IUnknownC2Ev
	.p2align	4, 0x90
	.type	_ZN8IUnknownC2Ev,@function
_ZN8IUnknownC2Ev:                       # @_ZN8IUnknownC2Ev
.Lfunc_begin66:
	.loc	1 110 0 is_stmt 1       # /home/chris/test-suite/MultiSource/Benchmarks/7zip/CPP/Windows/../Common/MyWindows.h:110:0
	.cfi_startproc
# %bb.0:
	pushq	%rbp
	.cfi_def_cfa_offset 16
	.cfi_offset %rbp, -16
	movq	%rsp, %rbp
	.cfi_def_cfa_register %rbp
	movabsq	$_ZTV8IUnknown, %rax
	addq	$16, %rax
	movq	%rdi, -8(%rbp)
	movq	-8(%rbp), %rcx
.Ltmp505:
	.loc	1 110 8 prologue_end    # /home/chris/test-suite/MultiSource/Benchmarks/7zip/CPP/Windows/../Common/MyWindows.h:110:8
	movq	%rax, (%rcx)
	popq	%rbp
	.cfi_def_cfa %rsp, 8
	retq
.Ltmp506:
.Lfunc_end66:
	.size	_ZN8IUnknownC2Ev, .Lfunc_end66-_ZN8IUnknownC2Ev
	.cfi_endproc
                                        # -- End function
	.section	.text._ZN10IInArchiveD2Ev,"axG",@progbits,_ZN10IInArchiveD2Ev,comdat
	.weak	_ZN10IInArchiveD2Ev     # -- Begin function _ZN10IInArchiveD2Ev
	.p2align	4, 0x90
	.type	_ZN10IInArchiveD2Ev,@function
_ZN10IInArchiveD2Ev:                    # @_ZN10IInArchiveD2Ev
.Lfunc_begin67:
	.loc	7 136 0                 # /home/chris/test-suite/MultiSource/Benchmarks/7zip/CPP/7zip/Archive/../Common/../Archive/IArchive.h:136:0
	.cfi_startproc
# %bb.0:
	pushq	%rbp
	.cfi_def_cfa_offset 16
	.cfi_offset %rbp, -16
	movq	%rsp, %rbp
	.cfi_def_cfa_register %rbp
	subq	$16, %rsp
	movq	%rdi, -8(%rbp)
	movq	-8(%rbp), %rdi
.Ltmp507:
	.loc	7 136 1 prologue_end    # /home/chris/test-suite/MultiSource/Benchmarks/7zip/CPP/7zip/Archive/../Common/../Archive/IArchive.h:136:1
	callq	_ZN8IUnknownD2Ev
.Ltmp508:
	.loc	7 136 1 is_stmt 0       # /home/chris/test-suite/MultiSource/Benchmarks/7zip/CPP/7zip/Archive/../Common/../Archive/IArchive.h:136:1
	addq	$16, %rsp
	popq	%rbp
	.cfi_def_cfa %rsp, 8
	retq
.Ltmp509:
.Lfunc_end67:
	.size	_ZN10IInArchiveD2Ev, .Lfunc_end67-_ZN10IInArchiveD2Ev
	.cfi_endproc
                                        # -- End function
	.section	.text._ZN10IInArchiveD0Ev,"axG",@progbits,_ZN10IInArchiveD0Ev,comdat
	.weak	_ZN10IInArchiveD0Ev     # -- Begin function _ZN10IInArchiveD0Ev
	.p2align	4, 0x90
	.type	_ZN10IInArchiveD0Ev,@function
_ZN10IInArchiveD0Ev:                    # @_ZN10IInArchiveD0Ev
.Lfunc_begin68:
	.loc	7 136 0 is_stmt 1       # /home/chris/test-suite/MultiSource/Benchmarks/7zip/CPP/7zip/Archive/../Common/../Archive/IArchive.h:136:0
	.cfi_startproc
# %bb.0:
	pushq	%rbp
	.cfi_def_cfa_offset 16
	.cfi_offset %rbp, -16
	movq	%rsp, %rbp
	.cfi_def_cfa_register %rbp
	movq	%rdi, -8(%rbp)
.Ltmp510:
	.loc	7 136 1 prologue_end    # /home/chris/test-suite/MultiSource/Benchmarks/7zip/CPP/7zip/Archive/../Common/../Archive/IArchive.h:136:1
	ud2
.Ltmp511:
.Lfunc_end68:
	.size	_ZN10IInArchiveD0Ev, .Lfunc_end68-_ZN10IInArchiveD0Ev
	.cfi_endproc
                                        # -- End function
	.section	.text._ZN8IUnknownD2Ev,"axG",@progbits,_ZN8IUnknownD2Ev,comdat
	.weak	_ZN8IUnknownD2Ev        # -- Begin function _ZN8IUnknownD2Ev
	.p2align	4, 0x90
	.type	_ZN8IUnknownD2Ev,@function
_ZN8IUnknownD2Ev:                       # @_ZN8IUnknownD2Ev
.Lfunc_begin69:
	.loc	1 116 0                 # /home/chris/test-suite/MultiSource/Benchmarks/7zip/CPP/Windows/../Common/MyWindows.h:116:0
	.cfi_startproc
# %bb.0:
	pushq	%rbp
	.cfi_def_cfa_offset 16
	.cfi_offset %rbp, -16
	movq	%rsp, %rbp
	.cfi_def_cfa_register %rbp
	movq	%rdi, -8(%rbp)
.Ltmp512:
	.loc	1 116 24 prologue_end   # /home/chris/test-suite/MultiSource/Benchmarks/7zip/CPP/Windows/../Common/MyWindows.h:116:24
	popq	%rbp
	.cfi_def_cfa %rsp, 8
	retq
.Ltmp513:
.Lfunc_end69:
	.size	_ZN8IUnknownD2Ev, .Lfunc_end69-_ZN8IUnknownD2Ev
	.cfi_endproc
                                        # -- End function
	.section	.text._ZN8IUnknownD0Ev,"axG",@progbits,_ZN8IUnknownD0Ev,comdat
	.weak	_ZN8IUnknownD0Ev        # -- Begin function _ZN8IUnknownD0Ev
	.p2align	4, 0x90
	.type	_ZN8IUnknownD0Ev,@function
_ZN8IUnknownD0Ev:                       # @_ZN8IUnknownD0Ev
.Lfunc_begin70:
	.loc	1 116 0                 # /home/chris/test-suite/MultiSource/Benchmarks/7zip/CPP/Windows/../Common/MyWindows.h:116:0
	.cfi_startproc
# %bb.0:
	pushq	%rbp
	.cfi_def_cfa_offset 16
	.cfi_offset %rbp, -16
	movq	%rsp, %rbp
	.cfi_def_cfa_register %rbp
	movq	%rdi, -8(%rbp)
.Ltmp514:
	.loc	1 116 23 prologue_end   # /home/chris/test-suite/MultiSource/Benchmarks/7zip/CPP/Windows/../Common/MyWindows.h:116:23
	ud2
.Ltmp515:
.Lfunc_end70:
	.size	_ZN8IUnknownD0Ev, .Lfunc_end70-_ZN8IUnknownD0Ev
	.cfi_endproc
                                        # -- End function
	.section	.text._ZN15IArchiveOpenSeqD2Ev,"axG",@progbits,_ZN15IArchiveOpenSeqD2Ev,comdat
	.weak	_ZN15IArchiveOpenSeqD2Ev # -- Begin function _ZN15IArchiveOpenSeqD2Ev
	.p2align	4, 0x90
	.type	_ZN15IArchiveOpenSeqD2Ev,@function
_ZN15IArchiveOpenSeqD2Ev:               # @_ZN15IArchiveOpenSeqD2Ev
.Lfunc_begin71:
	.loc	7 141 0                 # /home/chris/test-suite/MultiSource/Benchmarks/7zip/CPP/7zip/Archive/../Common/../Archive/IArchive.h:141:0
	.cfi_startproc
# %bb.0:
	pushq	%rbp
	.cfi_def_cfa_offset 16
	.cfi_offset %rbp, -16
	movq	%rsp, %rbp
	.cfi_def_cfa_register %rbp
	subq	$16, %rsp
	movq	%rdi, -8(%rbp)
	movq	-8(%rbp), %rdi
.Ltmp516:
	.loc	7 141 1 prologue_end    # /home/chris/test-suite/MultiSource/Benchmarks/7zip/CPP/7zip/Archive/../Common/../Archive/IArchive.h:141:1
	callq	_ZN8IUnknownD2Ev
.Ltmp517:
	.loc	7 141 1 is_stmt 0       # /home/chris/test-suite/MultiSource/Benchmarks/7zip/CPP/7zip/Archive/../Common/../Archive/IArchive.h:141:1
	addq	$16, %rsp
	popq	%rbp
	.cfi_def_cfa %rsp, 8
	retq
.Ltmp518:
.Lfunc_end71:
	.size	_ZN15IArchiveOpenSeqD2Ev, .Lfunc_end71-_ZN15IArchiveOpenSeqD2Ev
	.cfi_endproc
                                        # -- End function
	.section	.text._ZN15IArchiveOpenSeqD0Ev,"axG",@progbits,_ZN15IArchiveOpenSeqD0Ev,comdat
	.weak	_ZN15IArchiveOpenSeqD0Ev # -- Begin function _ZN15IArchiveOpenSeqD0Ev
	.p2align	4, 0x90
	.type	_ZN15IArchiveOpenSeqD0Ev,@function
_ZN15IArchiveOpenSeqD0Ev:               # @_ZN15IArchiveOpenSeqD0Ev
.Lfunc_begin72:
	.loc	7 141 0 is_stmt 1       # /home/chris/test-suite/MultiSource/Benchmarks/7zip/CPP/7zip/Archive/../Common/../Archive/IArchive.h:141:0
	.cfi_startproc
# %bb.0:
	pushq	%rbp
	.cfi_def_cfa_offset 16
	.cfi_offset %rbp, -16
	movq	%rsp, %rbp
	.cfi_def_cfa_register %rbp
	movq	%rdi, -8(%rbp)
.Ltmp519:
	.loc	7 141 1 prologue_end    # /home/chris/test-suite/MultiSource/Benchmarks/7zip/CPP/7zip/Archive/../Common/../Archive/IArchive.h:141:1
	ud2
.Ltmp520:
.Lfunc_end72:
	.size	_ZN15IArchiveOpenSeqD0Ev, .Lfunc_end72-_ZN15IArchiveOpenSeqD0Ev
	.cfi_endproc
                                        # -- End function
	.section	.text._ZN13CRecordVectorIPvEC2Ev,"axG",@progbits,_ZN13CRecordVectorIPvEC2Ev,comdat
	.weak	_ZN13CRecordVectorIPvEC2Ev # -- Begin function _ZN13CRecordVectorIPvEC2Ev
	.p2align	4, 0x90
	.type	_ZN13CRecordVectorIPvEC2Ev,@function
_ZN13CRecordVectorIPvEC2Ev:             # @_ZN13CRecordVectorIPvEC2Ev
.Lfunc_begin73:
	.loc	19 39 0                 # /home/chris/test-suite/MultiSource/Benchmarks/7zip/CPP/Common/MyVector.h:39:0
	.cfi_startproc
# %bb.0:
	pushq	%rbp
	.cfi_def_cfa_offset 16
	.cfi_offset %rbp, -16
	movq	%rsp, %rbp
	.cfi_def_cfa_register %rbp
	pushq	%rbx
	pushq	%rax
	.cfi_offset %rbx, -24
	movq	%rdi, -16(%rbp)
	movq	-16(%rbp), %rbx
.Ltmp521:
	.loc	19 39 20 prologue_end   # /home/chris/test-suite/MultiSource/Benchmarks/7zip/CPP/Common/MyVector.h:39:20
	movq	%rbx, %rdi
	movl	$8, %esi
	callq	_ZN17CBaseRecordVectorC2Em
	movabsq	$_ZTV13CRecordVectorIPvE, %rax
	addq	$16, %rax
	.loc	19 39 48 is_stmt 0      # /home/chris/test-suite/MultiSource/Benchmarks/7zip/CPP/Common/MyVector.h:39:48
	movq	%rax, (%rbx)
	.loc	19 39 49                # /home/chris/test-suite/MultiSource/Benchmarks/7zip/CPP/Common/MyVector.h:39:49
	addq	$8, %rsp
	popq	%rbx
	popq	%rbp
	.cfi_def_cfa %rsp, 8
	retq
.Ltmp522:
.Lfunc_end73:
	.size	_ZN13CRecordVectorIPvEC2Ev, .Lfunc_end73-_ZN13CRecordVectorIPvEC2Ev
	.cfi_endproc
                                        # -- End function
	.section	.text._ZN13CObjectVectorIN8NArchive4NSwf4CTagEED2Ev,"axG",@progbits,_ZN13CObjectVectorIN8NArchive4NSwf4CTagEED2Ev,comdat
	.weak	_ZN13CObjectVectorIN8NArchive4NSwf4CTagEED2Ev # -- Begin function _ZN13CObjectVectorIN8NArchive4NSwf4CTagEED2Ev
	.p2align	4, 0x90
	.type	_ZN13CObjectVectorIN8NArchive4NSwf4CTagEED2Ev,@function
_ZN13CObjectVectorIN8NArchive4NSwf4CTagEED2Ev: # @_ZN13CObjectVectorIN8NArchive4NSwf4CTagEED2Ev
.Lfunc_begin74:
	.loc	19 184 0 is_stmt 1      # /home/chris/test-suite/MultiSource/Benchmarks/7zip/CPP/Common/MyVector.h:184:0
	.cfi_startproc
	.cfi_personality 3, __gxx_personality_v0
	.cfi_lsda 3, .Lexception13
# %bb.0:
	pushq	%rbp
	.cfi_def_cfa_offset 16
	.cfi_offset %rbp, -16
	movq	%rsp, %rbp
	.cfi_def_cfa_register %rbp
	pushq	%rbx
	subq	$24, %rsp
	.cfi_offset %rbx, -24
	movq	%rdi, -24(%rbp)
	movq	-24(%rbp), %rbx
.Ltmp526:
	.loc	19 184 20 prologue_end  # /home/chris/test-suite/MultiSource/Benchmarks/7zip/CPP/Common/MyVector.h:184:20
	movq	$_ZTV13CObjectVectorIN8NArchive4NSwf4CTagEE+16, (%rbx)
.Ltmp523:
.Ltmp527:
	.loc	19 184 22 is_stmt 0     # /home/chris/test-suite/MultiSource/Benchmarks/7zip/CPP/Common/MyVector.h:184:22
	movq	%rbx, %rdi
	callq	_ZN17CBaseRecordVector5ClearEv
.Ltmp524:
	jmp	.LBB74_1
.LBB74_1:
	.loc	19 184 31               # /home/chris/test-suite/MultiSource/Benchmarks/7zip/CPP/Common/MyVector.h:184:31
	movq	%rbx, %rdi
	callq	_ZN13CRecordVectorIPvED2Ev
.Ltmp528:
	.loc	19 184 31               # /home/chris/test-suite/MultiSource/Benchmarks/7zip/CPP/Common/MyVector.h:184:31
	addq	$24, %rsp
	popq	%rbx
	popq	%rbp
	.cfi_def_cfa %rsp, 8
	retq
.LBB74_2:
	.cfi_def_cfa %rbp, 16
.Ltmp525:
.Ltmp529:
	.loc	19 184 31               # /home/chris/test-suite/MultiSource/Benchmarks/7zip/CPP/Common/MyVector.h:184:31
	movq	%rax, -16(%rbp)
	movl	%edx, -28(%rbp)
	movq	%rbx, %rdi
	callq	_ZN13CRecordVectorIPvED2Ev
# %bb.3:
	movq	-16(%rbp), %rdi
	callq	__clang_call_terminate
.Ltmp530:
.Lfunc_end74:
	.size	_ZN13CObjectVectorIN8NArchive4NSwf4CTagEED2Ev, .Lfunc_end74-_ZN13CObjectVectorIN8NArchive4NSwf4CTagEED2Ev
	.cfi_endproc
	.section	.gcc_except_table,"a",@progbits
	.p2align	2
GCC_except_table74:
.Lexception13:
	.byte	255                     # @LPStart Encoding = omit
	.byte	3                       # @TType Encoding = udata4
	.uleb128 .Lttbase7-.Lttbaseref7
.Lttbaseref7:
	.byte	1                       # Call site Encoding = uleb128
	.uleb128 .Lcst_end13-.Lcst_begin13
.Lcst_begin13:
	.uleb128 .Ltmp523-.Lfunc_begin74 # >> Call Site 1 <<
	.uleb128 .Ltmp524-.Ltmp523      #   Call between .Ltmp523 and .Ltmp524
	.uleb128 .Ltmp525-.Lfunc_begin74 #     jumps to .Ltmp525
	.byte	1                       #   On action: 1
.Lcst_end13:
	.byte	1                       # >> Action Record 1 <<
                                        #   Catch TypeInfo 1
	.byte	0                       #   No further actions
	.p2align	2
                                        # >> Catch TypeInfos <<
	.long	0                       # TypeInfo 1
.Lttbase7:
	.p2align	2
                                        # -- End function
	.section	.text._ZN13CObjectVectorIN8NArchive4NSwf4CTagEED0Ev,"axG",@progbits,_ZN13CObjectVectorIN8NArchive4NSwf4CTagEED0Ev,comdat
	.weak	_ZN13CObjectVectorIN8NArchive4NSwf4CTagEED0Ev # -- Begin function _ZN13CObjectVectorIN8NArchive4NSwf4CTagEED0Ev
	.p2align	4, 0x90
	.type	_ZN13CObjectVectorIN8NArchive4NSwf4CTagEED0Ev,@function
_ZN13CObjectVectorIN8NArchive4NSwf4CTagEED0Ev: # @_ZN13CObjectVectorIN8NArchive4NSwf4CTagEED0Ev
.Lfunc_begin75:
	.loc	19 184 0 is_stmt 1      # /home/chris/test-suite/MultiSource/Benchmarks/7zip/CPP/Common/MyVector.h:184:0
	.cfi_startproc
# %bb.0:
	pushq	%rbp
	.cfi_def_cfa_offset 16
	.cfi_offset %rbp, -16
	movq	%rsp, %rbp
	.cfi_def_cfa_register %rbp
	pushq	%rbx
	pushq	%rax
	.cfi_offset %rbx, -24
	movq	%rdi, -16(%rbp)
	movq	-16(%rbp), %rbx
.Ltmp531:
	.loc	19 184 20 prologue_end  # /home/chris/test-suite/MultiSource/Benchmarks/7zip/CPP/Common/MyVector.h:184:20
	movq	%rbx, %rdi
	callq	_ZN13CObjectVectorIN8NArchive4NSwf4CTagEED2Ev
	movq	%rbx, %rdi
	callq	_ZdlPv
	.loc	19 184 31 is_stmt 0     # /home/chris/test-suite/MultiSource/Benchmarks/7zip/CPP/Common/MyVector.h:184:31
	addq	$8, %rsp
	popq	%rbx
	popq	%rbp
	.cfi_def_cfa %rsp, 8
	retq
.Ltmp532:
.Lfunc_end75:
	.size	_ZN13CObjectVectorIN8NArchive4NSwf4CTagEED0Ev, .Lfunc_end75-_ZN13CObjectVectorIN8NArchive4NSwf4CTagEED0Ev
	.cfi_endproc
                                        # -- End function
	.section	.text._ZN13CObjectVectorIN8NArchive4NSwf4CTagEE6DeleteEii,"axG",@progbits,_ZN13CObjectVectorIN8NArchive4NSwf4CTagEE6DeleteEii,comdat
	.weak	_ZN13CObjectVectorIN8NArchive4NSwf4CTagEE6DeleteEii # -- Begin function _ZN13CObjectVectorIN8NArchive4NSwf4CTagEE6DeleteEii
	.p2align	4, 0x90
	.type	_ZN13CObjectVectorIN8NArchive4NSwf4CTagEE6DeleteEii,@function
_ZN13CObjectVectorIN8NArchive4NSwf4CTagEE6DeleteEii: # @_ZN13CObjectVectorIN8NArchive4NSwf4CTagEE6DeleteEii
.Lfunc_begin76:
	.loc	19 208 0 is_stmt 1      # /home/chris/test-suite/MultiSource/Benchmarks/7zip/CPP/Common/MyVector.h:208:0
	.cfi_startproc
# %bb.0:
	pushq	%rbp
	.cfi_def_cfa_offset 16
	.cfi_offset %rbp, -16
	movq	%rsp, %rbp
	.cfi_def_cfa_register %rbp
	pushq	%r14
	pushq	%rbx
	subq	$32, %rsp
	.cfi_offset %rbx, -32
	.cfi_offset %r14, -24
	movq	%rdi, -40(%rbp)
	movl	%esi, -28(%rbp)
	movl	%edx, -24(%rbp)
	movq	-40(%rbp), %r14
.Ltmp533:
	.loc	19 209 28 prologue_end  # /home/chris/test-suite/MultiSource/Benchmarks/7zip/CPP/Common/MyVector.h:209:28
	movl	-28(%rbp), %esi
	.loc	19 209 5 is_stmt 0      # /home/chris/test-suite/MultiSource/Benchmarks/7zip/CPP/Common/MyVector.h:209:5
	movq	%r14, %rdi
	leaq	-24(%rbp), %rdx
.Ltmp534:
	#DEBUG_VALUE: Delete:num <- [$rdx+0]
	callq	_ZNK17CBaseRecordVector22TestIndexAndCorrectNumEiRi
.Ltmp535:
	.loc	19 210 14 is_stmt 1     # /home/chris/test-suite/MultiSource/Benchmarks/7zip/CPP/Common/MyVector.h:210:14
	movl	$0, -20(%rbp)
.LBB76_1:                               # =>This Inner Loop Header: Depth=1
.Ltmp536:
	.loc	19 210 21 is_stmt 0     # /home/chris/test-suite/MultiSource/Benchmarks/7zip/CPP/Common/MyVector.h:210:21
	movl	-20(%rbp), %eax
	.loc	19 210 23               # /home/chris/test-suite/MultiSource/Benchmarks/7zip/CPP/Common/MyVector.h:210:23
	cmpl	-24(%rbp), %eax
.Ltmp537:
	.loc	19 210 5                # /home/chris/test-suite/MultiSource/Benchmarks/7zip/CPP/Common/MyVector.h:210:5
	jge	.LBB76_6
# %bb.2:                                #   in Loop: Header=BB76_1 Depth=1
.Ltmp538:
	.loc	19 211 30 is_stmt 1     # /home/chris/test-suite/MultiSource/Benchmarks/7zip/CPP/Common/MyVector.h:211:30
	movq	16(%r14), %rax
	.loc	19 211 38 is_stmt 0     # /home/chris/test-suite/MultiSource/Benchmarks/7zip/CPP/Common/MyVector.h:211:38
	movl	-28(%rbp), %ecx
	.loc	19 211 44               # /home/chris/test-suite/MultiSource/Benchmarks/7zip/CPP/Common/MyVector.h:211:44
	addl	-20(%rbp), %ecx
	.loc	19 211 20               # /home/chris/test-suite/MultiSource/Benchmarks/7zip/CPP/Common/MyVector.h:211:20
	movslq	%ecx, %rcx
	movq	(%rax,%rcx,8), %rbx
	.loc	19 211 7                # /home/chris/test-suite/MultiSource/Benchmarks/7zip/CPP/Common/MyVector.h:211:7
	cmpq	$0, %rbx
	je	.LBB76_4
# %bb.3:                                #   in Loop: Header=BB76_1 Depth=1
	movq	%rbx, %rdi
	callq	_ZN8NArchive4NSwf4CTagD2Ev
	movq	%rbx, %rdi
	callq	_ZdlPv
.LBB76_4:                               #   in Loop: Header=BB76_1 Depth=1
	jmp	.LBB76_5
.LBB76_5:                               #   in Loop: Header=BB76_1 Depth=1
	.loc	19 210 31 is_stmt 1     # /home/chris/test-suite/MultiSource/Benchmarks/7zip/CPP/Common/MyVector.h:210:31
	movl	-20(%rbp), %eax
	addl	$1, %eax
	movl	%eax, -20(%rbp)
	.loc	19 210 5 is_stmt 0      # /home/chris/test-suite/MultiSource/Benchmarks/7zip/CPP/Common/MyVector.h:210:5
	jmp	.LBB76_1
.Ltmp539:
.LBB76_6:
	.loc	19 212 28 is_stmt 1     # /home/chris/test-suite/MultiSource/Benchmarks/7zip/CPP/Common/MyVector.h:212:28
	movl	-28(%rbp), %esi
	.loc	19 212 35 is_stmt 0     # /home/chris/test-suite/MultiSource/Benchmarks/7zip/CPP/Common/MyVector.h:212:35
	movl	-24(%rbp), %edx
	.loc	19 212 21               # /home/chris/test-suite/MultiSource/Benchmarks/7zip/CPP/Common/MyVector.h:212:21
	movq	%r14, %rdi
	callq	_ZN17CBaseRecordVector6DeleteEii
	.loc	19 213 3 is_stmt 1      # /home/chris/test-suite/MultiSource/Benchmarks/7zip/CPP/Common/MyVector.h:213:3
	addq	$32, %rsp
	popq	%rbx
	popq	%r14
	popq	%rbp
	.cfi_def_cfa %rsp, 8
	retq
.Ltmp540:
.Lfunc_end76:
	.size	_ZN13CObjectVectorIN8NArchive4NSwf4CTagEE6DeleteEii, .Lfunc_end76-_ZN13CObjectVectorIN8NArchive4NSwf4CTagEE6DeleteEii
	.cfi_endproc
                                        # -- End function
	.section	.text._ZN17CBaseRecordVectorC2Em,"axG",@progbits,_ZN17CBaseRecordVectorC2Em,comdat
	.weak	_ZN17CBaseRecordVectorC2Em # -- Begin function _ZN17CBaseRecordVectorC2Em
	.p2align	4, 0x90
	.type	_ZN17CBaseRecordVectorC2Em,@function
_ZN17CBaseRecordVectorC2Em:             # @_ZN17CBaseRecordVectorC2Em
.Lfunc_begin77:
	.loc	19 22 0                 # /home/chris/test-suite/MultiSource/Benchmarks/7zip/CPP/Common/MyVector.h:22:0
	.cfi_startproc
# %bb.0:
	pushq	%rbp
	.cfi_def_cfa_offset 16
	.cfi_offset %rbp, -16
	movq	%rsp, %rbp
	.cfi_def_cfa_register %rbp
	movabsq	$_ZTV17CBaseRecordVector, %rax
	addq	$16, %rax
	movq	%rdi, -16(%rbp)
	movq	%rsi, -8(%rbp)
	movq	-16(%rbp), %rcx
.Ltmp541:
	.loc	19 22 94 prologue_end   # /home/chris/test-suite/MultiSource/Benchmarks/7zip/CPP/Common/MyVector.h:22:94
	movq	%rax, (%rcx)
	.loc	19 22 39 is_stmt 0      # /home/chris/test-suite/MultiSource/Benchmarks/7zip/CPP/Common/MyVector.h:22:39
	movl	$0, 8(%rcx)
	.loc	19 22 53                # /home/chris/test-suite/MultiSource/Benchmarks/7zip/CPP/Common/MyVector.h:22:53
	movl	$0, 12(%rcx)
	.loc	19 22 63                # /home/chris/test-suite/MultiSource/Benchmarks/7zip/CPP/Common/MyVector.h:22:63
	movq	$0, 16(%rcx)
	.loc	19 22 84                # /home/chris/test-suite/MultiSource/Benchmarks/7zip/CPP/Common/MyVector.h:22:84
	movq	-8(%rbp), %rax
	.loc	19 22 74                # /home/chris/test-suite/MultiSource/Benchmarks/7zip/CPP/Common/MyVector.h:22:74
	movq	%rax, 24(%rcx)
	.loc	19 22 95                # /home/chris/test-suite/MultiSource/Benchmarks/7zip/CPP/Common/MyVector.h:22:95
	popq	%rbp
	.cfi_def_cfa %rsp, 8
	retq
.Ltmp542:
.Lfunc_end77:
	.size	_ZN17CBaseRecordVectorC2Em, .Lfunc_end77-_ZN17CBaseRecordVectorC2Em
	.cfi_endproc
                                        # -- End function
	.section	.text._ZN13CRecordVectorIPvED2Ev,"axG",@progbits,_ZN13CRecordVectorIPvED2Ev,comdat
	.weak	_ZN13CRecordVectorIPvED2Ev # -- Begin function _ZN13CRecordVectorIPvED2Ev
	.p2align	4, 0x90
	.type	_ZN13CRecordVectorIPvED2Ev,@function
_ZN13CRecordVectorIPvED2Ev:             # @_ZN13CRecordVectorIPvED2Ev
.Lfunc_begin78:
	.loc	19 36 0 is_stmt 1       # /home/chris/test-suite/MultiSource/Benchmarks/7zip/CPP/Common/MyVector.h:36:0
	.cfi_startproc
# %bb.0:
	pushq	%rbp
	.cfi_def_cfa_offset 16
	.cfi_offset %rbp, -16
	movq	%rsp, %rbp
	.cfi_def_cfa_register %rbp
	subq	$16, %rsp
	movq	%rdi, -8(%rbp)
	movq	-8(%rbp), %rdi
.Ltmp543:
	.loc	19 36 7 prologue_end    # /home/chris/test-suite/MultiSource/Benchmarks/7zip/CPP/Common/MyVector.h:36:7
	callq	_ZN17CBaseRecordVectorD2Ev
.Ltmp544:
	.loc	19 36 7 is_stmt 0       # /home/chris/test-suite/MultiSource/Benchmarks/7zip/CPP/Common/MyVector.h:36:7
	addq	$16, %rsp
	popq	%rbp
	.cfi_def_cfa %rsp, 8
	retq
.Ltmp545:
.Lfunc_end78:
	.size	_ZN13CRecordVectorIPvED2Ev, .Lfunc_end78-_ZN13CRecordVectorIPvED2Ev
	.cfi_endproc
                                        # -- End function
	.section	.text._ZN13CRecordVectorIPvED0Ev,"axG",@progbits,_ZN13CRecordVectorIPvED0Ev,comdat
	.weak	_ZN13CRecordVectorIPvED0Ev # -- Begin function _ZN13CRecordVectorIPvED0Ev
	.p2align	4, 0x90
	.type	_ZN13CRecordVectorIPvED0Ev,@function
_ZN13CRecordVectorIPvED0Ev:             # @_ZN13CRecordVectorIPvED0Ev
.Lfunc_begin79:
	.loc	19 36 0 is_stmt 1       # /home/chris/test-suite/MultiSource/Benchmarks/7zip/CPP/Common/MyVector.h:36:0
	.cfi_startproc
# %bb.0:
	pushq	%rbp
	.cfi_def_cfa_offset 16
	.cfi_offset %rbp, -16
	movq	%rsp, %rbp
	.cfi_def_cfa_register %rbp
	pushq	%rbx
	pushq	%rax
	.cfi_offset %rbx, -24
	movq	%rdi, -16(%rbp)
	movq	-16(%rbp), %rbx
.Ltmp546:
	.loc	19 36 7 prologue_end    # /home/chris/test-suite/MultiSource/Benchmarks/7zip/CPP/Common/MyVector.h:36:7
	movq	%rbx, %rdi
	callq	_ZN13CRecordVectorIPvED2Ev
	movq	%rbx, %rdi
	callq	_ZdlPv
	addq	$8, %rsp
	popq	%rbx
	popq	%rbp
	.cfi_def_cfa %rsp, 8
	retq
.Ltmp547:
.Lfunc_end79:
	.size	_ZN13CRecordVectorIPvED0Ev, .Lfunc_end79-_ZN13CRecordVectorIPvED0Ev
	.cfi_endproc
                                        # -- End function
	.section	.text._ZNK17CBaseRecordVector22TestIndexAndCorrectNumEiRi,"axG",@progbits,_ZNK17CBaseRecordVector22TestIndexAndCorrectNumEiRi,comdat
	.weak	_ZNK17CBaseRecordVector22TestIndexAndCorrectNumEiRi # -- Begin function _ZNK17CBaseRecordVector22TestIndexAndCorrectNumEiRi
	.p2align	4, 0x90
	.type	_ZNK17CBaseRecordVector22TestIndexAndCorrectNumEiRi,@function
_ZNK17CBaseRecordVector22TestIndexAndCorrectNumEiRi: # @_ZNK17CBaseRecordVector22TestIndexAndCorrectNumEiRi
.Lfunc_begin80:
	.loc	19 20 0                 # /home/chris/test-suite/MultiSource/Benchmarks/7zip/CPP/Common/MyVector.h:20:0
	.cfi_startproc
# %bb.0:
	pushq	%rbp
	.cfi_def_cfa_offset 16
	.cfi_offset %rbp, -16
	movq	%rsp, %rbp
	.cfi_def_cfa_register %rbp
	movq	%rdi, -24(%rbp)
	movl	%esi, -4(%rbp)
	movq	%rdx, -16(%rbp)
	movq	-24(%rbp), %rax
.Ltmp548:
	.loc	19 20 11 prologue_end   # /home/chris/test-suite/MultiSource/Benchmarks/7zip/CPP/Common/MyVector.h:20:11
	movl	-4(%rbp), %ecx
	.loc	19 20 19 is_stmt 0      # /home/chris/test-suite/MultiSource/Benchmarks/7zip/CPP/Common/MyVector.h:20:19
	movq	-16(%rbp), %rdx
	.loc	19 20 17                # /home/chris/test-suite/MultiSource/Benchmarks/7zip/CPP/Common/MyVector.h:20:17
	addl	(%rdx), %ecx
	.loc	19 20 23                # /home/chris/test-suite/MultiSource/Benchmarks/7zip/CPP/Common/MyVector.h:20:23
	cmpl	12(%rax), %ecx
.Ltmp549:
	.loc	19 20 11                # /home/chris/test-suite/MultiSource/Benchmarks/7zip/CPP/Common/MyVector.h:20:11
	jle	.LBB80_2
# %bb.1:
.Ltmp550:
	.loc	19 20 38                # /home/chris/test-suite/MultiSource/Benchmarks/7zip/CPP/Common/MyVector.h:20:38
	movl	12(%rax), %eax
	.loc	19 20 44                # /home/chris/test-suite/MultiSource/Benchmarks/7zip/CPP/Common/MyVector.h:20:44
	subl	-4(%rbp), %eax
	.loc	19 20 32                # /home/chris/test-suite/MultiSource/Benchmarks/7zip/CPP/Common/MyVector.h:20:32
	movq	-16(%rbp), %rcx
	.loc	19 20 36                # /home/chris/test-suite/MultiSource/Benchmarks/7zip/CPP/Common/MyVector.h:20:36
	movl	%eax, (%rcx)
.Ltmp551:
.LBB80_2:
	.loc	19 20 53                # /home/chris/test-suite/MultiSource/Benchmarks/7zip/CPP/Common/MyVector.h:20:53
	popq	%rbp
	.cfi_def_cfa %rsp, 8
	retq
.Ltmp552:
.Lfunc_end80:
	.size	_ZNK17CBaseRecordVector22TestIndexAndCorrectNumEiRi, .Lfunc_end80-_ZNK17CBaseRecordVector22TestIndexAndCorrectNumEiRi
	.cfi_endproc
                                        # -- End function
	.section	.text._ZeqRK4GUIDS1_,"axG",@progbits,_ZeqRK4GUIDS1_,comdat
	.weak	_ZeqRK4GUIDS1_          # -- Begin function _ZeqRK4GUIDS1_
	.p2align	4, 0x90
	.type	_ZeqRK4GUIDS1_,@function
_ZeqRK4GUIDS1_:                         # @_ZeqRK4GUIDS1_
.Lfunc_begin81:
	.loc	6 26 0 is_stmt 1        # /home/chris/test-suite/MultiSource/Benchmarks/7zip/CPP/Common/MyGuidDef.h:26:0
	.cfi_startproc
# %bb.0:
	pushq	%rbp
	.cfi_def_cfa_offset 16
	.cfi_offset %rbp, -16
	movq	%rsp, %rbp
	.cfi_def_cfa_register %rbp
	movq	%rdi, -24(%rbp)
	movq	%rsi, -16(%rbp)
.Ltmp553:
	.loc	6 27 12 prologue_end    # /home/chris/test-suite/MultiSource/Benchmarks/7zip/CPP/Common/MyGuidDef.h:27:12
	movl	$0, -4(%rbp)
.LBB81_1:                               # =>This Inner Loop Header: Depth=1
.Ltmp554:
	.loc	6 27 21 is_stmt 0       # /home/chris/test-suite/MultiSource/Benchmarks/7zip/CPP/Common/MyGuidDef.h:27:21
	cmpl	$16, -4(%rbp)
.Ltmp555:
	.loc	6 27 3                  # /home/chris/test-suite/MultiSource/Benchmarks/7zip/CPP/Common/MyGuidDef.h:27:3
	jge	.LBB81_6
# %bb.2:                                #   in Loop: Header=BB81_1 Depth=1
.Ltmp556:
	.loc	6 28 28 is_stmt 1       # /home/chris/test-suite/MultiSource/Benchmarks/7zip/CPP/Common/MyGuidDef.h:28:28
	movq	-24(%rbp), %rax
	.loc	6 28 9 is_stmt 0        # /home/chris/test-suite/MultiSource/Benchmarks/7zip/CPP/Common/MyGuidDef.h:28:9
	movslq	-4(%rbp), %rcx
	movzbl	(%rax,%rcx), %eax
	.loc	6 28 57                 # /home/chris/test-suite/MultiSource/Benchmarks/7zip/CPP/Common/MyGuidDef.h:28:57
	movq	-16(%rbp), %rcx
	.loc	6 28 38                 # /home/chris/test-suite/MultiSource/Benchmarks/7zip/CPP/Common/MyGuidDef.h:28:38
	movslq	-4(%rbp), %rdx
	movzbl	(%rcx,%rdx), %ecx
	.loc	6 28 35                 # /home/chris/test-suite/MultiSource/Benchmarks/7zip/CPP/Common/MyGuidDef.h:28:35
	cmpl	%ecx, %eax
.Ltmp557:
	.loc	6 28 9                  # /home/chris/test-suite/MultiSource/Benchmarks/7zip/CPP/Common/MyGuidDef.h:28:9
	je	.LBB81_4
# %bb.3:
.Ltmp558:
	.loc	6 29 7 is_stmt 1        # /home/chris/test-suite/MultiSource/Benchmarks/7zip/CPP/Common/MyGuidDef.h:29:7
	movl	$0, -8(%rbp)
	jmp	.LBB81_7
.LBB81_4:                               #   in Loop: Header=BB81_1 Depth=1
	.loc	6 28 62                 # /home/chris/test-suite/MultiSource/Benchmarks/7zip/CPP/Common/MyGuidDef.h:28:62
	jmp	.LBB81_5
.Ltmp559:
.LBB81_5:                               #   in Loop: Header=BB81_1 Depth=1
	.loc	6 27 41                 # /home/chris/test-suite/MultiSource/Benchmarks/7zip/CPP/Common/MyGuidDef.h:27:41
	movl	-4(%rbp), %eax
	addl	$1, %eax
	movl	%eax, -4(%rbp)
	.loc	6 27 3 is_stmt 0        # /home/chris/test-suite/MultiSource/Benchmarks/7zip/CPP/Common/MyGuidDef.h:27:3
	jmp	.LBB81_1
.Ltmp560:
.LBB81_6:
	.loc	6 30 3 is_stmt 1        # /home/chris/test-suite/MultiSource/Benchmarks/7zip/CPP/Common/MyGuidDef.h:30:3
	movl	$1, -8(%rbp)
.LBB81_7:
	.loc	6 31 1                  # /home/chris/test-suite/MultiSource/Benchmarks/7zip/CPP/Common/MyGuidDef.h:31:1
	movl	-8(%rbp), %eax
	popq	%rbp
	.cfi_def_cfa %rsp, 8
	retq
.Ltmp561:
.Lfunc_end81:
	.size	_ZeqRK4GUIDS1_, .Lfunc_end81-_ZeqRK4GUIDS1_
	.cfi_endproc
                                        # -- End function
	.section	.text._ZN13CRecordVectorIPvEixEi,"axG",@progbits,_ZN13CRecordVectorIPvEixEi,comdat
	.weak	_ZN13CRecordVectorIPvEixEi # -- Begin function _ZN13CRecordVectorIPvEixEi
	.p2align	4, 0x90
	.type	_ZN13CRecordVectorIPvEixEi,@function
_ZN13CRecordVectorIPvEixEi:             # @_ZN13CRecordVectorIPvEixEi
.Lfunc_begin82:
	.loc	19 68 0                 # /home/chris/test-suite/MultiSource/Benchmarks/7zip/CPP/Common/MyVector.h:68:0
	.cfi_startproc
# %bb.0:
	pushq	%rbp
	.cfi_def_cfa_offset 16
	.cfi_offset %rbp, -16
	movq	%rsp, %rbp
	.cfi_def_cfa_register %rbp
	movq	%rdi, -16(%rbp)
	movl	%esi, -4(%rbp)
	movq	-16(%rbp), %rax
.Ltmp562:
	.loc	19 68 43 prologue_end   # /home/chris/test-suite/MultiSource/Benchmarks/7zip/CPP/Common/MyVector.h:68:43
	movq	16(%rax), %rax
	.loc	19 68 37 is_stmt 0      # /home/chris/test-suite/MultiSource/Benchmarks/7zip/CPP/Common/MyVector.h:68:37
	movslq	-4(%rbp), %rcx
	shlq	$3, %rcx
	addq	%rcx, %rax
	.loc	19 68 30                # /home/chris/test-suite/MultiSource/Benchmarks/7zip/CPP/Common/MyVector.h:68:30
	popq	%rbp
	.cfi_def_cfa %rsp, 8
	retq
.Ltmp563:
.Lfunc_end82:
	.size	_ZN13CRecordVectorIPvEixEi, .Lfunc_end82-_ZN13CRecordVectorIPvEixEi
	.cfi_endproc
                                        # -- End function
	.section	.text._ZN13CRecordVectorIPvE3AddES0_,"axG",@progbits,_ZN13CRecordVectorIPvE3AddES0_,comdat
	.weak	_ZN13CRecordVectorIPvE3AddES0_ # -- Begin function _ZN13CRecordVectorIPvE3AddES0_
	.p2align	4, 0x90
	.type	_ZN13CRecordVectorIPvE3AddES0_,@function
_ZN13CRecordVectorIPvE3AddES0_:         # @_ZN13CRecordVectorIPvE3AddES0_
.Lfunc_begin83:
	.loc	19 55 0 is_stmt 1       # /home/chris/test-suite/MultiSource/Benchmarks/7zip/CPP/Common/MyVector.h:55:0
	.cfi_startproc
# %bb.0:
	pushq	%rbp
	.cfi_def_cfa_offset 16
	.cfi_offset %rbp, -16
	movq	%rsp, %rbp
	.cfi_def_cfa_register %rbp
	pushq	%rbx
	subq	$24, %rsp
	.cfi_offset %rbx, -24
	movq	%rdi, -24(%rbp)
	movq	%rsi, -16(%rbp)
	movq	-24(%rbp), %rbx
.Ltmp564:
	.loc	19 56 5 prologue_end    # /home/chris/test-suite/MultiSource/Benchmarks/7zip/CPP/Common/MyVector.h:56:5
	movq	%rbx, %rdi
	callq	_ZN17CBaseRecordVector18ReserveOnePositionEv
	.loc	19 57 28                # /home/chris/test-suite/MultiSource/Benchmarks/7zip/CPP/Common/MyVector.h:57:28
	movq	-16(%rbp), %rax
	.loc	19 57 11 is_stmt 0      # /home/chris/test-suite/MultiSource/Benchmarks/7zip/CPP/Common/MyVector.h:57:11
	movq	16(%rbx), %rcx
	.loc	19 57 5                 # /home/chris/test-suite/MultiSource/Benchmarks/7zip/CPP/Common/MyVector.h:57:5
	movslq	12(%rbx), %rdx
	.loc	19 57 26                # /home/chris/test-suite/MultiSource/Benchmarks/7zip/CPP/Common/MyVector.h:57:26
	movq	%rax, (%rcx,%rdx,8)
	.loc	19 58 17 is_stmt 1      # /home/chris/test-suite/MultiSource/Benchmarks/7zip/CPP/Common/MyVector.h:58:17
	movl	12(%rbx), %eax
	movl	%eax, %ecx
	addl	$1, %ecx
	movl	%ecx, 12(%rbx)
	.loc	19 58 5 is_stmt 0       # /home/chris/test-suite/MultiSource/Benchmarks/7zip/CPP/Common/MyVector.h:58:5
	addq	$24, %rsp
	popq	%rbx
	popq	%rbp
	.cfi_def_cfa %rsp, 8
	retq
.Ltmp565:
.Lfunc_end83:
	.size	_ZN13CRecordVectorIPvE3AddES0_, .Lfunc_end83-_ZN13CRecordVectorIPvE3AddES0_
	.cfi_endproc
                                        # -- End function
	.section	.text._ZN8NArchive4NSwf4CTagC2ERKS1_,"axG",@progbits,_ZN8NArchive4NSwf4CTagC2ERKS1_,comdat
	.weak	_ZN8NArchive4NSwf4CTagC2ERKS1_ # -- Begin function _ZN8NArchive4NSwf4CTagC2ERKS1_
	.p2align	4, 0x90
	.type	_ZN8NArchive4NSwf4CTagC2ERKS1_,@function
_ZN8NArchive4NSwf4CTagC2ERKS1_:         # @_ZN8NArchive4NSwf4CTagC2ERKS1_
.Lfunc_begin84:
	.loc	4 36 0 is_stmt 1        # /home/chris/test-suite/MultiSource/Benchmarks/7zip/CPP/7zip/Archive/SwfHandler.cpp:36:0
	.cfi_startproc
# %bb.0:
	pushq	%rbp
	.cfi_def_cfa_offset 16
	.cfi_offset %rbp, -16
	movq	%rsp, %rbp
	.cfi_def_cfa_register %rbp
	subq	$16, %rsp
	movq	%rdi, -16(%rbp)
	movq	%rsi, -8(%rbp)
	movq	-16(%rbp), %rdi
.Ltmp566:
	.loc	4 36 8 prologue_end     # /home/chris/test-suite/MultiSource/Benchmarks/7zip/CPP/7zip/Archive/SwfHandler.cpp:36:8
	movq	-8(%rbp), %rax
	movl	(%rax), %eax
	movl	%eax, (%rdi)
	addq	$8, %rdi
	movq	-8(%rbp), %rsi
	addq	$8, %rsi
	callq	_ZN7CBufferIhEC2ERKS0_
	addq	$16, %rsp
	popq	%rbp
	.cfi_def_cfa %rsp, 8
	retq
.Ltmp567:
.Lfunc_end84:
	.size	_ZN8NArchive4NSwf4CTagC2ERKS1_, .Lfunc_end84-_ZN8NArchive4NSwf4CTagC2ERKS1_
	.cfi_endproc
                                        # -- End function
	.section	.text._ZN7CBufferIhEC2ERKS0_,"axG",@progbits,_ZN7CBufferIhEC2ERKS0_,comdat
	.weak	_ZN7CBufferIhEC2ERKS0_  # -- Begin function _ZN7CBufferIhEC2ERKS0_
	.p2align	4, 0x90
	.type	_ZN7CBufferIhEC2ERKS0_,@function
_ZN7CBufferIhEC2ERKS0_:                 # @_ZN7CBufferIhEC2ERKS0_
.Lfunc_begin85:
	.loc	9 21 0                  # /home/chris/test-suite/MultiSource/Benchmarks/7zip/CPP/Common/Buffer.h:21:0
	.cfi_startproc
# %bb.0:
	pushq	%rbp
	.cfi_def_cfa_offset 16
	.cfi_offset %rbp, -16
	movq	%rsp, %rbp
	.cfi_def_cfa_register %rbp
	subq	$16, %rsp
	movabsq	$_ZTV7CBufferIhE, %rax
	addq	$16, %rax
	movq	%rdi, -16(%rbp)
	movq	%rsi, -8(%rbp)
	movq	-16(%rbp), %rdi
.Ltmp568:
	.loc	9 21 59 prologue_end    # /home/chris/test-suite/MultiSource/Benchmarks/7zip/CPP/Common/Buffer.h:21:59
	movq	%rax, (%rdi)
	.loc	9 21 35 is_stmt 0       # /home/chris/test-suite/MultiSource/Benchmarks/7zip/CPP/Common/Buffer.h:21:35
	movq	$0, 8(%rdi)
	.loc	9 21 49                 # /home/chris/test-suite/MultiSource/Benchmarks/7zip/CPP/Common/Buffer.h:21:49
	movq	$0, 16(%rdi)
.Ltmp569:
	.loc	9 21 69                 # /home/chris/test-suite/MultiSource/Benchmarks/7zip/CPP/Common/Buffer.h:21:69
	movq	-8(%rbp), %rsi
	.loc	9 21 67                 # /home/chris/test-suite/MultiSource/Benchmarks/7zip/CPP/Common/Buffer.h:21:67
	callq	_ZN7CBufferIhEaSERKS0_
.Ltmp570:
	.loc	9 21 77                 # /home/chris/test-suite/MultiSource/Benchmarks/7zip/CPP/Common/Buffer.h:21:77
	addq	$16, %rsp
	popq	%rbp
	.cfi_def_cfa %rsp, 8
	retq
.Ltmp571:
.Lfunc_end85:
	.size	_ZN7CBufferIhEC2ERKS0_, .Lfunc_end85-_ZN7CBufferIhEC2ERKS0_
	.cfi_endproc
                                        # -- End function
	.section	.text._ZN7CBufferIhEaSERKS0_,"axG",@progbits,_ZN7CBufferIhEaSERKS0_,comdat
	.weak	_ZN7CBufferIhEaSERKS0_  # -- Begin function _ZN7CBufferIhEaSERKS0_
	.p2align	4, 0x90
	.type	_ZN7CBufferIhEaSERKS0_,@function
_ZN7CBufferIhEaSERKS0_:                 # @_ZN7CBufferIhEaSERKS0_
.Lfunc_begin86:
	.loc	9 45 0 is_stmt 1        # /home/chris/test-suite/MultiSource/Benchmarks/7zip/CPP/Common/Buffer.h:45:0
	.cfi_startproc
# %bb.0:
	pushq	%rbp
	.cfi_def_cfa_offset 16
	.cfi_offset %rbp, -16
	movq	%rsp, %rbp
	.cfi_def_cfa_register %rbp
	pushq	%rbx
	subq	$24, %rsp
	.cfi_offset %rbx, -24
	movq	%rdi, -24(%rbp)
	movq	%rsi, -16(%rbp)
	movq	-24(%rbp), %rbx
.Ltmp572:
	.loc	9 46 5 prologue_end     # /home/chris/test-suite/MultiSource/Benchmarks/7zip/CPP/Common/Buffer.h:46:5
	movq	%rbx, %rdi
	callq	_ZN7CBufferIhE4FreeEv
.Ltmp573:
	.loc	9 47 9                  # /home/chris/test-suite/MultiSource/Benchmarks/7zip/CPP/Common/Buffer.h:47:9
	movq	-16(%rbp), %rax
	.loc	9 47 26 is_stmt 0       # /home/chris/test-suite/MultiSource/Benchmarks/7zip/CPP/Common/Buffer.h:47:26
	cmpq	$0, 8(%rax)
.Ltmp574:
	.loc	9 47 9                  # /home/chris/test-suite/MultiSource/Benchmarks/7zip/CPP/Common/Buffer.h:47:9
	jbe	.LBB86_2
# %bb.1:
.Ltmp575:
	.loc	9 49 19 is_stmt 1       # /home/chris/test-suite/MultiSource/Benchmarks/7zip/CPP/Common/Buffer.h:49:19
	movq	-16(%rbp), %rax
	.loc	9 49 26 is_stmt 0       # /home/chris/test-suite/MultiSource/Benchmarks/7zip/CPP/Common/Buffer.h:49:26
	movq	8(%rax), %rsi
	.loc	9 49 7                  # /home/chris/test-suite/MultiSource/Benchmarks/7zip/CPP/Common/Buffer.h:49:7
	movq	%rbx, %rdi
	callq	_ZN7CBufferIhE11SetCapacityEm
	.loc	9 50 15 is_stmt 1       # /home/chris/test-suite/MultiSource/Benchmarks/7zip/CPP/Common/Buffer.h:50:15
	movq	16(%rbx), %rdi
	.loc	9 50 23 is_stmt 0       # /home/chris/test-suite/MultiSource/Benchmarks/7zip/CPP/Common/Buffer.h:50:23
	movq	-16(%rbp), %rax
	.loc	9 50 30                 # /home/chris/test-suite/MultiSource/Benchmarks/7zip/CPP/Common/Buffer.h:50:30
	movq	16(%rax), %rsi
	.loc	9 50 38                 # /home/chris/test-suite/MultiSource/Benchmarks/7zip/CPP/Common/Buffer.h:50:38
	movq	-16(%rbp), %rax
	.loc	9 50 45                 # /home/chris/test-suite/MultiSource/Benchmarks/7zip/CPP/Common/Buffer.h:50:45
	movq	8(%rax), %rdx
	.loc	9 50 55                 # /home/chris/test-suite/MultiSource/Benchmarks/7zip/CPP/Common/Buffer.h:50:55
	shlq	$0, %rdx
	.loc	9 50 7                  # /home/chris/test-suite/MultiSource/Benchmarks/7zip/CPP/Common/Buffer.h:50:7
	callq	memmove
.Ltmp576:
.LBB86_2:
	.loc	9 52 5 is_stmt 1        # /home/chris/test-suite/MultiSource/Benchmarks/7zip/CPP/Common/Buffer.h:52:5
	movq	%rbx, %rax
	addq	$24, %rsp
	popq	%rbx
	popq	%rbp
	.cfi_def_cfa %rsp, 8
	retq
.Ltmp577:
.Lfunc_end86:
	.size	_ZN7CBufferIhEaSERKS0_, .Lfunc_end86-_ZN7CBufferIhEaSERKS0_
	.cfi_endproc
                                        # -- End function
	.section	.text._ZN7CBufferIhE4FreeEv,"axG",@progbits,_ZN7CBufferIhE4FreeEv,comdat
	.weak	_ZN7CBufferIhE4FreeEv   # -- Begin function _ZN7CBufferIhE4FreeEv
	.p2align	4, 0x90
	.type	_ZN7CBufferIhE4FreeEv,@function
_ZN7CBufferIhE4FreeEv:                  # @_ZN7CBufferIhE4FreeEv
.Lfunc_begin87:
	.loc	9 15 0                  # /home/chris/test-suite/MultiSource/Benchmarks/7zip/CPP/Common/Buffer.h:15:0
	.cfi_startproc
# %bb.0:
	pushq	%rbp
	.cfi_def_cfa_offset 16
	.cfi_offset %rbp, -16
	movq	%rsp, %rbp
	.cfi_def_cfa_register %rbp
	pushq	%rbx
	pushq	%rax
	.cfi_offset %rbx, -24
	movq	%rdi, -16(%rbp)
	movq	-16(%rbp), %rbx
.Ltmp578:
	.loc	9 16 14 prologue_end    # /home/chris/test-suite/MultiSource/Benchmarks/7zip/CPP/Common/Buffer.h:16:14
	movq	16(%rbx), %rdi
	.loc	9 16 5 is_stmt 0        # /home/chris/test-suite/MultiSource/Benchmarks/7zip/CPP/Common/Buffer.h:16:5
	cmpq	$0, %rdi
	je	.LBB87_2
# %bb.1:
	callq	_ZdaPv
.LBB87_2:
	.loc	9 17 12 is_stmt 1       # /home/chris/test-suite/MultiSource/Benchmarks/7zip/CPP/Common/Buffer.h:17:12
	movq	$0, 16(%rbx)
	.loc	9 18 15                 # /home/chris/test-suite/MultiSource/Benchmarks/7zip/CPP/Common/Buffer.h:18:15
	movq	$0, 8(%rbx)
	.loc	9 19 3                  # /home/chris/test-suite/MultiSource/Benchmarks/7zip/CPP/Common/Buffer.h:19:3
	addq	$8, %rsp
	popq	%rbx
	popq	%rbp
	.cfi_def_cfa %rsp, 8
	retq
.Ltmp579:
.Lfunc_end87:
	.size	_ZN7CBufferIhE4FreeEv, .Lfunc_end87-_ZN7CBufferIhE4FreeEv
	.cfi_endproc
                                        # -- End function
	.section	.text._Z5MyMinImET_S0_S0_,"axG",@progbits,_Z5MyMinImET_S0_S0_,comdat
	.weak	_Z5MyMinImET_S0_S0_     # -- Begin function _Z5MyMinImET_S0_S0_
	.p2align	4, 0x90
	.type	_Z5MyMinImET_S0_S0_,@function
_Z5MyMinImET_S0_S0_:                    # @_Z5MyMinImET_S0_S0_
.Lfunc_begin88:
	.file	22 "/home/chris/test-suite/MultiSource/Benchmarks/7zip/CPP/Common/Defs.h"
	.loc	22 7 0                  # /home/chris/test-suite/MultiSource/Benchmarks/7zip/CPP/Common/Defs.h:7:0
	.cfi_startproc
# %bb.0:
	pushq	%rbp
	.cfi_def_cfa_offset 16
	.cfi_offset %rbp, -16
	movq	%rsp, %rbp
	.cfi_def_cfa_register %rbp
	movq	%rdi, -16(%rbp)
	movq	%rsi, -8(%rbp)
.Ltmp580:
	.loc	22 7 13 prologue_end    # /home/chris/test-suite/MultiSource/Benchmarks/7zip/CPP/Common/Defs.h:7:13
	movq	-16(%rbp), %rax
	.loc	22 7 15 is_stmt 0       # /home/chris/test-suite/MultiSource/Benchmarks/7zip/CPP/Common/Defs.h:7:15
	cmpq	-8(%rbp), %rax
	.loc	22 7 13                 # /home/chris/test-suite/MultiSource/Benchmarks/7zip/CPP/Common/Defs.h:7:13
	jae	.LBB88_2
# %bb.1:
	.loc	22 7 21                 # /home/chris/test-suite/MultiSource/Benchmarks/7zip/CPP/Common/Defs.h:7:21
	movq	-16(%rbp), %rax
	.loc	22 7 13                 # /home/chris/test-suite/MultiSource/Benchmarks/7zip/CPP/Common/Defs.h:7:13
	jmp	.LBB88_3
.LBB88_2:
	.loc	22 7 25                 # /home/chris/test-suite/MultiSource/Benchmarks/7zip/CPP/Common/Defs.h:7:25
	movq	-8(%rbp), %rax
.LBB88_3:
	.loc	22 7 6                  # /home/chris/test-suite/MultiSource/Benchmarks/7zip/CPP/Common/Defs.h:7:6
	popq	%rbp
	.cfi_def_cfa %rsp, 8
	retq
.Ltmp581:
.Lfunc_end88:
	.size	_Z5MyMinImET_S0_S0_, .Lfunc_end88-_Z5MyMinImET_S0_S0_
	.cfi_endproc
                                        # -- End function
	.section	.text.startup,"ax",@progbits
	.p2align	4, 0x90         # -- Begin function _GLOBAL__sub_I_SwfHandler.cpp
	.type	_GLOBAL__sub_I_SwfHandler.cpp,@function
_GLOBAL__sub_I_SwfHandler.cpp:          # @_GLOBAL__sub_I_SwfHandler.cpp
.Lfunc_begin89:
	.file	23 "/home/chris/test-suite/MultiSource/Benchmarks/7zip/CPP/7zip/Archive/SwfHandler.cpp"
	.loc	23 0 0 is_stmt 1        # /home/chris/test-suite/MultiSource/Benchmarks/7zip/CPP/7zip/Archive/SwfHandler.cpp:0:0
	.cfi_startproc
# %bb.0:
	pushq	%rbp
	.cfi_def_cfa_offset 16
	.cfi_offset %rbp, -16
	movq	%rsp, %rbp
	.cfi_def_cfa_register %rbp
.Ltmp582:
	callq	__cxx_global_var_init
	popq	%rbp
	.cfi_def_cfa %rsp, 8
	retq
.Ltmp583:
.Lfunc_end89:
	.size	_GLOBAL__sub_I_SwfHandler.cpp, .Lfunc_end89-_GLOBAL__sub_I_SwfHandler.cpp
	.cfi_endproc
                                        # -- End function
	.type	_ZN8NArchive4NSwf6kPropsE,@object # @_ZN8NArchive4NSwf6kPropsE
	.data
	.globl	_ZN8NArchive4NSwf6kPropsE
	.p2align	4
_ZN8NArchive4NSwf6kPropsE:
	.quad	0
	.long	3                       # 0x3
	.short	8                       # 0x8
	.zero	2
	.quad	0
	.long	7                       # 0x7
	.short	21                      # 0x15
	.zero	2
	.quad	0
	.long	28                      # 0x1c
	.short	8                       # 0x8
	.zero	2
	.size	_ZN8NArchive4NSwf6kPropsE, 48

	.type	_ZN8NArchive4NSwfL9g_TagDescE,@object # @_ZN8NArchive4NSwfL9g_TagDescE
	.p2align	4
_ZN8NArchive4NSwfL9g_TagDescE:
	.quad	.L.str
	.quad	.L.str.1
	.quad	.L.str.2
	.quad	0
	.quad	.L.str.3
	.quad	.L.str.4
	.quad	.L.str.5
	.quad	.L.str.6
	.quad	.L.str.7
	.quad	.L.str.8
	.quad	.L.str.9
	.quad	.L.str.10
	.quad	.L.str.11
	.quad	.L.str.12
	.quad	.L.str.13
	.quad	.L.str.14
	.quad	0
	.quad	.L.str.15
	.quad	.L.str.16
	.quad	.L.str.17
	.quad	.L.str.18
	.quad	.L.str.19
	.quad	.L.str.20
	.quad	.L.str.21
	.quad	.L.str.22
	.quad	0
	.quad	.L.str.23
	.quad	0
	.quad	.L.str.24
	.quad	0
	.quad	0
	.quad	0
	.quad	.L.str.25
	.quad	.L.str.26
	.quad	.L.str.27
	.quad	.L.str.28
	.quad	.L.str.29
	.quad	.L.str.30
	.quad	0
	.quad	.L.str.31
	.quad	0
	.quad	.L.str.32
	.quad	0
	.quad	.L.str.33
	.quad	0
	.quad	.L.str.34
	.quad	.L.str.35
	.quad	0
	.quad	.L.str.36
	.quad	0
	.quad	0
	.quad	0
	.quad	0
	.quad	0
	.quad	0
	.quad	0
	.quad	.L.str.37
	.quad	.L.str.38
	.quad	.L.str.39
	.quad	.L.str.40
	.quad	.L.str.41
	.quad	.L.str.42
	.quad	.L.str.43
	.quad	0
	.quad	.L.str.44
	.quad	.L.str.45
	.quad	.L.str.46
	.quad	0
	.quad	0
	.quad	.L.str.47
	.quad	.L.str.48
	.quad	.L.str.49
	.quad	0
	.quad	.L.str.50
	.quad	.L.str.51
	.quad	.L.str.52
	.quad	.L.str.53
	.quad	.L.str.54
	.quad	.L.str.55
	.quad	0
	.quad	0
	.quad	0
	.quad	.L.str.56
	.quad	.L.str.57
	.quad	.L.str.58
	.quad	0
	.quad	.L.str.59
	.quad	.L.str.60
	.quad	.L.str.61
	.quad	.L.str.62
	.quad	.L.str.63
	.quad	.L.str.64
	.size	_ZN8NArchive4NSwfL9g_TagDescE, 736

	.type	_ZN8NArchive4NSwfL13g_RegisterArcE,@object # @_ZN8NArchive4NSwfL13g_RegisterArcE
	.local	_ZN8NArchive4NSwfL13g_RegisterArcE
	.comm	_ZN8NArchive4NSwfL13g_RegisterArcE,1,1
	.type	_ZTVN8NArchive4NSwf8CHandlerE,@object # @_ZTVN8NArchive4NSwf8CHandlerE
	.section	.rodata,"a",@progbits
	.globl	_ZTVN8NArchive4NSwf8CHandlerE
	.p2align	3
_ZTVN8NArchive4NSwf8CHandlerE:
	.quad	0
	.quad	_ZTIN8NArchive4NSwf8CHandlerE
	.quad	_ZN8NArchive4NSwf8CHandler14QueryInterfaceERK4GUIDPPv
	.quad	_ZN8NArchive4NSwf8CHandler6AddRefEv
	.quad	_ZN8NArchive4NSwf8CHandler7ReleaseEv
	.quad	_ZN8NArchive4NSwf8CHandlerD2Ev
	.quad	_ZN8NArchive4NSwf8CHandlerD0Ev
	.quad	_ZN8NArchive4NSwf8CHandler4OpenEP9IInStreamPKyP20IArchiveOpenCallback
	.quad	_ZN8NArchive4NSwf8CHandler5CloseEv
	.quad	_ZN8NArchive4NSwf8CHandler16GetNumberOfItemsEPj
	.quad	_ZN8NArchive4NSwf8CHandler11GetPropertyEjjP14tagPROPVARIANT
	.quad	_ZN8NArchive4NSwf8CHandler7ExtractEPKjjiP23IArchiveExtractCallback
	.quad	_ZN8NArchive4NSwf8CHandler18GetArchivePropertyEjP14tagPROPVARIANT
	.quad	_ZN8NArchive4NSwf8CHandler21GetNumberOfPropertiesEPj
	.quad	_ZN8NArchive4NSwf8CHandler15GetPropertyInfoEjPPwPjPt
	.quad	_ZN8NArchive4NSwf8CHandler28GetNumberOfArchivePropertiesEPj
	.quad	_ZN8NArchive4NSwf8CHandler22GetArchivePropertyInfoEjPPwPjPt
	.quad	_ZN8NArchive4NSwf8CHandler7OpenSeqEP19ISequentialInStream
	.quad	-8
	.quad	_ZTIN8NArchive4NSwf8CHandlerE
	.quad	_ZThn8_N8NArchive4NSwf8CHandler14QueryInterfaceERK4GUIDPPv
	.quad	_ZThn8_N8NArchive4NSwf8CHandler6AddRefEv
	.quad	_ZThn8_N8NArchive4NSwf8CHandler7ReleaseEv
	.quad	_ZThn8_N8NArchive4NSwf8CHandlerD1Ev
	.quad	_ZThn8_N8NArchive4NSwf8CHandlerD0Ev
	.quad	_ZThn8_N8NArchive4NSwf8CHandler7OpenSeqEP19ISequentialInStream
	.size	_ZTVN8NArchive4NSwf8CHandlerE, 208

	.type	_ZTSN8NArchive4NSwf8CHandlerE,@object # @_ZTSN8NArchive4NSwf8CHandlerE
	.globl	_ZTSN8NArchive4NSwf8CHandlerE
_ZTSN8NArchive4NSwf8CHandlerE:
	.asciz	"N8NArchive4NSwf8CHandlerE"
	.size	_ZTSN8NArchive4NSwf8CHandlerE, 26

	.type	_ZTS10IInArchive,@object # @_ZTS10IInArchive
	.section	.rodata._ZTS10IInArchive,"aG",@progbits,_ZTS10IInArchive,comdat
	.weak	_ZTS10IInArchive
_ZTS10IInArchive:
	.asciz	"10IInArchive"
	.size	_ZTS10IInArchive, 13

	.type	_ZTS8IUnknown,@object   # @_ZTS8IUnknown
	.section	.rodata._ZTS8IUnknown,"aG",@progbits,_ZTS8IUnknown,comdat
	.weak	_ZTS8IUnknown
_ZTS8IUnknown:
	.asciz	"8IUnknown"
	.size	_ZTS8IUnknown, 10

	.type	_ZTI8IUnknown,@object   # @_ZTI8IUnknown
	.section	.rodata._ZTI8IUnknown,"aG",@progbits,_ZTI8IUnknown,comdat
	.weak	_ZTI8IUnknown
	.p2align	3
_ZTI8IUnknown:
	.quad	_ZTVN10__cxxabiv117__class_type_infoE+16
	.quad	_ZTS8IUnknown
	.size	_ZTI8IUnknown, 16

	.type	_ZTI10IInArchive,@object # @_ZTI10IInArchive
	.section	.rodata._ZTI10IInArchive,"aG",@progbits,_ZTI10IInArchive,comdat
	.weak	_ZTI10IInArchive
	.p2align	3
_ZTI10IInArchive:
	.quad	_ZTVN10__cxxabiv120__si_class_type_infoE+16
	.quad	_ZTS10IInArchive
	.quad	_ZTI8IUnknown
	.size	_ZTI10IInArchive, 24

	.type	_ZTS15IArchiveOpenSeq,@object # @_ZTS15IArchiveOpenSeq
	.section	.rodata._ZTS15IArchiveOpenSeq,"aG",@progbits,_ZTS15IArchiveOpenSeq,comdat
	.weak	_ZTS15IArchiveOpenSeq
_ZTS15IArchiveOpenSeq:
	.asciz	"15IArchiveOpenSeq"
	.size	_ZTS15IArchiveOpenSeq, 18

	.type	_ZTI15IArchiveOpenSeq,@object # @_ZTI15IArchiveOpenSeq
	.section	.rodata._ZTI15IArchiveOpenSeq,"aG",@progbits,_ZTI15IArchiveOpenSeq,comdat
	.weak	_ZTI15IArchiveOpenSeq
	.p2align	3
_ZTI15IArchiveOpenSeq:
	.quad	_ZTVN10__cxxabiv120__si_class_type_infoE+16
	.quad	_ZTS15IArchiveOpenSeq
	.quad	_ZTI8IUnknown
	.size	_ZTI15IArchiveOpenSeq, 24

	.type	_ZTS13CMyUnknownImp,@object # @_ZTS13CMyUnknownImp
	.section	.rodata._ZTS13CMyUnknownImp,"aG",@progbits,_ZTS13CMyUnknownImp,comdat
	.weak	_ZTS13CMyUnknownImp
_ZTS13CMyUnknownImp:
	.asciz	"13CMyUnknownImp"
	.size	_ZTS13CMyUnknownImp, 16

	.type	_ZTI13CMyUnknownImp,@object # @_ZTI13CMyUnknownImp
	.section	.rodata._ZTI13CMyUnknownImp,"aG",@progbits,_ZTI13CMyUnknownImp,comdat
	.weak	_ZTI13CMyUnknownImp
	.p2align	3
_ZTI13CMyUnknownImp:
	.quad	_ZTVN10__cxxabiv117__class_type_infoE+16
	.quad	_ZTS13CMyUnknownImp
	.size	_ZTI13CMyUnknownImp, 16

	.type	_ZTIN8NArchive4NSwf8CHandlerE,@object # @_ZTIN8NArchive4NSwf8CHandlerE
	.section	.rodata,"a",@progbits
	.globl	_ZTIN8NArchive4NSwf8CHandlerE
	.p2align	3
_ZTIN8NArchive4NSwf8CHandlerE:
	.quad	_ZTVN10__cxxabiv121__vmi_class_type_infoE+16
	.quad	_ZTSN8NArchive4NSwf8CHandlerE
	.long	1                       # 0x1
	.long	3                       # 0x3
	.quad	_ZTI10IInArchive
	.quad	2                       # 0x2
	.quad	_ZTI15IArchiveOpenSeq
	.quad	2050                    # 0x802
	.quad	_ZTI13CMyUnknownImp
	.quad	4098                    # 0x1002
	.size	_ZTIN8NArchive4NSwf8CHandlerE, 72

	.type	.L.str,@object          # @.str
	.section	.rodata.str1.1,"aMS",@progbits,1
.L.str:
	.asciz	"End"
	.size	.L.str, 4

	.type	.L.str.1,@object        # @.str.1
.L.str.1:
	.asciz	"ShowFrame"
	.size	.L.str.1, 10

	.type	.L.str.2,@object        # @.str.2
.L.str.2:
	.asciz	"DefineShape"
	.size	.L.str.2, 12

	.type	.L.str.3,@object        # @.str.3
.L.str.3:
	.asciz	"PlaceObject"
	.size	.L.str.3, 12

	.type	.L.str.4,@object        # @.str.4
.L.str.4:
	.asciz	"RemoveObject"
	.size	.L.str.4, 13

	.type	.L.str.5,@object        # @.str.5
.L.str.5:
	.asciz	"DefineBits"
	.size	.L.str.5, 11

	.type	.L.str.6,@object        # @.str.6
.L.str.6:
	.asciz	"DefineButton"
	.size	.L.str.6, 13

	.type	.L.str.7,@object        # @.str.7
.L.str.7:
	.asciz	"JPEGTables"
	.size	.L.str.7, 11

	.type	.L.str.8,@object        # @.str.8
.L.str.8:
	.asciz	"SetBackgroundColor"
	.size	.L.str.8, 19

	.type	.L.str.9,@object        # @.str.9
.L.str.9:
	.asciz	"DefineFont"
	.size	.L.str.9, 11

	.type	.L.str.10,@object       # @.str.10
.L.str.10:
	.asciz	"DefineText"
	.size	.L.str.10, 11

	.type	.L.str.11,@object       # @.str.11
.L.str.11:
	.asciz	"DoAction"
	.size	.L.str.11, 9

	.type	.L.str.12,@object       # @.str.12
.L.str.12:
	.asciz	"DefineFontInfo"
	.size	.L.str.12, 15

	.type	.L.str.13,@object       # @.str.13
.L.str.13:
	.asciz	"DefineSound"
	.size	.L.str.13, 12

	.type	.L.str.14,@object       # @.str.14
.L.str.14:
	.asciz	"StartSound"
	.size	.L.str.14, 11

	.type	.L.str.15,@object       # @.str.15
.L.str.15:
	.asciz	"DefineButtonSound"
	.size	.L.str.15, 18

	.type	.L.str.16,@object       # @.str.16
.L.str.16:
	.asciz	"SoundStreamHead"
	.size	.L.str.16, 16

	.type	.L.str.17,@object       # @.str.17
.L.str.17:
	.asciz	"SoundStreamBlock"
	.size	.L.str.17, 17

	.type	.L.str.18,@object       # @.str.18
.L.str.18:
	.asciz	"DefineBitsLossless"
	.size	.L.str.18, 19

	.type	.L.str.19,@object       # @.str.19
.L.str.19:
	.asciz	"DefineBitsJPEG2"
	.size	.L.str.19, 16

	.type	.L.str.20,@object       # @.str.20
.L.str.20:
	.asciz	"DefineShape2"
	.size	.L.str.20, 13

	.type	.L.str.21,@object       # @.str.21
.L.str.21:
	.asciz	"DefineButtonCxform"
	.size	.L.str.21, 19

	.type	.L.str.22,@object       # @.str.22
.L.str.22:
	.asciz	"Protect"
	.size	.L.str.22, 8

	.type	.L.str.23,@object       # @.str.23
.L.str.23:
	.asciz	"PlaceObject2"
	.size	.L.str.23, 13

	.type	.L.str.24,@object       # @.str.24
.L.str.24:
	.asciz	"RemoveObject2"
	.size	.L.str.24, 14

	.type	.L.str.25,@object       # @.str.25
.L.str.25:
	.asciz	"DefineShape3"
	.size	.L.str.25, 13

	.type	.L.str.26,@object       # @.str.26
.L.str.26:
	.asciz	"DefineText2"
	.size	.L.str.26, 12

	.type	.L.str.27,@object       # @.str.27
.L.str.27:
	.asciz	"DefineButton2"
	.size	.L.str.27, 14

	.type	.L.str.28,@object       # @.str.28
.L.str.28:
	.asciz	"DefineBitsJPEG3"
	.size	.L.str.28, 16

	.type	.L.str.29,@object       # @.str.29
.L.str.29:
	.asciz	"DefineBitsLossless2"
	.size	.L.str.29, 20

	.type	.L.str.30,@object       # @.str.30
.L.str.30:
	.asciz	"DefineEditText"
	.size	.L.str.30, 15

	.type	.L.str.31,@object       # @.str.31
.L.str.31:
	.asciz	"DefineSprite"
	.size	.L.str.31, 13

	.type	.L.str.32,@object       # @.str.32
.L.str.32:
	.asciz	"41"
	.size	.L.str.32, 3

	.type	.L.str.33,@object       # @.str.33
.L.str.33:
	.asciz	"FrameLabel"
	.size	.L.str.33, 11

	.type	.L.str.34,@object       # @.str.34
.L.str.34:
	.asciz	"SoundStreamHead2"
	.size	.L.str.34, 17

	.type	.L.str.35,@object       # @.str.35
.L.str.35:
	.asciz	"DefineMorphShape"
	.size	.L.str.35, 17

	.type	.L.str.36,@object       # @.str.36
.L.str.36:
	.asciz	"DefineFont2"
	.size	.L.str.36, 12

	.type	.L.str.37,@object       # @.str.37
.L.str.37:
	.asciz	"ExportAssets"
	.size	.L.str.37, 13

	.type	.L.str.38,@object       # @.str.38
.L.str.38:
	.asciz	"ImportAssets"
	.size	.L.str.38, 13

	.type	.L.str.39,@object       # @.str.39
.L.str.39:
	.asciz	"EnableDebugger"
	.size	.L.str.39, 15

	.type	.L.str.40,@object       # @.str.40
.L.str.40:
	.asciz	"DoInitAction"
	.size	.L.str.40, 13

	.type	.L.str.41,@object       # @.str.41
.L.str.41:
	.asciz	"DefineVideoStream"
	.size	.L.str.41, 18

	.type	.L.str.42,@object       # @.str.42
.L.str.42:
	.asciz	"VideoFrame"
	.size	.L.str.42, 11

	.type	.L.str.43,@object       # @.str.43
.L.str.43:
	.asciz	"DefineFontInfo2"
	.size	.L.str.43, 16

	.type	.L.str.44,@object       # @.str.44
.L.str.44:
	.asciz	"EnableDebugger2"
	.size	.L.str.44, 16

	.type	.L.str.45,@object       # @.str.45
.L.str.45:
	.asciz	"ScriptLimits"
	.size	.L.str.45, 13

	.type	.L.str.46,@object       # @.str.46
.L.str.46:
	.asciz	"SetTabIndex"
	.size	.L.str.46, 12

	.type	.L.str.47,@object       # @.str.47
.L.str.47:
	.asciz	"FileAttributes"
	.size	.L.str.47, 15

	.type	.L.str.48,@object       # @.str.48
.L.str.48:
	.asciz	"PlaceObject3"
	.size	.L.str.48, 13

	.type	.L.str.49,@object       # @.str.49
.L.str.49:
	.asciz	"ImportAssets2"
	.size	.L.str.49, 14

	.type	.L.str.50,@object       # @.str.50
.L.str.50:
	.asciz	"DefineFontAlignZones"
	.size	.L.str.50, 21

	.type	.L.str.51,@object       # @.str.51
.L.str.51:
	.asciz	"CSMTextSettings"
	.size	.L.str.51, 16

	.type	.L.str.52,@object       # @.str.52
.L.str.52:
	.asciz	"DefineFont3"
	.size	.L.str.52, 12

	.type	.L.str.53,@object       # @.str.53
.L.str.53:
	.asciz	"SymbolClass"
	.size	.L.str.53, 12

	.type	.L.str.54,@object       # @.str.54
.L.str.54:
	.asciz	"Metadata"
	.size	.L.str.54, 9

	.type	.L.str.55,@object       # @.str.55
.L.str.55:
	.asciz	"DefineScalingGrid"
	.size	.L.str.55, 18

	.type	.L.str.56,@object       # @.str.56
.L.str.56:
	.asciz	"DoABC"
	.size	.L.str.56, 6

	.type	.L.str.57,@object       # @.str.57
.L.str.57:
	.asciz	"DefineShape4"
	.size	.L.str.57, 13

	.type	.L.str.58,@object       # @.str.58
.L.str.58:
	.asciz	"DefineMorphShape2"
	.size	.L.str.58, 18

	.type	.L.str.59,@object       # @.str.59
.L.str.59:
	.asciz	"DefineSceneAndFrameLabelData"
	.size	.L.str.59, 29

	.type	.L.str.60,@object       # @.str.60
.L.str.60:
	.asciz	"DefineBinaryData"
	.size	.L.str.60, 17

	.type	.L.str.61,@object       # @.str.61
.L.str.61:
	.asciz	"DefineFontName"
	.size	.L.str.61, 15

	.type	.L.str.62,@object       # @.str.62
.L.str.62:
	.asciz	"StartSound2"
	.size	.L.str.62, 12

	.type	.L.str.63,@object       # @.str.63
.L.str.63:
	.asciz	"DefineBitsJPEG4"
	.size	.L.str.63, 16

	.type	.L.str.64,@object       # @.str.64
.L.str.64:
	.asciz	"DefineFont4"
	.size	.L.str.64, 12

	.type	_ZTV7CBufferIhE,@object # @_ZTV7CBufferIhE
	.section	.rodata._ZTV7CBufferIhE,"aG",@progbits,_ZTV7CBufferIhE,comdat
	.weak	_ZTV7CBufferIhE
	.p2align	3
_ZTV7CBufferIhE:
	.quad	0
	.quad	_ZTI7CBufferIhE
	.quad	_ZN7CBufferIhED2Ev
	.quad	_ZN7CBufferIhED0Ev
	.size	_ZTV7CBufferIhE, 32

	.type	_ZTS7CBufferIhE,@object # @_ZTS7CBufferIhE
	.section	.rodata._ZTS7CBufferIhE,"aG",@progbits,_ZTS7CBufferIhE,comdat
	.weak	_ZTS7CBufferIhE
_ZTS7CBufferIhE:
	.asciz	"7CBufferIhE"
	.size	_ZTS7CBufferIhE, 12

	.type	_ZTI7CBufferIhE,@object # @_ZTI7CBufferIhE
	.section	.rodata._ZTI7CBufferIhE,"aG",@progbits,_ZTI7CBufferIhE,comdat
	.weak	_ZTI7CBufferIhE
	.p2align	3
_ZTI7CBufferIhE:
	.quad	_ZTVN10__cxxabiv117__class_type_infoE+16
	.quad	_ZTS7CBufferIhE
	.size	_ZTI7CBufferIhE, 16

	.type	.L.str.65,@object       # @.str.65
	.section	.rodata.str4.4,"aMS",@progbits,4
	.p2align	2
.L.str.65:
	.long	83                      # 0x53
	.long	87                      # 0x57
	.long	70                      # 0x46
	.long	0                       # 0x0
	.size	.L.str.65, 16

	.type	.L.str.66,@object       # @.str.66
	.p2align	2
.L.str.66:
	.long	115                     # 0x73
	.long	119                     # 0x77
	.long	102                     # 0x66
	.long	0                       # 0x0
	.size	.L.str.66, 16

	.type	_ZN8NArchive4NSwfL9g_ArcInfoE,@object # @_ZN8NArchive4NSwfL9g_ArcInfoE
	.data
	.p2align	3
_ZN8NArchive4NSwfL9g_ArcInfoE:
	.quad	.L.str.65
	.quad	.L.str.66
	.quad	0
	.byte	215                     # 0xd7
	.byte	70                      # 0x46
	.byte	87                      # 0x57
	.byte	83                      # 0x53
	.zero	25
	.zero	3
	.long	3                       # 0x3
	.byte	1                       # 0x1
	.zero	3
	.quad	_ZN8NArchive4NSwfL9CreateArcEv
	.quad	0
	.size	_ZN8NArchive4NSwfL9g_ArcInfoE, 80

	.type	_ZTV10IInArchive,@object # @_ZTV10IInArchive
	.section	.rodata._ZTV10IInArchive,"aG",@progbits,_ZTV10IInArchive,comdat
	.weak	_ZTV10IInArchive
	.p2align	3
_ZTV10IInArchive:
	.quad	0
	.quad	_ZTI10IInArchive
	.quad	__cxa_pure_virtual
	.quad	__cxa_pure_virtual
	.quad	__cxa_pure_virtual
	.quad	_ZN10IInArchiveD2Ev
	.quad	_ZN10IInArchiveD0Ev
	.quad	__cxa_pure_virtual
	.quad	__cxa_pure_virtual
	.quad	__cxa_pure_virtual
	.quad	__cxa_pure_virtual
	.quad	__cxa_pure_virtual
	.quad	__cxa_pure_virtual
	.quad	__cxa_pure_virtual
	.quad	__cxa_pure_virtual
	.quad	__cxa_pure_virtual
	.quad	__cxa_pure_virtual
	.size	_ZTV10IInArchive, 136

	.type	_ZTV8IUnknown,@object   # @_ZTV8IUnknown
	.section	.rodata._ZTV8IUnknown,"aG",@progbits,_ZTV8IUnknown,comdat
	.weak	_ZTV8IUnknown
	.p2align	3
_ZTV8IUnknown:
	.quad	0
	.quad	_ZTI8IUnknown
	.quad	__cxa_pure_virtual
	.quad	__cxa_pure_virtual
	.quad	__cxa_pure_virtual
	.quad	_ZN8IUnknownD2Ev
	.quad	_ZN8IUnknownD0Ev
	.size	_ZTV8IUnknown, 56

	.type	_ZTV15IArchiveOpenSeq,@object # @_ZTV15IArchiveOpenSeq
	.section	.rodata._ZTV15IArchiveOpenSeq,"aG",@progbits,_ZTV15IArchiveOpenSeq,comdat
	.weak	_ZTV15IArchiveOpenSeq
	.p2align	3
_ZTV15IArchiveOpenSeq:
	.quad	0
	.quad	_ZTI15IArchiveOpenSeq
	.quad	__cxa_pure_virtual
	.quad	__cxa_pure_virtual
	.quad	__cxa_pure_virtual
	.quad	_ZN15IArchiveOpenSeqD2Ev
	.quad	_ZN15IArchiveOpenSeqD0Ev
	.quad	__cxa_pure_virtual
	.size	_ZTV15IArchiveOpenSeq, 64

	.type	_ZTV13CObjectVectorIN8NArchive4NSwf4CTagEE,@object # @_ZTV13CObjectVectorIN8NArchive4NSwf4CTagEE
	.section	.rodata._ZTV13CObjectVectorIN8NArchive4NSwf4CTagEE,"aG",@progbits,_ZTV13CObjectVectorIN8NArchive4NSwf4CTagEE,comdat
	.weak	_ZTV13CObjectVectorIN8NArchive4NSwf4CTagEE
	.p2align	3
_ZTV13CObjectVectorIN8NArchive4NSwf4CTagEE:
	.quad	0
	.quad	_ZTI13CObjectVectorIN8NArchive4NSwf4CTagEE
	.quad	_ZN13CObjectVectorIN8NArchive4NSwf4CTagEED2Ev
	.quad	_ZN13CObjectVectorIN8NArchive4NSwf4CTagEED0Ev
	.quad	_ZN13CObjectVectorIN8NArchive4NSwf4CTagEE6DeleteEii
	.size	_ZTV13CObjectVectorIN8NArchive4NSwf4CTagEE, 40

	.type	_ZTS13CObjectVectorIN8NArchive4NSwf4CTagEE,@object # @_ZTS13CObjectVectorIN8NArchive4NSwf4CTagEE
	.section	.rodata._ZTS13CObjectVectorIN8NArchive4NSwf4CTagEE,"aG",@progbits,_ZTS13CObjectVectorIN8NArchive4NSwf4CTagEE,comdat
	.weak	_ZTS13CObjectVectorIN8NArchive4NSwf4CTagEE
_ZTS13CObjectVectorIN8NArchive4NSwf4CTagEE:
	.asciz	"13CObjectVectorIN8NArchive4NSwf4CTagEE"
	.size	_ZTS13CObjectVectorIN8NArchive4NSwf4CTagEE, 39

	.type	_ZTS13CRecordVectorIPvE,@object # @_ZTS13CRecordVectorIPvE
	.section	.rodata._ZTS13CRecordVectorIPvE,"aG",@progbits,_ZTS13CRecordVectorIPvE,comdat
	.weak	_ZTS13CRecordVectorIPvE
_ZTS13CRecordVectorIPvE:
	.asciz	"13CRecordVectorIPvE"
	.size	_ZTS13CRecordVectorIPvE, 20

	.type	_ZTI13CRecordVectorIPvE,@object # @_ZTI13CRecordVectorIPvE
	.section	.rodata._ZTI13CRecordVectorIPvE,"aG",@progbits,_ZTI13CRecordVectorIPvE,comdat
	.weak	_ZTI13CRecordVectorIPvE
	.p2align	3
_ZTI13CRecordVectorIPvE:
	.quad	_ZTVN10__cxxabiv120__si_class_type_infoE+16
	.quad	_ZTS13CRecordVectorIPvE
	.quad	_ZTI17CBaseRecordVector
	.size	_ZTI13CRecordVectorIPvE, 24

	.type	_ZTI13CObjectVectorIN8NArchive4NSwf4CTagEE,@object # @_ZTI13CObjectVectorIN8NArchive4NSwf4CTagEE
	.section	.rodata._ZTI13CObjectVectorIN8NArchive4NSwf4CTagEE,"aG",@progbits,_ZTI13CObjectVectorIN8NArchive4NSwf4CTagEE,comdat
	.weak	_ZTI13CObjectVectorIN8NArchive4NSwf4CTagEE
	.p2align	3
_ZTI13CObjectVectorIN8NArchive4NSwf4CTagEE:
	.quad	_ZTVN10__cxxabiv120__si_class_type_infoE+16
	.quad	_ZTS13CObjectVectorIN8NArchive4NSwf4CTagEE
	.quad	_ZTI13CRecordVectorIPvE
	.size	_ZTI13CObjectVectorIN8NArchive4NSwf4CTagEE, 24

	.type	_ZTV13CRecordVectorIPvE,@object # @_ZTV13CRecordVectorIPvE
	.section	.rodata._ZTV13CRecordVectorIPvE,"aG",@progbits,_ZTV13CRecordVectorIPvE,comdat
